c000  4c f5 c5   JMP $c5f5   A:00 X:00 Y:00 P:24 SP:fd
c5f5  a2 00      LDX #$00    A:00 X:00 Y:00 P:24 SP:fd
c5f7  86 00      STX $00     A:00 X:00 Y:00 P:26 SP:fd
c5f9  86 10      STX $10     A:00 X:00 Y:00 P:26 SP:fd
c5fb  86 11      STX $11     A:00 X:00 Y:00 P:26 SP:fd
c5fd  20 2d c7   JSR $c72d   A:00 X:00 Y:00 P:26 SP:fd
c72d  ea         NOP         A:00 X:00 Y:00 P:26 SP:fb
c72e  38         SEC         A:00 X:00 Y:00 P:26 SP:fb
c72f  b0 04      BCS $c735   A:00 X:00 Y:00 P:27 SP:fb
c735  ea         NOP         A:00 X:00 Y:00 P:27 SP:fb
c736  18         CLC         A:00 X:00 Y:00 P:27 SP:fb
c737  b0 03      BCS $c73c   A:00 X:00 Y:00 P:26 SP:fb
c739  4c 40 c7   JMP $c740   A:00 X:00 Y:00 P:26 SP:fb
c740  ea         NOP         A:00 X:00 Y:00 P:26 SP:fb
c741  38         SEC         A:00 X:00 Y:00 P:26 SP:fb
c742  90 03      BCC $c747   A:00 X:00 Y:00 P:27 SP:fb
c744  4c 4b c7   JMP $c74b   A:00 X:00 Y:00 P:27 SP:fb
c74b  ea         NOP         A:00 X:00 Y:00 P:27 SP:fb
c74c  18         CLC         A:00 X:00 Y:00 P:27 SP:fb
c74d  90 04      BCC $c753   A:00 X:00 Y:00 P:26 SP:fb
c753  ea         NOP         A:00 X:00 Y:00 P:26 SP:fb
c754  a9 00      LDA #$00    A:00 X:00 Y:00 P:26 SP:fb
c756  f0 04      BEQ $c75c   A:00 X:00 Y:00 P:26 SP:fb
c75c  ea         NOP         A:00 X:00 Y:00 P:26 SP:fb
c75d  a9 40      LDA #$40    A:00 X:00 Y:00 P:26 SP:fb
c75f  f0 03      BEQ $c764   A:40 X:00 Y:00 P:24 SP:fb
c761  4c 68 c7   JMP $c768   A:40 X:00 Y:00 P:24 SP:fb
c768  ea         NOP         A:40 X:00 Y:00 P:24 SP:fb
c769  a9 40      LDA #$40    A:40 X:00 Y:00 P:24 SP:fb
c76b  d0 04      BNE $c771   A:40 X:00 Y:00 P:24 SP:fb
c771  ea         NOP         A:40 X:00 Y:00 P:24 SP:fb
c772  a9 00      LDA #$00    A:40 X:00 Y:00 P:24 SP:fb
c774  d0 03      BNE $c779   A:00 X:00 Y:00 P:26 SP:fb
c776  4c 7d c7   JMP $c77d   A:00 X:00 Y:00 P:26 SP:fb
c77d  ea         NOP         A:00 X:00 Y:00 P:26 SP:fb
c77e  a9 ff      LDA #$ff    A:00 X:00 Y:00 P:26 SP:fb
c780  85 01      STA $01     A:ff X:00 Y:00 P:a4 SP:fb
c782  24 01      BIT $01     A:ff X:00 Y:00 P:a4 SP:fb
c784  70 04      BVS $c78a   A:ff X:00 Y:00 P:e4 SP:fb
c78a  ea         NOP         A:ff X:00 Y:00 P:e4 SP:fb
c78b  24 01      BIT $01     A:ff X:00 Y:00 P:e4 SP:fb
c78d  50 03      BVC $c792   A:ff X:00 Y:00 P:e4 SP:fb
c78f  4c 96 c7   JMP $c796   A:ff X:00 Y:00 P:e4 SP:fb
c796  ea         NOP         A:ff X:00 Y:00 P:e4 SP:fb
c797  a9 00      LDA #$00    A:ff X:00 Y:00 P:e4 SP:fb
c799  85 01      STA $01     A:00 X:00 Y:00 P:66 SP:fb
c79b  24 01      BIT $01     A:00 X:00 Y:00 P:66 SP:fb
c79d  50 04      BVC $c7a3   A:00 X:00 Y:00 P:26 SP:fb
c7a3  ea         NOP         A:00 X:00 Y:00 P:26 SP:fb
c7a4  24 01      BIT $01     A:00 X:00 Y:00 P:26 SP:fb
c7a6  70 03      BVS $c7ab   A:00 X:00 Y:00 P:26 SP:fb
c7a8  4c af c7   JMP $c7af   A:00 X:00 Y:00 P:26 SP:fb
c7af  ea         NOP         A:00 X:00 Y:00 P:26 SP:fb
c7b0  a9 00      LDA #$00    A:00 X:00 Y:00 P:26 SP:fb
c7b2  10 04      BPL $c7b8   A:00 X:00 Y:00 P:26 SP:fb
c7b8  ea         NOP         A:00 X:00 Y:00 P:26 SP:fb
c7b9  a9 80      LDA #$80    A:00 X:00 Y:00 P:26 SP:fb
c7bb  10 03      BPL $c7c0   A:80 X:00 Y:00 P:a4 SP:fb
c7bd  4c d9 c7   JMP $c7d9   A:80 X:00 Y:00 P:a4 SP:fb
c7d9  ea         NOP         A:80 X:00 Y:00 P:a4 SP:fb
c7da  60         RTS         A:80 X:00 Y:00 P:a4 SP:fb
c600  20 db c7   JSR $c7db   A:80 X:00 Y:00 P:a4 SP:fd
c7db  ea         NOP         A:80 X:00 Y:00 P:a4 SP:fb
c7dc  a9 ff      LDA #$ff    A:80 X:00 Y:00 P:a4 SP:fb
c7de  85 01      STA $01     A:ff X:00 Y:00 P:a4 SP:fb
c7e0  24 01      BIT $01     A:ff X:00 Y:00 P:a4 SP:fb
c7e2  a9 00      LDA #$00    A:ff X:00 Y:00 P:e4 SP:fb
c7e4  38         SEC         A:00 X:00 Y:00 P:66 SP:fb
c7e5  78         SEI         A:00 X:00 Y:00 P:67 SP:fb
c7e6  f8         SED         A:00 X:00 Y:00 P:67 SP:fb
c7e7  08         PHP         A:00 X:00 Y:00 P:6f SP:fb
c7e8  68         PLA         A:00 X:00 Y:00 P:6f SP:fa
c7e9  29 ef      AND #$ef    A:7f X:00 Y:00 P:6d SP:fb
c7eb  c9 6f      CMP #$6f    A:6f X:00 Y:00 P:6d SP:fb
c7ed  f0 04      BEQ $c7f3   A:6f X:00 Y:00 P:6f SP:fb
c7f3  ea         NOP         A:6f X:00 Y:00 P:6f SP:fb
c7f4  a9 40      LDA #$40    A:6f X:00 Y:00 P:6f SP:fb
c7f6  85 01      STA $01     A:40 X:00 Y:00 P:6d SP:fb
c7f8  24 01      BIT $01     A:40 X:00 Y:00 P:6d SP:fb
c7fa  d8         CLD         A:40 X:00 Y:00 P:6d SP:fb
c7fb  a9 10      LDA #$10    A:40 X:00 Y:00 P:65 SP:fb
c7fd  18         CLC         A:10 X:00 Y:00 P:65 SP:fb
c7fe  08         PHP         A:10 X:00 Y:00 P:64 SP:fb
c7ff  68         PLA         A:10 X:00 Y:00 P:64 SP:fa
c800  29 ef      AND #$ef    A:74 X:00 Y:00 P:64 SP:fb
c802  c9 64      CMP #$64    A:64 X:00 Y:00 P:64 SP:fb
c804  f0 04      BEQ $c80a   A:64 X:00 Y:00 P:67 SP:fb
c80a  ea         NOP         A:64 X:00 Y:00 P:67 SP:fb
c80b  a9 80      LDA #$80    A:64 X:00 Y:00 P:67 SP:fb
c80d  85 01      STA $01     A:80 X:00 Y:00 P:e5 SP:fb
c80f  24 01      BIT $01     A:80 X:00 Y:00 P:e5 SP:fb
c811  f8         SED         A:80 X:00 Y:00 P:a5 SP:fb
c812  a9 00      LDA #$00    A:80 X:00 Y:00 P:ad SP:fb
c814  38         SEC         A:00 X:00 Y:00 P:2f SP:fb
c815  08         PHP         A:00 X:00 Y:00 P:2f SP:fb
c816  68         PLA         A:00 X:00 Y:00 P:2f SP:fa
c817  29 ef      AND #$ef    A:3f X:00 Y:00 P:2d SP:fb
c819  c9 2f      CMP #$2f    A:2f X:00 Y:00 P:2d SP:fb
c81b  f0 04      BEQ $c821   A:2f X:00 Y:00 P:2f SP:fb
c821  ea         NOP         A:2f X:00 Y:00 P:2f SP:fb
c822  a9 ff      LDA #$ff    A:2f X:00 Y:00 P:2f SP:fb
c824  48         PHA         A:ff X:00 Y:00 P:ad SP:fb
c825  28         PLP         A:ff X:00 Y:00 P:ad SP:fa
c826  d0 09      BNE $c831   A:ff X:00 Y:00 P:ef SP:fb
c828  10 07      BPL $c831   A:ff X:00 Y:00 P:ef SP:fb
c82a  50 05      BVC $c831   A:ff X:00 Y:00 P:ef SP:fb
c82c  90 03      BCC $c831   A:ff X:00 Y:00 P:ef SP:fb
c82e  4c 35 c8   JMP $c835   A:ff X:00 Y:00 P:ef SP:fb
c835  ea         NOP         A:ff X:00 Y:00 P:ef SP:fb
c836  a9 04      LDA #$04    A:ff X:00 Y:00 P:ef SP:fb
c838  48         PHA         A:04 X:00 Y:00 P:6d SP:fb
c839  28         PLP         A:04 X:00 Y:00 P:6d SP:fa
c83a  f0 09      BEQ $c845   A:04 X:00 Y:00 P:24 SP:fb
c83c  30 07      BMI $c845   A:04 X:00 Y:00 P:24 SP:fb
c83e  70 05      BVS $c845   A:04 X:00 Y:00 P:24 SP:fb
c840  b0 03      BCS $c845   A:04 X:00 Y:00 P:24 SP:fb
c842  4c 49 c8   JMP $c849   A:04 X:00 Y:00 P:24 SP:fb
c849  ea         NOP         A:04 X:00 Y:00 P:24 SP:fb
c84a  f8         SED         A:04 X:00 Y:00 P:24 SP:fb
c84b  a9 ff      LDA #$ff    A:04 X:00 Y:00 P:2c SP:fb
c84d  85 01      STA $01     A:ff X:00 Y:00 P:ac SP:fb
c84f  24 01      BIT $01     A:ff X:00 Y:00 P:ac SP:fb
c851  18         CLC         A:ff X:00 Y:00 P:ec SP:fb
c852  a9 00      LDA #$00    A:ff X:00 Y:00 P:ec SP:fb
c854  48         PHA         A:00 X:00 Y:00 P:6e SP:fb
c855  a9 ff      LDA #$ff    A:00 X:00 Y:00 P:6e SP:fa
c857  68         PLA         A:ff X:00 Y:00 P:ec SP:fa
c858  d0 09      BNE $c863   A:00 X:00 Y:00 P:6e SP:fb
c85a  30 07      BMI $c863   A:00 X:00 Y:00 P:6e SP:fb
c85c  50 05      BVC $c863   A:00 X:00 Y:00 P:6e SP:fb
c85e  b0 03      BCS $c863   A:00 X:00 Y:00 P:6e SP:fb
c860  4c 67 c8   JMP $c867   A:00 X:00 Y:00 P:6e SP:fb
c867  ea         NOP         A:00 X:00 Y:00 P:6e SP:fb
c868  a9 00      LDA #$00    A:00 X:00 Y:00 P:6e SP:fb
c86a  85 01      STA $01     A:00 X:00 Y:00 P:6e SP:fb
c86c  24 01      BIT $01     A:00 X:00 Y:00 P:6e SP:fb
c86e  38         SEC         A:00 X:00 Y:00 P:2e SP:fb
c86f  a9 ff      LDA #$ff    A:00 X:00 Y:00 P:2f SP:fb
c871  48         PHA         A:ff X:00 Y:00 P:ad SP:fb
c872  a9 00      LDA #$00    A:ff X:00 Y:00 P:ad SP:fa
c874  68         PLA         A:00 X:00 Y:00 P:2f SP:fa
c875  f0 09      BEQ $c880   A:ff X:00 Y:00 P:ad SP:fb
c877  10 07      BPL $c880   A:ff X:00 Y:00 P:ad SP:fb
c879  70 05      BVS $c880   A:ff X:00 Y:00 P:ad SP:fb
c87b  90 03      BCC $c880   A:ff X:00 Y:00 P:ad SP:fb
c87d  4c 84 c8   JMP $c884   A:ff X:00 Y:00 P:ad SP:fb
c884  60         RTS         A:ff X:00 Y:00 P:ad SP:fb
c603  20 85 c8   JSR $c885   A:ff X:00 Y:00 P:ad SP:fd
c885  ea         NOP         A:ff X:00 Y:00 P:ad SP:fb
c886  18         CLC         A:ff X:00 Y:00 P:ad SP:fb
c887  a9 ff      LDA #$ff    A:ff X:00 Y:00 P:ac SP:fb
c889  85 01      STA $01     A:ff X:00 Y:00 P:ac SP:fb
c88b  24 01      BIT $01     A:ff X:00 Y:00 P:ac SP:fb
c88d  a9 55      LDA #$55    A:ff X:00 Y:00 P:ec SP:fb
c88f  09 aa      ORA #$aa    A:55 X:00 Y:00 P:6c SP:fb
c891  b0 0b      BCS $c89e   A:ff X:00 Y:00 P:ec SP:fb
c893  10 09      BPL $c89e   A:ff X:00 Y:00 P:ec SP:fb
c895  c9 ff      CMP #$ff    A:ff X:00 Y:00 P:ec SP:fb
c897  d0 05      BNE $c89e   A:ff X:00 Y:00 P:6f SP:fb
c899  50 03      BVC $c89e   A:ff X:00 Y:00 P:6f SP:fb
c89b  4c a2 c8   JMP $c8a2   A:ff X:00 Y:00 P:6f SP:fb
c8a2  ea         NOP         A:ff X:00 Y:00 P:6f SP:fb
c8a3  38         SEC         A:ff X:00 Y:00 P:6f SP:fb
c8a4  b8         CLV         A:ff X:00 Y:00 P:6f SP:fb
c8a5  a9 00      LDA #$00    A:ff X:00 Y:00 P:2f SP:fb
c8a7  09 00      ORA #$00    A:00 X:00 Y:00 P:2f SP:fb
c8a9  d0 09      BNE $c8b4   A:00 X:00 Y:00 P:2f SP:fb
c8ab  70 07      BVS $c8b4   A:00 X:00 Y:00 P:2f SP:fb
c8ad  90 05      BCC $c8b4   A:00 X:00 Y:00 P:2f SP:fb
c8af  30 03      BMI $c8b4   A:00 X:00 Y:00 P:2f SP:fb
c8b1  4c b8 c8   JMP $c8b8   A:00 X:00 Y:00 P:2f SP:fb
c8b8  ea         NOP         A:00 X:00 Y:00 P:2f SP:fb
c8b9  18         CLC         A:00 X:00 Y:00 P:2f SP:fb
c8ba  24 01      BIT $01     A:00 X:00 Y:00 P:2e SP:fb
c8bc  a9 55      LDA #$55    A:00 X:00 Y:00 P:ee SP:fb
c8be  29 aa      AND #$aa    A:55 X:00 Y:00 P:6c SP:fb
c8c0  d0 09      BNE $c8cb   A:00 X:00 Y:00 P:6e SP:fb
c8c2  50 07      BVC $c8cb   A:00 X:00 Y:00 P:6e SP:fb
c8c4  b0 05      BCS $c8cb   A:00 X:00 Y:00 P:6e SP:fb
c8c6  30 03      BMI $c8cb   A:00 X:00 Y:00 P:6e SP:fb
c8c8  4c cf c8   JMP $c8cf   A:00 X:00 Y:00 P:6e SP:fb
c8cf  ea         NOP         A:00 X:00 Y:00 P:6e SP:fb
c8d0  38         SEC         A:00 X:00 Y:00 P:6e SP:fb
c8d1  b8         CLV         A:00 X:00 Y:00 P:6f SP:fb
c8d2  a9 f8      LDA #$f8    A:00 X:00 Y:00 P:2f SP:fb
c8d4  29 ef      AND #$ef    A:f8 X:00 Y:00 P:ad SP:fb
c8d6  90 0b      BCC $c8e3   A:e8 X:00 Y:00 P:ad SP:fb
c8d8  10 09      BPL $c8e3   A:e8 X:00 Y:00 P:ad SP:fb
c8da  c9 e8      CMP #$e8    A:e8 X:00 Y:00 P:ad SP:fb
c8dc  d0 05      BNE $c8e3   A:e8 X:00 Y:00 P:2f SP:fb
c8de  70 03      BVS $c8e3   A:e8 X:00 Y:00 P:2f SP:fb
c8e0  4c e7 c8   JMP $c8e7   A:e8 X:00 Y:00 P:2f SP:fb
c8e7  ea         NOP         A:e8 X:00 Y:00 P:2f SP:fb
c8e8  18         CLC         A:e8 X:00 Y:00 P:2f SP:fb
c8e9  24 01      BIT $01     A:e8 X:00 Y:00 P:2e SP:fb
c8eb  a9 5f      LDA #$5f    A:e8 X:00 Y:00 P:ec SP:fb
c8ed  49 aa      EOR #$aa    A:5f X:00 Y:00 P:6c SP:fb
c8ef  b0 0b      BCS $c8fc   A:f5 X:00 Y:00 P:ec SP:fb
c8f1  10 09      BPL $c8fc   A:f5 X:00 Y:00 P:ec SP:fb
c8f3  c9 f5      CMP #$f5    A:f5 X:00 Y:00 P:ec SP:fb
c8f5  d0 05      BNE $c8fc   A:f5 X:00 Y:00 P:6f SP:fb
c8f7  50 03      BVC $c8fc   A:f5 X:00 Y:00 P:6f SP:fb
c8f9  4c 00 c9   JMP $c900   A:f5 X:00 Y:00 P:6f SP:fb
c900  ea         NOP         A:f5 X:00 Y:00 P:6f SP:fb
c901  38         SEC         A:f5 X:00 Y:00 P:6f SP:fb
c902  b8         CLV         A:f5 X:00 Y:00 P:6f SP:fb
c903  a9 70      LDA #$70    A:f5 X:00 Y:00 P:2f SP:fb
c905  49 70      EOR #$70    A:70 X:00 Y:00 P:2d SP:fb
c907  d0 09      BNE $c912   A:00 X:00 Y:00 P:2f SP:fb
c909  70 07      BVS $c912   A:00 X:00 Y:00 P:2f SP:fb
c90b  90 05      BCC $c912   A:00 X:00 Y:00 P:2f SP:fb
c90d  30 03      BMI $c912   A:00 X:00 Y:00 P:2f SP:fb
c90f  4c 16 c9   JMP $c916   A:00 X:00 Y:00 P:2f SP:fb
c916  ea         NOP         A:00 X:00 Y:00 P:2f SP:fb
c917  18         CLC         A:00 X:00 Y:00 P:2f SP:fb
c918  24 01      BIT $01     A:00 X:00 Y:00 P:2e SP:fb
c91a  a9 00      LDA #$00    A:00 X:00 Y:00 P:ee SP:fb
c91c  69 69      ADC #$69    A:00 X:00 Y:00 P:6e SP:fb
c91e  30 0b      BMI $c92b   A:69 X:00 Y:00 P:2c SP:fb
c920  b0 09      BCS $c92b   A:69 X:00 Y:00 P:2c SP:fb
c922  c9 69      CMP #$69    A:69 X:00 Y:00 P:2c SP:fb
c924  d0 05      BNE $c92b   A:69 X:00 Y:00 P:2f SP:fb
c926  70 03      BVS $c92b   A:69 X:00 Y:00 P:2f SP:fb
c928  4c 2f c9   JMP $c92f   A:69 X:00 Y:00 P:2f SP:fb
c92f  ea         NOP         A:69 X:00 Y:00 P:2f SP:fb
c930  38         SEC         A:69 X:00 Y:00 P:2f SP:fb
c931  f8         SED         A:69 X:00 Y:00 P:2f SP:fb
c932  24 01      BIT $01     A:69 X:00 Y:00 P:2f SP:fb
c934  a9 01      LDA #$01    A:69 X:00 Y:00 P:ed SP:fb
c936  69 69      ADC #$69    A:01 X:00 Y:00 P:6d SP:fb
c938  30 0b      BMI $c945   A:6b X:00 Y:00 P:2c SP:fb
c93a  b0 09      BCS $c945   A:6b X:00 Y:00 P:2c SP:fb
c93c  c9 6b      CMP #$6b    A:6b X:00 Y:00 P:2c SP:fb
c93e  d0 05      BNE $c945   A:6b X:00 Y:00 P:2f SP:fb
c940  70 03      BVS $c945   A:6b X:00 Y:00 P:2f SP:fb
c942  4c 49 c9   JMP $c949   A:6b X:00 Y:00 P:2f SP:fb
c949  ea         NOP         A:6b X:00 Y:00 P:2f SP:fb
c94a  d8         CLD         A:6b X:00 Y:00 P:2f SP:fb
c94b  38         SEC         A:6b X:00 Y:00 P:27 SP:fb
c94c  b8         CLV         A:6b X:00 Y:00 P:27 SP:fb
c94d  a9 7f      LDA #$7f    A:6b X:00 Y:00 P:27 SP:fb
c94f  69 7f      ADC #$7f    A:7f X:00 Y:00 P:25 SP:fb
c951  10 0b      BPL $c95e   A:ff X:00 Y:00 P:e4 SP:fb
c953  b0 09      BCS $c95e   A:ff X:00 Y:00 P:e4 SP:fb
c955  c9 ff      CMP #$ff    A:ff X:00 Y:00 P:e4 SP:fb
c957  d0 05      BNE $c95e   A:ff X:00 Y:00 P:67 SP:fb
c959  50 03      BVC $c95e   A:ff X:00 Y:00 P:67 SP:fb
c95b  4c 62 c9   JMP $c962   A:ff X:00 Y:00 P:67 SP:fb
c962  ea         NOP         A:ff X:00 Y:00 P:67 SP:fb
c963  18         CLC         A:ff X:00 Y:00 P:67 SP:fb
c964  24 01      BIT $01     A:ff X:00 Y:00 P:66 SP:fb
c966  a9 7f      LDA #$7f    A:ff X:00 Y:00 P:e4 SP:fb
c968  69 80      ADC #$80    A:7f X:00 Y:00 P:64 SP:fb
c96a  10 0b      BPL $c977   A:ff X:00 Y:00 P:a4 SP:fb
c96c  b0 09      BCS $c977   A:ff X:00 Y:00 P:a4 SP:fb
c96e  c9 ff      CMP #$ff    A:ff X:00 Y:00 P:a4 SP:fb
c970  d0 05      BNE $c977   A:ff X:00 Y:00 P:27 SP:fb
c972  70 03      BVS $c977   A:ff X:00 Y:00 P:27 SP:fb
c974  4c 7b c9   JMP $c97b   A:ff X:00 Y:00 P:27 SP:fb
c97b  ea         NOP         A:ff X:00 Y:00 P:27 SP:fb
c97c  38         SEC         A:ff X:00 Y:00 P:27 SP:fb
c97d  b8         CLV         A:ff X:00 Y:00 P:27 SP:fb
c97e  a9 7f      LDA #$7f    A:ff X:00 Y:00 P:27 SP:fb
c980  69 80      ADC #$80    A:7f X:00 Y:00 P:25 SP:fb
c982  d0 09      BNE $c98d   A:00 X:00 Y:00 P:27 SP:fb
c984  30 07      BMI $c98d   A:00 X:00 Y:00 P:27 SP:fb
c986  70 05      BVS $c98d   A:00 X:00 Y:00 P:27 SP:fb
c988  90 03      BCC $c98d   A:00 X:00 Y:00 P:27 SP:fb
c98a  4c 91 c9   JMP $c991   A:00 X:00 Y:00 P:27 SP:fb
c991  ea         NOP         A:00 X:00 Y:00 P:27 SP:fb
c992  38         SEC         A:00 X:00 Y:00 P:27 SP:fb
c993  b8         CLV         A:00 X:00 Y:00 P:27 SP:fb
c994  a9 9f      LDA #$9f    A:00 X:00 Y:00 P:27 SP:fb
c996  f0 09      BEQ $c9a1   A:9f X:00 Y:00 P:a5 SP:fb
c998  10 07      BPL $c9a1   A:9f X:00 Y:00 P:a5 SP:fb
c99a  70 05      BVS $c9a1   A:9f X:00 Y:00 P:a5 SP:fb
c99c  90 03      BCC $c9a1   A:9f X:00 Y:00 P:a5 SP:fb
c99e  4c a5 c9   JMP $c9a5   A:9f X:00 Y:00 P:a5 SP:fb
c9a5  ea         NOP         A:9f X:00 Y:00 P:a5 SP:fb
c9a6  18         CLC         A:9f X:00 Y:00 P:a5 SP:fb
c9a7  24 01      BIT $01     A:9f X:00 Y:00 P:a4 SP:fb
c9a9  a9 00      LDA #$00    A:9f X:00 Y:00 P:e4 SP:fb
c9ab  d0 09      BNE $c9b6   A:00 X:00 Y:00 P:66 SP:fb
c9ad  30 07      BMI $c9b6   A:00 X:00 Y:00 P:66 SP:fb
c9af  50 05      BVC $c9b6   A:00 X:00 Y:00 P:66 SP:fb
c9b1  b0 03      BCS $c9b6   A:00 X:00 Y:00 P:66 SP:fb
c9b3  4c ba c9   JMP $c9ba   A:00 X:00 Y:00 P:66 SP:fb
c9ba  ea         NOP         A:00 X:00 Y:00 P:66 SP:fb
c9bb  24 01      BIT $01     A:00 X:00 Y:00 P:66 SP:fb
c9bd  a9 40      LDA #$40    A:00 X:00 Y:00 P:e6 SP:fb
c9bf  c9 40      CMP #$40    A:40 X:00 Y:00 P:64 SP:fb
c9c1  30 09      BMI $c9cc   A:40 X:00 Y:00 P:67 SP:fb
c9c3  90 07      BCC $c9cc   A:40 X:00 Y:00 P:67 SP:fb
c9c5  d0 05      BNE $c9cc   A:40 X:00 Y:00 P:67 SP:fb
c9c7  50 03      BVC $c9cc   A:40 X:00 Y:00 P:67 SP:fb
c9c9  4c d0 c9   JMP $c9d0   A:40 X:00 Y:00 P:67 SP:fb
c9d0  ea         NOP         A:40 X:00 Y:00 P:67 SP:fb
c9d1  b8         CLV         A:40 X:00 Y:00 P:67 SP:fb
c9d2  c9 3f      CMP #$3f    A:40 X:00 Y:00 P:27 SP:fb
c9d4  f0 09      BEQ $c9df   A:40 X:00 Y:00 P:25 SP:fb
c9d6  30 07      BMI $c9df   A:40 X:00 Y:00 P:25 SP:fb
c9d8  90 05      BCC $c9df   A:40 X:00 Y:00 P:25 SP:fb
c9da  70 03      BVS $c9df   A:40 X:00 Y:00 P:25 SP:fb
c9dc  4c e3 c9   JMP $c9e3   A:40 X:00 Y:00 P:25 SP:fb
c9e3  ea         NOP         A:40 X:00 Y:00 P:25 SP:fb
c9e4  c9 41      CMP #$41    A:40 X:00 Y:00 P:25 SP:fb
c9e6  f0 07      BEQ $c9ef   A:40 X:00 Y:00 P:a4 SP:fb
c9e8  10 05      BPL $c9ef   A:40 X:00 Y:00 P:a4 SP:fb
c9ea  10 03      BPL $c9ef   A:40 X:00 Y:00 P:a4 SP:fb
c9ec  4c f3 c9   JMP $c9f3   A:40 X:00 Y:00 P:a4 SP:fb
c9f3  ea         NOP         A:40 X:00 Y:00 P:a4 SP:fb
c9f4  a9 80      LDA #$80    A:40 X:00 Y:00 P:a4 SP:fb
c9f6  c9 00      CMP #$00    A:80 X:00 Y:00 P:a4 SP:fb
c9f8  f0 07      BEQ $ca01   A:80 X:00 Y:00 P:a5 SP:fb
c9fa  10 05      BPL $ca01   A:80 X:00 Y:00 P:a5 SP:fb
c9fc  90 03      BCC $ca01   A:80 X:00 Y:00 P:a5 SP:fb
c9fe  4c 05 ca   JMP $ca05   A:80 X:00 Y:00 P:a5 SP:fb
ca05  ea         NOP         A:80 X:00 Y:00 P:a5 SP:fb
ca06  c9 80      CMP #$80    A:80 X:00 Y:00 P:a5 SP:fb
ca08  d0 07      BNE $ca11   A:80 X:00 Y:00 P:27 SP:fb
ca0a  30 05      BMI $ca11   A:80 X:00 Y:00 P:27 SP:fb
ca0c  90 03      BCC $ca11   A:80 X:00 Y:00 P:27 SP:fb
ca0e  4c 15 ca   JMP $ca15   A:80 X:00 Y:00 P:27 SP:fb
ca15  ea         NOP         A:80 X:00 Y:00 P:27 SP:fb
ca16  c9 81      CMP #$81    A:80 X:00 Y:00 P:27 SP:fb
ca18  b0 07      BCS $ca21   A:80 X:00 Y:00 P:a4 SP:fb
ca1a  f0 05      BEQ $ca21   A:80 X:00 Y:00 P:a4 SP:fb
ca1c  10 03      BPL $ca21   A:80 X:00 Y:00 P:a4 SP:fb
ca1e  4c 25 ca   JMP $ca25   A:80 X:00 Y:00 P:a4 SP:fb
ca25  ea         NOP         A:80 X:00 Y:00 P:a4 SP:fb
ca26  c9 7f      CMP #$7f    A:80 X:00 Y:00 P:a4 SP:fb
ca28  90 07      BCC $ca31   A:80 X:00 Y:00 P:25 SP:fb
ca2a  f0 05      BEQ $ca31   A:80 X:00 Y:00 P:25 SP:fb
ca2c  30 03      BMI $ca31   A:80 X:00 Y:00 P:25 SP:fb
ca2e  4c 35 ca   JMP $ca35   A:80 X:00 Y:00 P:25 SP:fb
ca35  ea         NOP         A:80 X:00 Y:00 P:25 SP:fb
ca36  24 01      BIT $01     A:80 X:00 Y:00 P:25 SP:fb
ca38  a0 40      LDY #$40    A:80 X:00 Y:00 P:e5 SP:fb
ca3a  c0 40      CPY #$40    A:80 X:00 Y:40 P:65 SP:fb
ca3c  d0 09      BNE $ca47   A:80 X:00 Y:40 P:67 SP:fb
ca3e  30 07      BMI $ca47   A:80 X:00 Y:40 P:67 SP:fb
ca40  90 05      BCC $ca47   A:80 X:00 Y:40 P:67 SP:fb
ca42  50 03      BVC $ca47   A:80 X:00 Y:40 P:67 SP:fb
ca44  4c 4b ca   JMP $ca4b   A:80 X:00 Y:40 P:67 SP:fb
ca4b  ea         NOP         A:80 X:00 Y:40 P:67 SP:fb
ca4c  b8         CLV         A:80 X:00 Y:40 P:67 SP:fb
ca4d  c0 3f      CPY #$3f    A:80 X:00 Y:40 P:27 SP:fb
ca4f  f0 09      BEQ $ca5a   A:80 X:00 Y:40 P:25 SP:fb
ca51  30 07      BMI $ca5a   A:80 X:00 Y:40 P:25 SP:fb
ca53  90 05      BCC $ca5a   A:80 X:00 Y:40 P:25 SP:fb
ca55  70 03      BVS $ca5a   A:80 X:00 Y:40 P:25 SP:fb
ca57  4c 5e ca   JMP $ca5e   A:80 X:00 Y:40 P:25 SP:fb
ca5e  ea         NOP         A:80 X:00 Y:40 P:25 SP:fb
ca5f  c0 41      CPY #$41    A:80 X:00 Y:40 P:25 SP:fb
ca61  f0 07      BEQ $ca6a   A:80 X:00 Y:40 P:a4 SP:fb
ca63  10 05      BPL $ca6a   A:80 X:00 Y:40 P:a4 SP:fb
ca65  10 03      BPL $ca6a   A:80 X:00 Y:40 P:a4 SP:fb
ca67  4c 6e ca   JMP $ca6e   A:80 X:00 Y:40 P:a4 SP:fb
ca6e  ea         NOP         A:80 X:00 Y:40 P:a4 SP:fb
ca6f  a0 80      LDY #$80    A:80 X:00 Y:40 P:a4 SP:fb
ca71  c0 00      CPY #$00    A:80 X:00 Y:80 P:a4 SP:fb
ca73  f0 07      BEQ $ca7c   A:80 X:00 Y:80 P:a5 SP:fb
ca75  10 05      BPL $ca7c   A:80 X:00 Y:80 P:a5 SP:fb
ca77  90 03      BCC $ca7c   A:80 X:00 Y:80 P:a5 SP:fb
ca79  4c 80 ca   JMP $ca80   A:80 X:00 Y:80 P:a5 SP:fb
ca80  ea         NOP         A:80 X:00 Y:80 P:a5 SP:fb
ca81  c0 80      CPY #$80    A:80 X:00 Y:80 P:a5 SP:fb
ca83  d0 07      BNE $ca8c   A:80 X:00 Y:80 P:27 SP:fb
ca85  30 05      BMI $ca8c   A:80 X:00 Y:80 P:27 SP:fb
ca87  90 03      BCC $ca8c   A:80 X:00 Y:80 P:27 SP:fb
ca89  4c 90 ca   JMP $ca90   A:80 X:00 Y:80 P:27 SP:fb
ca90  ea         NOP         A:80 X:00 Y:80 P:27 SP:fb
ca91  c0 81      CPY #$81    A:80 X:00 Y:80 P:27 SP:fb
ca93  b0 07      BCS $ca9c   A:80 X:00 Y:80 P:a4 SP:fb
ca95  f0 05      BEQ $ca9c   A:80 X:00 Y:80 P:a4 SP:fb
ca97  10 03      BPL $ca9c   A:80 X:00 Y:80 P:a4 SP:fb
ca99  4c a0 ca   JMP $caa0   A:80 X:00 Y:80 P:a4 SP:fb
caa0  ea         NOP         A:80 X:00 Y:80 P:a4 SP:fb
caa1  c0 7f      CPY #$7f    A:80 X:00 Y:80 P:a4 SP:fb
caa3  90 07      BCC $caac   A:80 X:00 Y:80 P:25 SP:fb
caa5  f0 05      BEQ $caac   A:80 X:00 Y:80 P:25 SP:fb
caa7  30 03      BMI $caac   A:80 X:00 Y:80 P:25 SP:fb
caa9  4c b0 ca   JMP $cab0   A:80 X:00 Y:80 P:25 SP:fb
cab0  ea         NOP         A:80 X:00 Y:80 P:25 SP:fb
cab1  24 01      BIT $01     A:80 X:00 Y:80 P:25 SP:fb
cab3  a2 40      LDX #$40    A:80 X:00 Y:80 P:e5 SP:fb
cab5  e0 40      CPX #$40    A:80 X:40 Y:80 P:65 SP:fb
cab7  d0 09      BNE $cac2   A:80 X:40 Y:80 P:67 SP:fb
cab9  30 07      BMI $cac2   A:80 X:40 Y:80 P:67 SP:fb
cabb  90 05      BCC $cac2   A:80 X:40 Y:80 P:67 SP:fb
cabd  50 03      BVC $cac2   A:80 X:40 Y:80 P:67 SP:fb
cabf  4c c6 ca   JMP $cac6   A:80 X:40 Y:80 P:67 SP:fb
cac6  ea         NOP         A:80 X:40 Y:80 P:67 SP:fb
cac7  b8         CLV         A:80 X:40 Y:80 P:67 SP:fb
cac8  e0 3f      CPX #$3f    A:80 X:40 Y:80 P:27 SP:fb
caca  f0 09      BEQ $cad5   A:80 X:40 Y:80 P:25 SP:fb
cacc  30 07      BMI $cad5   A:80 X:40 Y:80 P:25 SP:fb
cace  90 05      BCC $cad5   A:80 X:40 Y:80 P:25 SP:fb
cad0  70 03      BVS $cad5   A:80 X:40 Y:80 P:25 SP:fb
cad2  4c d9 ca   JMP $cad9   A:80 X:40 Y:80 P:25 SP:fb
cad9  ea         NOP         A:80 X:40 Y:80 P:25 SP:fb
cada  e0 41      CPX #$41    A:80 X:40 Y:80 P:25 SP:fb
cadc  f0 07      BEQ $cae5   A:80 X:40 Y:80 P:a4 SP:fb
cade  10 05      BPL $cae5   A:80 X:40 Y:80 P:a4 SP:fb
cae0  10 03      BPL $cae5   A:80 X:40 Y:80 P:a4 SP:fb
cae2  4c e9 ca   JMP $cae9   A:80 X:40 Y:80 P:a4 SP:fb
cae9  ea         NOP         A:80 X:40 Y:80 P:a4 SP:fb
caea  a2 80      LDX #$80    A:80 X:40 Y:80 P:a4 SP:fb
caec  e0 00      CPX #$00    A:80 X:80 Y:80 P:a4 SP:fb
caee  f0 07      BEQ $caf7   A:80 X:80 Y:80 P:a5 SP:fb
caf0  10 05      BPL $caf7   A:80 X:80 Y:80 P:a5 SP:fb
caf2  90 03      BCC $caf7   A:80 X:80 Y:80 P:a5 SP:fb
caf4  4c fb ca   JMP $cafb   A:80 X:80 Y:80 P:a5 SP:fb
cafb  ea         NOP         A:80 X:80 Y:80 P:a5 SP:fb
cafc  e0 80      CPX #$80    A:80 X:80 Y:80 P:a5 SP:fb
cafe  d0 07      BNE $cb07   A:80 X:80 Y:80 P:27 SP:fb
cb00  30 05      BMI $cb07   A:80 X:80 Y:80 P:27 SP:fb
cb02  90 03      BCC $cb07   A:80 X:80 Y:80 P:27 SP:fb
cb04  4c 0b cb   JMP $cb0b   A:80 X:80 Y:80 P:27 SP:fb
cb0b  ea         NOP         A:80 X:80 Y:80 P:27 SP:fb
cb0c  e0 81      CPX #$81    A:80 X:80 Y:80 P:27 SP:fb
cb0e  b0 07      BCS $cb17   A:80 X:80 Y:80 P:a4 SP:fb
cb10  f0 05      BEQ $cb17   A:80 X:80 Y:80 P:a4 SP:fb
cb12  10 03      BPL $cb17   A:80 X:80 Y:80 P:a4 SP:fb
cb14  4c 1b cb   JMP $cb1b   A:80 X:80 Y:80 P:a4 SP:fb
cb1b  ea         NOP         A:80 X:80 Y:80 P:a4 SP:fb
cb1c  e0 7f      CPX #$7f    A:80 X:80 Y:80 P:a4 SP:fb
cb1e  90 07      BCC $cb27   A:80 X:80 Y:80 P:25 SP:fb
cb20  f0 05      BEQ $cb27   A:80 X:80 Y:80 P:25 SP:fb
cb22  30 03      BMI $cb27   A:80 X:80 Y:80 P:25 SP:fb
cb24  4c 2b cb   JMP $cb2b   A:80 X:80 Y:80 P:25 SP:fb
cb2b  ea         NOP         A:80 X:80 Y:80 P:25 SP:fb
cb2c  38         SEC         A:80 X:80 Y:80 P:25 SP:fb
cb2d  b8         CLV         A:80 X:80 Y:80 P:25 SP:fb
cb2e  a2 9f      LDX #$9f    A:80 X:80 Y:80 P:25 SP:fb
cb30  f0 09      BEQ $cb3b   A:80 X:9f Y:80 P:a5 SP:fb
cb32  10 07      BPL $cb3b   A:80 X:9f Y:80 P:a5 SP:fb
cb34  70 05      BVS $cb3b   A:80 X:9f Y:80 P:a5 SP:fb
cb36  90 03      BCC $cb3b   A:80 X:9f Y:80 P:a5 SP:fb
cb38  4c 3f cb   JMP $cb3f   A:80 X:9f Y:80 P:a5 SP:fb
cb3f  ea         NOP         A:80 X:9f Y:80 P:a5 SP:fb
cb40  18         CLC         A:80 X:9f Y:80 P:a5 SP:fb
cb41  24 01      BIT $01     A:80 X:9f Y:80 P:a4 SP:fb
cb43  a2 00      LDX #$00    A:80 X:9f Y:80 P:e4 SP:fb
cb45  d0 09      BNE $cb50   A:80 X:00 Y:80 P:66 SP:fb
cb47  30 07      BMI $cb50   A:80 X:00 Y:80 P:66 SP:fb
cb49  50 05      BVC $cb50   A:80 X:00 Y:80 P:66 SP:fb
cb4b  b0 03      BCS $cb50   A:80 X:00 Y:80 P:66 SP:fb
cb4d  4c 54 cb   JMP $cb54   A:80 X:00 Y:80 P:66 SP:fb
cb54  ea         NOP         A:80 X:00 Y:80 P:66 SP:fb
cb55  38         SEC         A:80 X:00 Y:80 P:66 SP:fb
cb56  b8         CLV         A:80 X:00 Y:80 P:67 SP:fb
cb57  a0 9f      LDY #$9f    A:80 X:00 Y:80 P:27 SP:fb
cb59  f0 09      BEQ $cb64   A:80 X:00 Y:9f P:a5 SP:fb
cb5b  10 07      BPL $cb64   A:80 X:00 Y:9f P:a5 SP:fb
cb5d  70 05      BVS $cb64   A:80 X:00 Y:9f P:a5 SP:fb
cb5f  90 03      BCC $cb64   A:80 X:00 Y:9f P:a5 SP:fb
cb61  4c 68 cb   JMP $cb68   A:80 X:00 Y:9f P:a5 SP:fb
cb68  ea         NOP         A:80 X:00 Y:9f P:a5 SP:fb
cb69  18         CLC         A:80 X:00 Y:9f P:a5 SP:fb
cb6a  24 01      BIT $01     A:80 X:00 Y:9f P:a4 SP:fb
cb6c  a0 00      LDY #$00    A:80 X:00 Y:9f P:e4 SP:fb
cb6e  d0 09      BNE $cb79   A:80 X:00 Y:00 P:66 SP:fb
cb70  30 07      BMI $cb79   A:80 X:00 Y:00 P:66 SP:fb
cb72  50 05      BVC $cb79   A:80 X:00 Y:00 P:66 SP:fb
cb74  b0 03      BCS $cb79   A:80 X:00 Y:00 P:66 SP:fb
cb76  4c 7d cb   JMP $cb7d   A:80 X:00 Y:00 P:66 SP:fb
cb7d  ea         NOP         A:80 X:00 Y:00 P:66 SP:fb
cb7e  a9 55      LDA #$55    A:80 X:00 Y:00 P:66 SP:fb
cb80  a2 aa      LDX #$aa    A:55 X:00 Y:00 P:64 SP:fb
cb82  a0 33      LDY #$33    A:55 X:aa Y:00 P:e4 SP:fb
cb84  c9 55      CMP #$55    A:55 X:aa Y:33 P:64 SP:fb
cb86  d0 23      BNE $cbab   A:55 X:aa Y:33 P:67 SP:fb
cb88  e0 aa      CPX #$aa    A:55 X:aa Y:33 P:67 SP:fb
cb8a  d0 1f      BNE $cbab   A:55 X:aa Y:33 P:67 SP:fb
cb8c  c0 33      CPY #$33    A:55 X:aa Y:33 P:67 SP:fb
cb8e  d0 1b      BNE $cbab   A:55 X:aa Y:33 P:67 SP:fb
cb90  c9 55      CMP #$55    A:55 X:aa Y:33 P:67 SP:fb
cb92  d0 17      BNE $cbab   A:55 X:aa Y:33 P:67 SP:fb
cb94  e0 aa      CPX #$aa    A:55 X:aa Y:33 P:67 SP:fb
cb96  d0 13      BNE $cbab   A:55 X:aa Y:33 P:67 SP:fb
cb98  c0 33      CPY #$33    A:55 X:aa Y:33 P:67 SP:fb
cb9a  d0 0f      BNE $cbab   A:55 X:aa Y:33 P:67 SP:fb
cb9c  c9 56      CMP #$56    A:55 X:aa Y:33 P:67 SP:fb
cb9e  f0 0b      BEQ $cbab   A:55 X:aa Y:33 P:e4 SP:fb
cba0  e0 ab      CPX #$ab    A:55 X:aa Y:33 P:e4 SP:fb
cba2  f0 07      BEQ $cbab   A:55 X:aa Y:33 P:e4 SP:fb
cba4  c0 34      CPY #$34    A:55 X:aa Y:33 P:e4 SP:fb
cba6  f0 03      BEQ $cbab   A:55 X:aa Y:33 P:e4 SP:fb
cba8  4c af cb   JMP $cbaf   A:55 X:aa Y:33 P:e4 SP:fb
cbaf  a0 71      LDY #$71    A:55 X:aa Y:33 P:e4 SP:fb
cbb1  20 31 f9   JSR $f931   A:55 X:aa Y:71 P:64 SP:fb
f931  24 01      BIT $01     A:55 X:aa Y:71 P:64 SP:f9
f933  a9 40      LDA #$40    A:55 X:aa Y:71 P:e4 SP:f9
f935  38         SEC         A:40 X:aa Y:71 P:64 SP:f9
f936  60         RTS         A:40 X:aa Y:71 P:65 SP:f9
cbb4  e9 40      SBC #$40    A:40 X:aa Y:71 P:65 SP:fb
cbb6  20 37 f9   JSR $f937   A:00 X:aa Y:71 P:27 SP:fb
f937  30 0b      BMI $f944   A:00 X:aa Y:71 P:27 SP:f9
f939  90 09      BCC $f944   A:00 X:aa Y:71 P:27 SP:f9
f93b  d0 07      BNE $f944   A:00 X:aa Y:71 P:27 SP:f9
f93d  70 05      BVS $f944   A:00 X:aa Y:71 P:27 SP:f9
f93f  c9 00      CMP #$00    A:00 X:aa Y:71 P:27 SP:f9
f941  d0 01      BNE $f944   A:00 X:aa Y:71 P:27 SP:f9
f943  60         RTS         A:00 X:aa Y:71 P:27 SP:f9
cbb9  c8         INY         A:00 X:aa Y:71 P:27 SP:fb
cbba  20 47 f9   JSR $f947   A:00 X:aa Y:72 P:25 SP:fb
f947  b8         CLV         A:00 X:aa Y:72 P:25 SP:f9
f948  38         SEC         A:00 X:aa Y:72 P:25 SP:f9
f949  a9 40      LDA #$40    A:00 X:aa Y:72 P:25 SP:f9
f94b  60         RTS         A:40 X:aa Y:72 P:25 SP:f9
cbbd  e9 3f      SBC #$3f    A:40 X:aa Y:72 P:25 SP:fb
cbbf  20 4c f9   JSR $f94c   A:01 X:aa Y:72 P:25 SP:fb
f94c  f0 0b      BEQ $f959   A:01 X:aa Y:72 P:25 SP:f9
f94e  30 09      BMI $f959   A:01 X:aa Y:72 P:25 SP:f9
f950  90 07      BCC $f959   A:01 X:aa Y:72 P:25 SP:f9
f952  70 05      BVS $f959   A:01 X:aa Y:72 P:25 SP:f9
f954  c9 01      CMP #$01    A:01 X:aa Y:72 P:25 SP:f9
f956  d0 01      BNE $f959   A:01 X:aa Y:72 P:27 SP:f9
f958  60         RTS         A:01 X:aa Y:72 P:27 SP:f9
cbc2  c8         INY         A:01 X:aa Y:72 P:27 SP:fb
cbc3  20 5c f9   JSR $f95c   A:01 X:aa Y:73 P:25 SP:fb
f95c  a9 40      LDA #$40    A:01 X:aa Y:73 P:25 SP:f9
f95e  38         SEC         A:40 X:aa Y:73 P:25 SP:f9
f95f  24 01      BIT $01     A:40 X:aa Y:73 P:25 SP:f9
f961  60         RTS         A:40 X:aa Y:73 P:e5 SP:f9
cbc6  e9 41      SBC #$41    A:40 X:aa Y:73 P:e5 SP:fb
cbc8  20 62 f9   JSR $f962   A:ff X:aa Y:73 P:a4 SP:fb
f962  b0 0b      BCS $f96f   A:ff X:aa Y:73 P:a4 SP:f9
f964  f0 09      BEQ $f96f   A:ff X:aa Y:73 P:a4 SP:f9
f966  10 07      BPL $f96f   A:ff X:aa Y:73 P:a4 SP:f9
f968  70 05      BVS $f96f   A:ff X:aa Y:73 P:a4 SP:f9
f96a  c9 ff      CMP #$ff    A:ff X:aa Y:73 P:a4 SP:f9
f96c  d0 01      BNE $f96f   A:ff X:aa Y:73 P:27 SP:f9
f96e  60         RTS         A:ff X:aa Y:73 P:27 SP:f9
cbcb  c8         INY         A:ff X:aa Y:73 P:27 SP:fb
cbcc  20 72 f9   JSR $f972   A:ff X:aa Y:74 P:25 SP:fb
f972  18         CLC         A:ff X:aa Y:74 P:25 SP:f9
f973  a9 80      LDA #$80    A:ff X:aa Y:74 P:24 SP:f9
f975  60         RTS         A:80 X:aa Y:74 P:a4 SP:f9
cbcf  e9 00      SBC #$00    A:80 X:aa Y:74 P:a4 SP:fb
cbd1  20 76 f9   JSR $f976   A:7f X:aa Y:74 P:65 SP:fb
f976  90 05      BCC $f97d   A:7f X:aa Y:74 P:65 SP:f9
f978  c9 7f      CMP #$7f    A:7f X:aa Y:74 P:65 SP:f9
f97a  d0 01      BNE $f97d   A:7f X:aa Y:74 P:67 SP:f9
f97c  60         RTS         A:7f X:aa Y:74 P:67 SP:f9
cbd4  c8         INY         A:7f X:aa Y:74 P:67 SP:fb
cbd5  20 80 f9   JSR $f980   A:7f X:aa Y:75 P:65 SP:fb
f980  38         SEC         A:7f X:aa Y:75 P:65 SP:f9
f981  a9 81      LDA #$81    A:7f X:aa Y:75 P:65 SP:f9
f983  60         RTS         A:81 X:aa Y:75 P:e5 SP:f9
cbd8  e9 7f      SBC #$7f    A:81 X:aa Y:75 P:e5 SP:fb
cbda  20 84 f9   JSR $f984   A:02 X:aa Y:75 P:65 SP:fb
f984  50 07      BVC $f98d   A:02 X:aa Y:75 P:65 SP:f9
f986  90 05      BCC $f98d   A:02 X:aa Y:75 P:65 SP:f9
f988  c9 02      CMP #$02    A:02 X:aa Y:75 P:65 SP:f9
f98a  d0 01      BNE $f98d   A:02 X:aa Y:75 P:67 SP:f9
f98c  60         RTS         A:02 X:aa Y:75 P:67 SP:f9
cbdd  60         RTS         A:02 X:aa Y:75 P:67 SP:fb
c606  20 de cb   JSR $cbde   A:02 X:aa Y:75 P:67 SP:fd
cbde  ea         NOP         A:02 X:aa Y:75 P:67 SP:fb
cbdf  a9 ff      LDA #$ff    A:02 X:aa Y:75 P:67 SP:fb
cbe1  85 01      STA $01     A:ff X:aa Y:75 P:e5 SP:fb
cbe3  a9 44      LDA #$44    A:ff X:aa Y:75 P:e5 SP:fb
cbe5  a2 55      LDX #$55    A:44 X:aa Y:75 P:65 SP:fb
cbe7  a0 66      LDY #$66    A:44 X:55 Y:75 P:65 SP:fb
cbe9  e8         INX         A:44 X:55 Y:66 P:65 SP:fb
cbea  88         DEY         A:44 X:56 Y:66 P:65 SP:fb
cbeb  e0 56      CPX #$56    A:44 X:56 Y:65 P:65 SP:fb
cbed  d0 21      BNE $cc10   A:44 X:56 Y:65 P:67 SP:fb
cbef  c0 65      CPY #$65    A:44 X:56 Y:65 P:67 SP:fb
cbf1  d0 1d      BNE $cc10   A:44 X:56 Y:65 P:67 SP:fb
cbf3  e8         INX         A:44 X:56 Y:65 P:67 SP:fb
cbf4  e8         INX         A:44 X:57 Y:65 P:65 SP:fb
cbf5  88         DEY         A:44 X:58 Y:65 P:65 SP:fb
cbf6  88         DEY         A:44 X:58 Y:64 P:65 SP:fb
cbf7  e0 58      CPX #$58    A:44 X:58 Y:63 P:65 SP:fb
cbf9  d0 15      BNE $cc10   A:44 X:58 Y:63 P:67 SP:fb
cbfb  c0 63      CPY #$63    A:44 X:58 Y:63 P:67 SP:fb
cbfd  d0 11      BNE $cc10   A:44 X:58 Y:63 P:67 SP:fb
cbff  ca         DEX         A:44 X:58 Y:63 P:67 SP:fb
cc00  c8         INY         A:44 X:57 Y:63 P:65 SP:fb
cc01  e0 57      CPX #$57    A:44 X:57 Y:64 P:65 SP:fb
cc03  d0 0b      BNE $cc10   A:44 X:57 Y:64 P:67 SP:fb
cc05  c0 64      CPY #$64    A:44 X:57 Y:64 P:67 SP:fb
cc07  d0 07      BNE $cc10   A:44 X:57 Y:64 P:67 SP:fb
cc09  c9 44      CMP #$44    A:44 X:57 Y:64 P:67 SP:fb
cc0b  d0 03      BNE $cc10   A:44 X:57 Y:64 P:67 SP:fb
cc0d  4c 14 cc   JMP $cc14   A:44 X:57 Y:64 P:67 SP:fb
cc14  ea         NOP         A:44 X:57 Y:64 P:67 SP:fb
cc15  38         SEC         A:44 X:57 Y:64 P:67 SP:fb
cc16  a2 69      LDX #$69    A:44 X:57 Y:64 P:67 SP:fb
cc18  a9 96      LDA #$96    A:44 X:69 Y:64 P:65 SP:fb
cc1a  24 01      BIT $01     A:96 X:69 Y:64 P:e5 SP:fb
cc1c  a0 ff      LDY #$ff    A:96 X:69 Y:64 P:e5 SP:fb
cc1e  c8         INY         A:96 X:69 Y:ff P:e5 SP:fb
cc1f  d0 3d      BNE $cc5e   A:96 X:69 Y:00 P:67 SP:fb
cc21  30 3b      BMI $cc5e   A:96 X:69 Y:00 P:67 SP:fb
cc23  90 39      BCC $cc5e   A:96 X:69 Y:00 P:67 SP:fb
cc25  50 37      BVC $cc5e   A:96 X:69 Y:00 P:67 SP:fb
cc27  c0 00      CPY #$00    A:96 X:69 Y:00 P:67 SP:fb
cc29  d0 33      BNE $cc5e   A:96 X:69 Y:00 P:67 SP:fb
cc2b  c8         INY         A:96 X:69 Y:00 P:67 SP:fb
cc2c  f0 30      BEQ $cc5e   A:96 X:69 Y:01 P:65 SP:fb
cc2e  30 2e      BMI $cc5e   A:96 X:69 Y:01 P:65 SP:fb
cc30  90 2c      BCC $cc5e   A:96 X:69 Y:01 P:65 SP:fb
cc32  50 2a      BVC $cc5e   A:96 X:69 Y:01 P:65 SP:fb
cc34  18         CLC         A:96 X:69 Y:01 P:65 SP:fb
cc35  b8         CLV         A:96 X:69 Y:01 P:64 SP:fb
cc36  a0 00      LDY #$00    A:96 X:69 Y:01 P:24 SP:fb
cc38  88         DEY         A:96 X:69 Y:00 P:26 SP:fb
cc39  f0 23      BEQ $cc5e   A:96 X:69 Y:ff P:a4 SP:fb
cc3b  10 21      BPL $cc5e   A:96 X:69 Y:ff P:a4 SP:fb
cc3d  b0 1f      BCS $cc5e   A:96 X:69 Y:ff P:a4 SP:fb
cc3f  70 1d      BVS $cc5e   A:96 X:69 Y:ff P:a4 SP:fb
cc41  c0 ff      CPY #$ff    A:96 X:69 Y:ff P:a4 SP:fb
cc43  d0 19      BNE $cc5e   A:96 X:69 Y:ff P:27 SP:fb
cc45  18         CLC         A:96 X:69 Y:ff P:27 SP:fb
cc46  88         DEY         A:96 X:69 Y:ff P:26 SP:fb
cc47  f0 15      BEQ $cc5e   A:96 X:69 Y:fe P:a4 SP:fb
cc49  10 13      BPL $cc5e   A:96 X:69 Y:fe P:a4 SP:fb
cc4b  b0 11      BCS $cc5e   A:96 X:69 Y:fe P:a4 SP:fb
cc4d  70 0f      BVS $cc5e   A:96 X:69 Y:fe P:a4 SP:fb
cc4f  c0 fe      CPY #$fe    A:96 X:69 Y:fe P:a4 SP:fb
cc51  d0 0b      BNE $cc5e   A:96 X:69 Y:fe P:27 SP:fb
cc53  c9 96      CMP #$96    A:96 X:69 Y:fe P:27 SP:fb
cc55  d0 07      BNE $cc5e   A:96 X:69 Y:fe P:27 SP:fb
cc57  e0 69      CPX #$69    A:96 X:69 Y:fe P:27 SP:fb
cc59  d0 03      BNE $cc5e   A:96 X:69 Y:fe P:27 SP:fb
cc5b  4c 62 cc   JMP $cc62   A:96 X:69 Y:fe P:27 SP:fb
cc62  ea         NOP         A:96 X:69 Y:fe P:27 SP:fb
cc63  38         SEC         A:96 X:69 Y:fe P:27 SP:fb
cc64  a0 69      LDY #$69    A:96 X:69 Y:fe P:27 SP:fb
cc66  a9 96      LDA #$96    A:96 X:69 Y:69 P:25 SP:fb
cc68  24 01      BIT $01     A:96 X:69 Y:69 P:a5 SP:fb
cc6a  a2 ff      LDX #$ff    A:96 X:69 Y:69 P:e5 SP:fb
cc6c  e8         INX         A:96 X:ff Y:69 P:e5 SP:fb
cc6d  d0 3d      BNE $ccac   A:96 X:00 Y:69 P:67 SP:fb
cc6f  30 3b      BMI $ccac   A:96 X:00 Y:69 P:67 SP:fb
cc71  90 39      BCC $ccac   A:96 X:00 Y:69 P:67 SP:fb
cc73  50 37      BVC $ccac   A:96 X:00 Y:69 P:67 SP:fb
cc75  e0 00      CPX #$00    A:96 X:00 Y:69 P:67 SP:fb
cc77  d0 33      BNE $ccac   A:96 X:00 Y:69 P:67 SP:fb
cc79  e8         INX         A:96 X:00 Y:69 P:67 SP:fb
cc7a  f0 30      BEQ $ccac   A:96 X:01 Y:69 P:65 SP:fb
cc7c  30 2e      BMI $ccac   A:96 X:01 Y:69 P:65 SP:fb
cc7e  90 2c      BCC $ccac   A:96 X:01 Y:69 P:65 SP:fb
cc80  50 2a      BVC $ccac   A:96 X:01 Y:69 P:65 SP:fb
cc82  18         CLC         A:96 X:01 Y:69 P:65 SP:fb
cc83  b8         CLV         A:96 X:01 Y:69 P:64 SP:fb
cc84  a2 00      LDX #$00    A:96 X:01 Y:69 P:24 SP:fb
cc86  ca         DEX         A:96 X:00 Y:69 P:26 SP:fb
cc87  f0 23      BEQ $ccac   A:96 X:ff Y:69 P:a4 SP:fb
cc89  10 21      BPL $ccac   A:96 X:ff Y:69 P:a4 SP:fb
cc8b  b0 1f      BCS $ccac   A:96 X:ff Y:69 P:a4 SP:fb
cc8d  70 1d      BVS $ccac   A:96 X:ff Y:69 P:a4 SP:fb
cc8f  e0 ff      CPX #$ff    A:96 X:ff Y:69 P:a4 SP:fb
cc91  d0 19      BNE $ccac   A:96 X:ff Y:69 P:27 SP:fb
cc93  18         CLC         A:96 X:ff Y:69 P:27 SP:fb
cc94  ca         DEX         A:96 X:ff Y:69 P:26 SP:fb
cc95  f0 15      BEQ $ccac   A:96 X:fe Y:69 P:a4 SP:fb
cc97  10 13      BPL $ccac   A:96 X:fe Y:69 P:a4 SP:fb
cc99  b0 11      BCS $ccac   A:96 X:fe Y:69 P:a4 SP:fb
cc9b  70 0f      BVS $ccac   A:96 X:fe Y:69 P:a4 SP:fb
cc9d  e0 fe      CPX #$fe    A:96 X:fe Y:69 P:a4 SP:fb
cc9f  d0 0b      BNE $ccac   A:96 X:fe Y:69 P:27 SP:fb
cca1  c9 96      CMP #$96    A:96 X:fe Y:69 P:27 SP:fb
cca3  d0 07      BNE $ccac   A:96 X:fe Y:69 P:27 SP:fb
cca5  c0 69      CPY #$69    A:96 X:fe Y:69 P:27 SP:fb
cca7  d0 03      BNE $ccac   A:96 X:fe Y:69 P:27 SP:fb
cca9  4c b0 cc   JMP $ccb0   A:96 X:fe Y:69 P:27 SP:fb
ccb0  ea         NOP         A:96 X:fe Y:69 P:27 SP:fb
ccb1  a9 85      LDA #$85    A:96 X:fe Y:69 P:27 SP:fb
ccb3  a2 34      LDX #$34    A:85 X:fe Y:69 P:a5 SP:fb
ccb5  a0 99      LDY #$99    A:85 X:34 Y:69 P:25 SP:fb
ccb7  18         CLC         A:85 X:34 Y:99 P:a5 SP:fb
ccb8  24 01      BIT $01     A:85 X:34 Y:99 P:a4 SP:fb
ccba  a8         TAY         A:85 X:34 Y:99 P:e4 SP:fb
ccbb  f0 2e      BEQ $cceb   A:85 X:34 Y:85 P:e4 SP:fb
ccbd  b0 2c      BCS $cceb   A:85 X:34 Y:85 P:e4 SP:fb
ccbf  50 2a      BVC $cceb   A:85 X:34 Y:85 P:e4 SP:fb
ccc1  10 28      BPL $cceb   A:85 X:34 Y:85 P:e4 SP:fb
ccc3  c9 85      CMP #$85    A:85 X:34 Y:85 P:e4 SP:fb
ccc5  d0 24      BNE $cceb   A:85 X:34 Y:85 P:67 SP:fb
ccc7  e0 34      CPX #$34    A:85 X:34 Y:85 P:67 SP:fb
ccc9  d0 20      BNE $cceb   A:85 X:34 Y:85 P:67 SP:fb
cccb  c0 85      CPY #$85    A:85 X:34 Y:85 P:67 SP:fb
cccd  d0 1c      BNE $cceb   A:85 X:34 Y:85 P:67 SP:fb
cccf  a9 00      LDA #$00    A:85 X:34 Y:85 P:67 SP:fb
ccd1  38         SEC         A:00 X:34 Y:85 P:67 SP:fb
ccd2  b8         CLV         A:00 X:34 Y:85 P:67 SP:fb
ccd3  a8         TAY         A:00 X:34 Y:85 P:27 SP:fb
ccd4  d0 15      BNE $cceb   A:00 X:34 Y:00 P:27 SP:fb
ccd6  90 13      BCC $cceb   A:00 X:34 Y:00 P:27 SP:fb
ccd8  70 11      BVS $cceb   A:00 X:34 Y:00 P:27 SP:fb
ccda  30 0f      BMI $cceb   A:00 X:34 Y:00 P:27 SP:fb
ccdc  c9 00      CMP #$00    A:00 X:34 Y:00 P:27 SP:fb
ccde  d0 0b      BNE $cceb   A:00 X:34 Y:00 P:27 SP:fb
cce0  e0 34      CPX #$34    A:00 X:34 Y:00 P:27 SP:fb
cce2  d0 07      BNE $cceb   A:00 X:34 Y:00 P:27 SP:fb
cce4  c0 00      CPY #$00    A:00 X:34 Y:00 P:27 SP:fb
cce6  d0 03      BNE $cceb   A:00 X:34 Y:00 P:27 SP:fb
cce8  4c ef cc   JMP $ccef   A:00 X:34 Y:00 P:27 SP:fb
ccef  ea         NOP         A:00 X:34 Y:00 P:27 SP:fb
ccf0  a9 85      LDA #$85    A:00 X:34 Y:00 P:27 SP:fb
ccf2  a2 34      LDX #$34    A:85 X:34 Y:00 P:a5 SP:fb
ccf4  a0 99      LDY #$99    A:85 X:34 Y:00 P:25 SP:fb
ccf6  18         CLC         A:85 X:34 Y:99 P:a5 SP:fb
ccf7  24 01      BIT $01     A:85 X:34 Y:99 P:a4 SP:fb
ccf9  aa         TAX         A:85 X:34 Y:99 P:e4 SP:fb
ccfa  f0 2e      BEQ $cd2a   A:85 X:85 Y:99 P:e4 SP:fb
ccfc  b0 2c      BCS $cd2a   A:85 X:85 Y:99 P:e4 SP:fb
ccfe  50 2a      BVC $cd2a   A:85 X:85 Y:99 P:e4 SP:fb
cd00  10 28      BPL $cd2a   A:85 X:85 Y:99 P:e4 SP:fb
cd02  c9 85      CMP #$85    A:85 X:85 Y:99 P:e4 SP:fb
cd04  d0 24      BNE $cd2a   A:85 X:85 Y:99 P:67 SP:fb
cd06  e0 85      CPX #$85    A:85 X:85 Y:99 P:67 SP:fb
cd08  d0 20      BNE $cd2a   A:85 X:85 Y:99 P:67 SP:fb
cd0a  c0 99      CPY #$99    A:85 X:85 Y:99 P:67 SP:fb
cd0c  d0 1c      BNE $cd2a   A:85 X:85 Y:99 P:67 SP:fb
cd0e  a9 00      LDA #$00    A:85 X:85 Y:99 P:67 SP:fb
cd10  38         SEC         A:00 X:85 Y:99 P:67 SP:fb
cd11  b8         CLV         A:00 X:85 Y:99 P:67 SP:fb
cd12  aa         TAX         A:00 X:85 Y:99 P:27 SP:fb
cd13  d0 15      BNE $cd2a   A:00 X:00 Y:99 P:27 SP:fb
cd15  90 13      BCC $cd2a   A:00 X:00 Y:99 P:27 SP:fb
cd17  70 11      BVS $cd2a   A:00 X:00 Y:99 P:27 SP:fb
cd19  30 0f      BMI $cd2a   A:00 X:00 Y:99 P:27 SP:fb
cd1b  c9 00      CMP #$00    A:00 X:00 Y:99 P:27 SP:fb
cd1d  d0 0b      BNE $cd2a   A:00 X:00 Y:99 P:27 SP:fb
cd1f  e0 00      CPX #$00    A:00 X:00 Y:99 P:27 SP:fb
cd21  d0 07      BNE $cd2a   A:00 X:00 Y:99 P:27 SP:fb
cd23  c0 99      CPY #$99    A:00 X:00 Y:99 P:27 SP:fb
cd25  d0 03      BNE $cd2a   A:00 X:00 Y:99 P:27 SP:fb
cd27  4c 2e cd   JMP $cd2e   A:00 X:00 Y:99 P:27 SP:fb
cd2e  ea         NOP         A:00 X:00 Y:99 P:27 SP:fb
cd2f  a9 85      LDA #$85    A:00 X:00 Y:99 P:27 SP:fb
cd31  a2 34      LDX #$34    A:85 X:00 Y:99 P:a5 SP:fb
cd33  a0 99      LDY #$99    A:85 X:34 Y:99 P:25 SP:fb
cd35  18         CLC         A:85 X:34 Y:99 P:a5 SP:fb
cd36  24 01      BIT $01     A:85 X:34 Y:99 P:a4 SP:fb
cd38  98         TYA         A:85 X:34 Y:99 P:e4 SP:fb
cd39  f0 2e      BEQ $cd69   A:99 X:34 Y:99 P:e4 SP:fb
cd3b  b0 2c      BCS $cd69   A:99 X:34 Y:99 P:e4 SP:fb
cd3d  50 2a      BVC $cd69   A:99 X:34 Y:99 P:e4 SP:fb
cd3f  10 28      BPL $cd69   A:99 X:34 Y:99 P:e4 SP:fb
cd41  c9 99      CMP #$99    A:99 X:34 Y:99 P:e4 SP:fb
cd43  d0 24      BNE $cd69   A:99 X:34 Y:99 P:67 SP:fb
cd45  e0 34      CPX #$34    A:99 X:34 Y:99 P:67 SP:fb
cd47  d0 20      BNE $cd69   A:99 X:34 Y:99 P:67 SP:fb
cd49  c0 99      CPY #$99    A:99 X:34 Y:99 P:67 SP:fb
cd4b  d0 1c      BNE $cd69   A:99 X:34 Y:99 P:67 SP:fb
cd4d  a0 00      LDY #$00    A:99 X:34 Y:99 P:67 SP:fb
cd4f  38         SEC         A:99 X:34 Y:00 P:67 SP:fb
cd50  b8         CLV         A:99 X:34 Y:00 P:67 SP:fb
cd51  98         TYA         A:99 X:34 Y:00 P:27 SP:fb
cd52  d0 15      BNE $cd69   A:00 X:34 Y:00 P:27 SP:fb
cd54  90 13      BCC $cd69   A:00 X:34 Y:00 P:27 SP:fb
cd56  70 11      BVS $cd69   A:00 X:34 Y:00 P:27 SP:fb
cd58  30 0f      BMI $cd69   A:00 X:34 Y:00 P:27 SP:fb
cd5a  c9 00      CMP #$00    A:00 X:34 Y:00 P:27 SP:fb
cd5c  d0 0b      BNE $cd69   A:00 X:34 Y:00 P:27 SP:fb
cd5e  e0 34      CPX #$34    A:00 X:34 Y:00 P:27 SP:fb
cd60  d0 07      BNE $cd69   A:00 X:34 Y:00 P:27 SP:fb
cd62  c0 00      CPY #$00    A:00 X:34 Y:00 P:27 SP:fb
cd64  d0 03      BNE $cd69   A:00 X:34 Y:00 P:27 SP:fb
cd66  4c 6d cd   JMP $cd6d   A:00 X:34 Y:00 P:27 SP:fb
cd6d  ea         NOP         A:00 X:34 Y:00 P:27 SP:fb
cd6e  a9 85      LDA #$85    A:00 X:34 Y:00 P:27 SP:fb
cd70  a2 34      LDX #$34    A:85 X:34 Y:00 P:a5 SP:fb
cd72  a0 99      LDY #$99    A:85 X:34 Y:00 P:25 SP:fb
cd74  18         CLC         A:85 X:34 Y:99 P:a5 SP:fb
cd75  24 01      BIT $01     A:85 X:34 Y:99 P:a4 SP:fb
cd77  8a         TXA         A:85 X:34 Y:99 P:e4 SP:fb
cd78  f0 2e      BEQ $cda8   A:34 X:34 Y:99 P:64 SP:fb
cd7a  b0 2c      BCS $cda8   A:34 X:34 Y:99 P:64 SP:fb
cd7c  50 2a      BVC $cda8   A:34 X:34 Y:99 P:64 SP:fb
cd7e  30 28      BMI $cda8   A:34 X:34 Y:99 P:64 SP:fb
cd80  c9 34      CMP #$34    A:34 X:34 Y:99 P:64 SP:fb
cd82  d0 24      BNE $cda8   A:34 X:34 Y:99 P:67 SP:fb
cd84  e0 34      CPX #$34    A:34 X:34 Y:99 P:67 SP:fb
cd86  d0 20      BNE $cda8   A:34 X:34 Y:99 P:67 SP:fb
cd88  c0 99      CPY #$99    A:34 X:34 Y:99 P:67 SP:fb
cd8a  d0 1c      BNE $cda8   A:34 X:34 Y:99 P:67 SP:fb
cd8c  a2 00      LDX #$00    A:34 X:34 Y:99 P:67 SP:fb
cd8e  38         SEC         A:34 X:00 Y:99 P:67 SP:fb
cd8f  b8         CLV         A:34 X:00 Y:99 P:67 SP:fb
cd90  8a         TXA         A:34 X:00 Y:99 P:27 SP:fb
cd91  d0 15      BNE $cda8   A:00 X:00 Y:99 P:27 SP:fb
cd93  90 13      BCC $cda8   A:00 X:00 Y:99 P:27 SP:fb
cd95  70 11      BVS $cda8   A:00 X:00 Y:99 P:27 SP:fb
cd97  30 0f      BMI $cda8   A:00 X:00 Y:99 P:27 SP:fb
cd99  c9 00      CMP #$00    A:00 X:00 Y:99 P:27 SP:fb
cd9b  d0 0b      BNE $cda8   A:00 X:00 Y:99 P:27 SP:fb
cd9d  e0 00      CPX #$00    A:00 X:00 Y:99 P:27 SP:fb
cd9f  d0 07      BNE $cda8   A:00 X:00 Y:99 P:27 SP:fb
cda1  c0 99      CPY #$99    A:00 X:00 Y:99 P:27 SP:fb
cda3  d0 03      BNE $cda8   A:00 X:00 Y:99 P:27 SP:fb
cda5  4c ac cd   JMP $cdac   A:00 X:00 Y:99 P:27 SP:fb
cdac  ea         NOP         A:00 X:00 Y:99 P:27 SP:fb
cdad  ba         TSX         A:00 X:00 Y:99 P:27 SP:fb
cdae  8e ff 07   STX $07ff   A:00 X:fb Y:99 P:a5 SP:fb
cdb1  a0 33      LDY #$33    A:00 X:fb Y:99 P:a5 SP:fb
cdb3  a2 69      LDX #$69    A:00 X:fb Y:33 P:25 SP:fb
cdb5  a9 84      LDA #$84    A:00 X:69 Y:33 P:25 SP:fb
cdb7  18         CLC         A:84 X:69 Y:33 P:a5 SP:fb
cdb8  24 01      BIT $01     A:84 X:69 Y:33 P:a4 SP:fb
cdba  9a         TXS         A:84 X:69 Y:33 P:e4 SP:fb
cdbb  f0 32      BEQ $cdef   A:84 X:69 Y:33 P:e4 SP:69
cdbd  10 30      BPL $cdef   A:84 X:69 Y:33 P:e4 SP:69
cdbf  b0 2e      BCS $cdef   A:84 X:69 Y:33 P:e4 SP:69
cdc1  50 2c      BVC $cdef   A:84 X:69 Y:33 P:e4 SP:69
cdc3  c9 84      CMP #$84    A:84 X:69 Y:33 P:e4 SP:69
cdc5  d0 28      BNE $cdef   A:84 X:69 Y:33 P:67 SP:69
cdc7  e0 69      CPX #$69    A:84 X:69 Y:33 P:67 SP:69
cdc9  d0 24      BNE $cdef   A:84 X:69 Y:33 P:67 SP:69
cdcb  c0 33      CPY #$33    A:84 X:69 Y:33 P:67 SP:69
cdcd  d0 20      BNE $cdef   A:84 X:69 Y:33 P:67 SP:69
cdcf  a0 01      LDY #$01    A:84 X:69 Y:33 P:67 SP:69
cdd1  a9 04      LDA #$04    A:84 X:69 Y:01 P:65 SP:69
cdd3  38         SEC         A:04 X:69 Y:01 P:65 SP:69
cdd4  b8         CLV         A:04 X:69 Y:01 P:65 SP:69
cdd5  a2 00      LDX #$00    A:04 X:69 Y:01 P:25 SP:69
cdd7  ba         TSX         A:04 X:00 Y:01 P:27 SP:69
cdd8  f0 15      BEQ $cdef   A:04 X:69 Y:01 P:25 SP:69
cdda  30 13      BMI $cdef   A:04 X:69 Y:01 P:25 SP:69
cddc  90 11      BCC $cdef   A:04 X:69 Y:01 P:25 SP:69
cdde  70 0f      BVS $cdef   A:04 X:69 Y:01 P:25 SP:69
cde0  e0 69      CPX #$69    A:04 X:69 Y:01 P:25 SP:69
cde2  d0 0b      BNE $cdef   A:04 X:69 Y:01 P:27 SP:69
cde4  c9 04      CMP #$04    A:04 X:69 Y:01 P:27 SP:69
cde6  d0 07      BNE $cdef   A:04 X:69 Y:01 P:27 SP:69
cde8  c0 01      CPY #$01    A:04 X:69 Y:01 P:27 SP:69
cdea  d0 03      BNE $cdef   A:04 X:69 Y:01 P:27 SP:69
cdec  4c f3 cd   JMP $cdf3   A:04 X:69 Y:01 P:27 SP:69
cdf3  ae ff 07   LDX $07ff   A:04 X:69 Y:01 P:27 SP:69
cdf6  9a         TXS         A:04 X:fb Y:01 P:a5 SP:69
cdf7  60         RTS         A:04 X:fb Y:01 P:a5 SP:fb
c609  20 f8 cd   JSR $cdf8   A:04 X:fb Y:01 P:a5 SP:fd
cdf8  a9 ff      LDA #$ff    A:04 X:fb Y:01 P:a5 SP:fb
cdfa  85 01      STA $01     A:ff X:fb Y:01 P:a5 SP:fb
cdfc  ba         TSX         A:ff X:fb Y:01 P:a5 SP:fb
cdfd  8e ff 07   STX $07ff   A:ff X:fb Y:01 P:a5 SP:fb
ce00  ea         NOP         A:ff X:fb Y:01 P:a5 SP:fb
ce01  a2 80      LDX #$80    A:ff X:fb Y:01 P:a5 SP:fb
ce03  9a         TXS         A:ff X:80 Y:01 P:a5 SP:fb
ce04  a9 33      LDA #$33    A:ff X:80 Y:01 P:a5 SP:80
ce06  48         PHA         A:33 X:80 Y:01 P:25 SP:80
ce07  a9 69      LDA #$69    A:33 X:80 Y:01 P:25 SP:7f
ce09  48         PHA         A:69 X:80 Y:01 P:25 SP:7f
ce0a  ba         TSX         A:69 X:80 Y:01 P:25 SP:7e
ce0b  e0 7e      CPX #$7e    A:69 X:7e Y:01 P:25 SP:7e
ce0d  d0 20      BNE $ce2f   A:69 X:7e Y:01 P:27 SP:7e
ce0f  68         PLA         A:69 X:7e Y:01 P:27 SP:7e
ce10  c9 69      CMP #$69    A:69 X:7e Y:01 P:25 SP:7f
ce12  d0 1b      BNE $ce2f   A:69 X:7e Y:01 P:27 SP:7f
ce14  68         PLA         A:69 X:7e Y:01 P:27 SP:7f
ce15  c9 33      CMP #$33    A:33 X:7e Y:01 P:25 SP:80
ce17  d0 16      BNE $ce2f   A:33 X:7e Y:01 P:27 SP:80
ce19  ba         TSX         A:33 X:7e Y:01 P:27 SP:80
ce1a  e0 80      CPX #$80    A:33 X:80 Y:01 P:a5 SP:80
ce1c  d0 11      BNE $ce2f   A:33 X:80 Y:01 P:27 SP:80
ce1e  ad 80 01   LDA $0180   A:33 X:80 Y:01 P:27 SP:80
ce21  c9 33      CMP #$33    A:33 X:80 Y:01 P:25 SP:80
ce23  d0 0a      BNE $ce2f   A:33 X:80 Y:01 P:27 SP:80
ce25  ad 7f 01   LDA $017f   A:33 X:80 Y:01 P:27 SP:80
ce28  c9 69      CMP #$69    A:69 X:80 Y:01 P:25 SP:80
ce2a  d0 03      BNE $ce2f   A:69 X:80 Y:01 P:27 SP:80
ce2c  4c 33 ce   JMP $ce33   A:69 X:80 Y:01 P:27 SP:80
ce33  ea         NOP         A:69 X:80 Y:01 P:27 SP:80
ce34  a2 80      LDX #$80    A:69 X:80 Y:01 P:27 SP:80
ce36  9a         TXS         A:69 X:80 Y:01 P:a5 SP:80
ce37  20 3d ce   JSR $ce3d   A:69 X:80 Y:01 P:a5 SP:80
ce3d  ba         TSX         A:69 X:80 Y:01 P:a5 SP:7e
ce3e  e0 7e      CPX #$7e    A:69 X:7e Y:01 P:25 SP:7e
ce40  d0 19      BNE $ce5b   A:69 X:7e Y:01 P:27 SP:7e
ce42  68         PLA         A:69 X:7e Y:01 P:27 SP:7e
ce43  68         PLA         A:39 X:7e Y:01 P:25 SP:7f
ce44  ba         TSX         A:ce X:7e Y:01 P:a5 SP:80
ce45  e0 80      CPX #$80    A:ce X:80 Y:01 P:a5 SP:80
ce47  d0 12      BNE $ce5b   A:ce X:80 Y:01 P:27 SP:80
ce49  a9 00      LDA #$00    A:ce X:80 Y:01 P:27 SP:80
ce4b  20 4e ce   JSR $ce4e   A:00 X:80 Y:01 P:27 SP:80
ce4e  68         PLA         A:00 X:80 Y:01 P:27 SP:7e
ce4f  c9 4d      CMP #$4d    A:4d X:80 Y:01 P:25 SP:7f
ce51  d0 08      BNE $ce5b   A:4d X:80 Y:01 P:27 SP:7f
ce53  68         PLA         A:4d X:80 Y:01 P:27 SP:7f
ce54  c9 ce      CMP #$ce    A:ce X:80 Y:01 P:a5 SP:80
ce56  d0 03      BNE $ce5b   A:ce X:80 Y:01 P:27 SP:80
ce58  4c 5f ce   JMP $ce5f   A:ce X:80 Y:01 P:27 SP:80
ce5f  ea         NOP         A:ce X:80 Y:01 P:27 SP:80
ce60  a9 ce      LDA #$ce    A:ce X:80 Y:01 P:27 SP:80
ce62  48         PHA         A:ce X:80 Y:01 P:a5 SP:80
ce63  a9 66      LDA #$66    A:ce X:80 Y:01 P:a5 SP:7f
ce65  48         PHA         A:66 X:80 Y:01 P:25 SP:7f
ce66  60         RTS         A:66 X:80 Y:01 P:25 SP:7e
ce67  a2 77      LDX #$77    A:66 X:80 Y:01 P:25 SP:80
ce69  a0 69      LDY #$69    A:66 X:77 Y:01 P:25 SP:80
ce6b  18         CLC         A:66 X:77 Y:69 P:25 SP:80
ce6c  24 01      BIT $01     A:66 X:77 Y:69 P:24 SP:80
ce6e  a9 83      LDA #$83    A:66 X:77 Y:69 P:e4 SP:80
ce70  20 66 ce   JSR $ce66   A:83 X:77 Y:69 P:e4 SP:80
ce66  60         RTS         A:83 X:77 Y:69 P:e4 SP:7e
ce73  f0 24      BEQ $ce99   A:83 X:77 Y:69 P:e4 SP:80
ce75  10 22      BPL $ce99   A:83 X:77 Y:69 P:e4 SP:80
ce77  b0 20      BCS $ce99   A:83 X:77 Y:69 P:e4 SP:80
ce79  50 1e      BVC $ce99   A:83 X:77 Y:69 P:e4 SP:80
ce7b  c9 83      CMP #$83    A:83 X:77 Y:69 P:e4 SP:80
ce7d  d0 1a      BNE $ce99   A:83 X:77 Y:69 P:67 SP:80
ce7f  c0 69      CPY #$69    A:83 X:77 Y:69 P:67 SP:80
ce81  d0 16      BNE $ce99   A:83 X:77 Y:69 P:67 SP:80
ce83  e0 77      CPX #$77    A:83 X:77 Y:69 P:67 SP:80
ce85  d0 12      BNE $ce99   A:83 X:77 Y:69 P:67 SP:80
ce87  38         SEC         A:83 X:77 Y:69 P:67 SP:80
ce88  b8         CLV         A:83 X:77 Y:69 P:67 SP:80
ce89  a9 00      LDA #$00    A:83 X:77 Y:69 P:27 SP:80
ce8b  20 66 ce   JSR $ce66   A:00 X:77 Y:69 P:27 SP:80
ce66  60         RTS         A:00 X:77 Y:69 P:27 SP:7e
ce8e  d0 09      BNE $ce99   A:00 X:77 Y:69 P:27 SP:80
ce90  30 07      BMI $ce99   A:00 X:77 Y:69 P:27 SP:80
ce92  90 05      BCC $ce99   A:00 X:77 Y:69 P:27 SP:80
ce94  70 03      BVS $ce99   A:00 X:77 Y:69 P:27 SP:80
ce96  4c 9d ce   JMP $ce9d   A:00 X:77 Y:69 P:27 SP:80
ce9d  ea         NOP         A:00 X:77 Y:69 P:27 SP:80
ce9e  a9 ce      LDA #$ce    A:00 X:77 Y:69 P:27 SP:80
cea0  48         PHA         A:ce X:77 Y:69 P:a5 SP:80
cea1  a9 ae      LDA #$ae    A:ce X:77 Y:69 P:a5 SP:7f
cea3  48         PHA         A:ae X:77 Y:69 P:a5 SP:7f
cea4  a9 65      LDA #$65    A:ae X:77 Y:69 P:a5 SP:7e
cea6  48         PHA         A:65 X:77 Y:69 P:25 SP:7e
cea7  a9 55      LDA #$55    A:65 X:77 Y:69 P:25 SP:7d
cea9  a0 88      LDY #$88    A:55 X:77 Y:69 P:25 SP:7d
ceab  a2 99      LDX #$99    A:55 X:77 Y:88 P:a5 SP:7d
cead  40         RTI         A:55 X:99 Y:88 P:a5 SP:7d
ceae  30 35      BMI $cee5   A:55 X:99 Y:88 P:65 SP:80
ceb0  50 33      BVC $cee5   A:55 X:99 Y:88 P:65 SP:80
ceb2  f0 31      BEQ $cee5   A:55 X:99 Y:88 P:65 SP:80
ceb4  90 2f      BCC $cee5   A:55 X:99 Y:88 P:65 SP:80
ceb6  c9 55      CMP #$55    A:55 X:99 Y:88 P:65 SP:80
ceb8  d0 2b      BNE $cee5   A:55 X:99 Y:88 P:67 SP:80
ceba  c0 88      CPY #$88    A:55 X:99 Y:88 P:67 SP:80
cebc  d0 27      BNE $cee5   A:55 X:99 Y:88 P:67 SP:80
cebe  e0 99      CPX #$99    A:55 X:99 Y:88 P:67 SP:80
cec0  d0 23      BNE $cee5   A:55 X:99 Y:88 P:67 SP:80
cec2  a9 ce      LDA #$ce    A:55 X:99 Y:88 P:67 SP:80
cec4  48         PHA         A:ce X:99 Y:88 P:e5 SP:80
cec5  a9 ce      LDA #$ce    A:ce X:99 Y:88 P:e5 SP:7f
cec7  48         PHA         A:ce X:99 Y:88 P:e5 SP:7f
cec8  a9 87      LDA #$87    A:ce X:99 Y:88 P:e5 SP:7e
ceca  48         PHA         A:87 X:99 Y:88 P:e5 SP:7e
cecb  a9 55      LDA #$55    A:87 X:99 Y:88 P:e5 SP:7d
cecd  40         RTI         A:55 X:99 Y:88 P:65 SP:7d
cece  10 15      BPL $cee5   A:55 X:99 Y:88 P:a7 SP:80
ced0  70 13      BVS $cee5   A:55 X:99 Y:88 P:a7 SP:80
ced2  d0 11      BNE $cee5   A:55 X:99 Y:88 P:a7 SP:80
ced4  90 0f      BCC $cee5   A:55 X:99 Y:88 P:a7 SP:80
ced6  c9 55      CMP #$55    A:55 X:99 Y:88 P:a7 SP:80
ced8  d0 0b      BNE $cee5   A:55 X:99 Y:88 P:27 SP:80
ceda  c0 88      CPY #$88    A:55 X:99 Y:88 P:27 SP:80
cedc  d0 07      BNE $cee5   A:55 X:99 Y:88 P:27 SP:80
cede  e0 99      CPX #$99    A:55 X:99 Y:88 P:27 SP:80
cee0  d0 03      BNE $cee5   A:55 X:99 Y:88 P:27 SP:80
cee2  4c e9 ce   JMP $cee9   A:55 X:99 Y:88 P:27 SP:80
cee9  ae ff 07   LDX $07ff   A:55 X:99 Y:88 P:27 SP:80
ceec  9a         TXS         A:55 X:fb Y:88 P:a5 SP:80
ceed  60         RTS         A:55 X:fb Y:88 P:a5 SP:fb
c60c  20 ee ce   JSR $ceee   A:55 X:fb Y:88 P:a5 SP:fd
ceee  a2 55      LDX #$55    A:55 X:fb Y:88 P:a5 SP:fb
cef0  a0 69      LDY #$69    A:55 X:55 Y:88 P:25 SP:fb
cef2  a9 ff      LDA #$ff    A:55 X:55 Y:69 P:25 SP:fb
cef4  85 01      STA $01     A:ff X:55 Y:69 P:a5 SP:fb
cef6  ea         NOP         A:ff X:55 Y:69 P:a5 SP:fb
cef7  24 01      BIT $01     A:ff X:55 Y:69 P:a5 SP:fb
cef9  38         SEC         A:ff X:55 Y:69 P:e5 SP:fb
cefa  a9 01      LDA #$01    A:ff X:55 Y:69 P:e5 SP:fb
cefc  4a         LSR A       A:01 X:55 Y:69 P:65 SP:fb
cefd  90 1d      BCC $cf1c   A:00 X:55 Y:69 P:67 SP:fb
ceff  d0 1b      BNE $cf1c   A:00 X:55 Y:69 P:67 SP:fb
cf01  30 19      BMI $cf1c   A:00 X:55 Y:69 P:67 SP:fb
cf03  50 17      BVC $cf1c   A:00 X:55 Y:69 P:67 SP:fb
cf05  c9 00      CMP #$00    A:00 X:55 Y:69 P:67 SP:fb
cf07  d0 13      BNE $cf1c   A:00 X:55 Y:69 P:67 SP:fb
cf09  b8         CLV         A:00 X:55 Y:69 P:67 SP:fb
cf0a  a9 aa      LDA #$aa    A:00 X:55 Y:69 P:27 SP:fb
cf0c  4a         LSR A       A:aa X:55 Y:69 P:a5 SP:fb
cf0d  b0 0d      BCS $cf1c   A:55 X:55 Y:69 P:24 SP:fb
cf0f  f0 0b      BEQ $cf1c   A:55 X:55 Y:69 P:24 SP:fb
cf11  30 09      BMI $cf1c   A:55 X:55 Y:69 P:24 SP:fb
cf13  70 07      BVS $cf1c   A:55 X:55 Y:69 P:24 SP:fb
cf15  c9 55      CMP #$55    A:55 X:55 Y:69 P:24 SP:fb
cf17  d0 03      BNE $cf1c   A:55 X:55 Y:69 P:27 SP:fb
cf19  4c 20 cf   JMP $cf20   A:55 X:55 Y:69 P:27 SP:fb
cf20  ea         NOP         A:55 X:55 Y:69 P:27 SP:fb
cf21  24 01      BIT $01     A:55 X:55 Y:69 P:27 SP:fb
cf23  38         SEC         A:55 X:55 Y:69 P:e5 SP:fb
cf24  a9 80      LDA #$80    A:55 X:55 Y:69 P:e5 SP:fb
cf26  0a         ASL A       A:80 X:55 Y:69 P:e5 SP:fb
cf27  90 1e      BCC $cf47   A:00 X:55 Y:69 P:67 SP:fb
cf29  d0 1c      BNE $cf47   A:00 X:55 Y:69 P:67 SP:fb
cf2b  30 1a      BMI $cf47   A:00 X:55 Y:69 P:67 SP:fb
cf2d  50 18      BVC $cf47   A:00 X:55 Y:69 P:67 SP:fb
cf2f  c9 00      CMP #$00    A:00 X:55 Y:69 P:67 SP:fb
cf31  d0 14      BNE $cf47   A:00 X:55 Y:69 P:67 SP:fb
cf33  b8         CLV         A:00 X:55 Y:69 P:67 SP:fb
cf34  38         SEC         A:00 X:55 Y:69 P:27 SP:fb
cf35  a9 55      LDA #$55    A:00 X:55 Y:69 P:27 SP:fb
cf37  0a         ASL A       A:55 X:55 Y:69 P:25 SP:fb
cf38  b0 0d      BCS $cf47   A:aa X:55 Y:69 P:a4 SP:fb
cf3a  f0 0b      BEQ $cf47   A:aa X:55 Y:69 P:a4 SP:fb
cf3c  10 09      BPL $cf47   A:aa X:55 Y:69 P:a4 SP:fb
cf3e  70 07      BVS $cf47   A:aa X:55 Y:69 P:a4 SP:fb
cf40  c9 aa      CMP #$aa    A:aa X:55 Y:69 P:a4 SP:fb
cf42  d0 03      BNE $cf47   A:aa X:55 Y:69 P:27 SP:fb
cf44  4c 4b cf   JMP $cf4b   A:aa X:55 Y:69 P:27 SP:fb
cf4b  ea         NOP         A:aa X:55 Y:69 P:27 SP:fb
cf4c  24 01      BIT $01     A:aa X:55 Y:69 P:27 SP:fb
cf4e  38         SEC         A:aa X:55 Y:69 P:e5 SP:fb
cf4f  a9 01      LDA #$01    A:aa X:55 Y:69 P:e5 SP:fb
cf51  6a         ROR A       A:01 X:55 Y:69 P:65 SP:fb
cf52  90 1e      BCC $cf72   A:80 X:55 Y:69 P:e5 SP:fb
cf54  f0 1c      BEQ $cf72   A:80 X:55 Y:69 P:e5 SP:fb
cf56  10 1a      BPL $cf72   A:80 X:55 Y:69 P:e5 SP:fb
cf58  50 18      BVC $cf72   A:80 X:55 Y:69 P:e5 SP:fb
cf5a  c9 80      CMP #$80    A:80 X:55 Y:69 P:e5 SP:fb
cf5c  d0 14      BNE $cf72   A:80 X:55 Y:69 P:67 SP:fb
cf5e  b8         CLV         A:80 X:55 Y:69 P:67 SP:fb
cf5f  18         CLC         A:80 X:55 Y:69 P:27 SP:fb
cf60  a9 55      LDA #$55    A:80 X:55 Y:69 P:26 SP:fb
cf62  6a         ROR A       A:55 X:55 Y:69 P:24 SP:fb
cf63  90 0d      BCC $cf72   A:2a X:55 Y:69 P:25 SP:fb
cf65  f0 0b      BEQ $cf72   A:2a X:55 Y:69 P:25 SP:fb
cf67  30 09      BMI $cf72   A:2a X:55 Y:69 P:25 SP:fb
cf69  70 07      BVS $cf72   A:2a X:55 Y:69 P:25 SP:fb
cf6b  c9 2a      CMP #$2a    A:2a X:55 Y:69 P:25 SP:fb
cf6d  d0 03      BNE $cf72   A:2a X:55 Y:69 P:27 SP:fb
cf6f  4c 76 cf   JMP $cf76   A:2a X:55 Y:69 P:27 SP:fb
cf76  ea         NOP         A:2a X:55 Y:69 P:27 SP:fb
cf77  24 01      BIT $01     A:2a X:55 Y:69 P:27 SP:fb
cf79  38         SEC         A:2a X:55 Y:69 P:e5 SP:fb
cf7a  a9 80      LDA #$80    A:2a X:55 Y:69 P:e5 SP:fb
cf7c  2a         ROL A       A:80 X:55 Y:69 P:e5 SP:fb
cf7d  90 1e      BCC $cf9d   A:01 X:55 Y:69 P:65 SP:fb
cf7f  f0 1c      BEQ $cf9d   A:01 X:55 Y:69 P:65 SP:fb
cf81  30 1a      BMI $cf9d   A:01 X:55 Y:69 P:65 SP:fb
cf83  50 18      BVC $cf9d   A:01 X:55 Y:69 P:65 SP:fb
cf85  c9 01      CMP #$01    A:01 X:55 Y:69 P:65 SP:fb
cf87  d0 14      BNE $cf9d   A:01 X:55 Y:69 P:67 SP:fb
cf89  b8         CLV         A:01 X:55 Y:69 P:67 SP:fb
cf8a  18         CLC         A:01 X:55 Y:69 P:27 SP:fb
cf8b  a9 55      LDA #$55    A:01 X:55 Y:69 P:26 SP:fb
cf8d  2a         ROL A       A:55 X:55 Y:69 P:24 SP:fb
cf8e  b0 0d      BCS $cf9d   A:aa X:55 Y:69 P:a4 SP:fb
cf90  f0 0b      BEQ $cf9d   A:aa X:55 Y:69 P:a4 SP:fb
cf92  10 09      BPL $cf9d   A:aa X:55 Y:69 P:a4 SP:fb
cf94  70 07      BVS $cf9d   A:aa X:55 Y:69 P:a4 SP:fb
cf96  c9 aa      CMP #$aa    A:aa X:55 Y:69 P:a4 SP:fb
cf98  d0 03      BNE $cf9d   A:aa X:55 Y:69 P:27 SP:fb
cf9a  4c a1 cf   JMP $cfa1   A:aa X:55 Y:69 P:27 SP:fb
cfa1  60         RTS         A:aa X:55 Y:69 P:27 SP:fb
c60f  20 a2 cf   JSR $cfa2   A:aa X:55 Y:69 P:27 SP:fd
cfa2  a5 00      LDA $00     A:aa X:55 Y:69 P:27 SP:fb
cfa4  8d ff 07   STA $07ff   A:00 X:55 Y:69 P:27 SP:fb
cfa7  a9 00      LDA #$00    A:00 X:55 Y:69 P:27 SP:fb
cfa9  85 80      STA $80     A:00 X:55 Y:69 P:27 SP:fb
cfab  a9 02      LDA #$02    A:00 X:55 Y:69 P:27 SP:fb
cfad  85 81      STA $81     A:02 X:55 Y:69 P:25 SP:fb
cfaf  a9 ff      LDA #$ff    A:02 X:55 Y:69 P:25 SP:fb
cfb1  85 01      STA $01     A:ff X:55 Y:69 P:a5 SP:fb
cfb3  a9 00      LDA #$00    A:ff X:55 Y:69 P:a5 SP:fb
cfb5  85 82      STA $82     A:00 X:55 Y:69 P:27 SP:fb
cfb7  a9 03      LDA #$03    A:00 X:55 Y:69 P:27 SP:fb
cfb9  85 83      STA $83     A:03 X:55 Y:69 P:25 SP:fb
cfbb  85 84      STA $84     A:03 X:55 Y:69 P:25 SP:fb
cfbd  a9 00      LDA #$00    A:03 X:55 Y:69 P:25 SP:fb
cfbf  85 ff      STA $ff     A:00 X:55 Y:69 P:27 SP:fb
cfc1  a9 04      LDA #$04    A:00 X:55 Y:69 P:27 SP:fb
cfc3  85 00      STA $00     A:04 X:55 Y:69 P:25 SP:fb
cfc5  a9 5a      LDA #$5a    A:04 X:55 Y:69 P:25 SP:fb
cfc7  8d 00 02   STA $0200   A:5a X:55 Y:69 P:25 SP:fb
cfca  a9 5b      LDA #$5b    A:5a X:55 Y:69 P:25 SP:fb
cfcc  8d 00 03   STA $0300   A:5b X:55 Y:69 P:25 SP:fb
cfcf  a9 5c      LDA #$5c    A:5b X:55 Y:69 P:25 SP:fb
cfd1  8d 03 03   STA $0303   A:5c X:55 Y:69 P:25 SP:fb
cfd4  a9 5d      LDA #$5d    A:5c X:55 Y:69 P:25 SP:fb
cfd6  8d 00 04   STA $0400   A:5d X:55 Y:69 P:25 SP:fb
cfd9  a2 00      LDX #$00    A:5d X:55 Y:69 P:25 SP:fb
cfdb  a1 80      LDA ($80,X) A:5d X:00 Y:69 P:27 SP:fb
cfdd  c9 5a      CMP #$5a    A:5a X:00 Y:69 P:25 SP:fb
cfdf  d0 1f      BNE $d000   A:5a X:00 Y:69 P:27 SP:fb
cfe1  e8         INX         A:5a X:00 Y:69 P:27 SP:fb
cfe2  e8         INX         A:5a X:01 Y:69 P:25 SP:fb
cfe3  a1 80      LDA ($80,X) A:5a X:02 Y:69 P:25 SP:fb
cfe5  c9 5b      CMP #$5b    A:5b X:02 Y:69 P:25 SP:fb
cfe7  d0 17      BNE $d000   A:5b X:02 Y:69 P:27 SP:fb
cfe9  e8         INX         A:5b X:02 Y:69 P:27 SP:fb
cfea  a1 80      LDA ($80,X) A:5b X:03 Y:69 P:25 SP:fb
cfec  c9 5c      CMP #$5c    A:5c X:03 Y:69 P:25 SP:fb
cfee  d0 10      BNE $d000   A:5c X:03 Y:69 P:27 SP:fb
cff0  a2 00      LDX #$00    A:5c X:03 Y:69 P:27 SP:fb
cff2  a1 ff      LDA ($ff,X) A:5c X:00 Y:69 P:27 SP:fb
cff4  c9 5d      CMP #$5d    A:5d X:00 Y:69 P:25 SP:fb
cff6  d0 08      BNE $d000   A:5d X:00 Y:69 P:27 SP:fb
cff8  a2 81      LDX #$81    A:5d X:00 Y:69 P:27 SP:fb
cffa  a1 ff      LDA ($ff,X) A:5d X:81 Y:69 P:a5 SP:fb
cffc  c9 5a      CMP #$5a    A:5a X:81 Y:69 P:25 SP:fb
cffe  f0 05      BEQ $d005   A:5a X:81 Y:69 P:27 SP:fb
d005  a9 aa      LDA #$aa    A:5a X:81 Y:69 P:27 SP:fb
d007  a2 00      LDX #$00    A:aa X:81 Y:69 P:a5 SP:fb
d009  81 80      STA ($80,X) A:aa X:00 Y:69 P:27 SP:fb
d00b  e8         INX         A:aa X:00 Y:69 P:27 SP:fb
d00c  e8         INX         A:aa X:01 Y:69 P:25 SP:fb
d00d  a9 ab      LDA #$ab    A:aa X:02 Y:69 P:25 SP:fb
d00f  81 80      STA ($80,X) A:ab X:02 Y:69 P:a5 SP:fb
d011  e8         INX         A:ab X:02 Y:69 P:a5 SP:fb
d012  a9 ac      LDA #$ac    A:ab X:03 Y:69 P:25 SP:fb
d014  81 80      STA ($80,X) A:ac X:03 Y:69 P:a5 SP:fb
d016  a2 00      LDX #$00    A:ac X:03 Y:69 P:a5 SP:fb
d018  a9 ad      LDA #$ad    A:ac X:00 Y:69 P:27 SP:fb
d01a  81 ff      STA ($ff,X) A:ad X:00 Y:69 P:a5 SP:fb
d01c  ad 00 02   LDA $0200   A:ad X:00 Y:69 P:a5 SP:fb
d01f  c9 aa      CMP #$aa    A:aa X:00 Y:69 P:a5 SP:fb
d021  d0 15      BNE $d038   A:aa X:00 Y:69 P:27 SP:fb
d023  ad 00 03   LDA $0300   A:aa X:00 Y:69 P:27 SP:fb
d026  c9 ab      CMP #$ab    A:ab X:00 Y:69 P:a5 SP:fb
d028  d0 0e      BNE $d038   A:ab X:00 Y:69 P:27 SP:fb
d02a  ad 03 03   LDA $0303   A:ab X:00 Y:69 P:27 SP:fb
d02d  c9 ac      CMP #$ac    A:ac X:00 Y:69 P:a5 SP:fb
d02f  d0 07      BNE $d038   A:ac X:00 Y:69 P:27 SP:fb
d031  ad 00 04   LDA $0400   A:ac X:00 Y:69 P:27 SP:fb
d034  c9 ad      CMP #$ad    A:ad X:00 Y:69 P:a5 SP:fb
d036  f0 05      BEQ $d03d   A:ad X:00 Y:69 P:27 SP:fb
d03d  ad ff 07   LDA $07ff   A:ad X:00 Y:69 P:27 SP:fb
d040  85 00      STA $00     A:00 X:00 Y:69 P:27 SP:fb
d042  a9 00      LDA #$00    A:00 X:00 Y:69 P:27 SP:fb
d044  8d 00 03   STA $0300   A:00 X:00 Y:69 P:27 SP:fb
d047  a9 aa      LDA #$aa    A:00 X:00 Y:69 P:27 SP:fb
d049  8d 00 02   STA $0200   A:aa X:00 Y:69 P:a5 SP:fb
d04c  a2 00      LDX #$00    A:aa X:00 Y:69 P:a5 SP:fb
d04e  a0 5a      LDY #$5a    A:aa X:00 Y:69 P:27 SP:fb
d050  20 b6 f7   JSR $f7b6   A:aa X:00 Y:5a P:25 SP:fb
f7b6  18         CLC         A:aa X:00 Y:5a P:25 SP:f9
f7b7  a9 ff      LDA #$ff    A:aa X:00 Y:5a P:24 SP:f9
f7b9  85 01      STA $01     A:ff X:00 Y:5a P:a4 SP:f9
f7bb  24 01      BIT $01     A:ff X:00 Y:5a P:a4 SP:f9
f7bd  a9 55      LDA #$55    A:ff X:00 Y:5a P:e4 SP:f9
f7bf  60         RTS         A:55 X:00 Y:5a P:64 SP:f9
d053  01 80      ORA ($80,X) A:55 X:00 Y:5a P:64 SP:fb
d055  20 c0 f7   JSR $f7c0   A:ff X:00 Y:5a P:e4 SP:fb
f7c0  b0 09      BCS $f7cb   A:ff X:00 Y:5a P:e4 SP:f9
f7c2  10 07      BPL $f7cb   A:ff X:00 Y:5a P:e4 SP:f9
f7c4  c9 ff      CMP #$ff    A:ff X:00 Y:5a P:e4 SP:f9
f7c6  d0 03      BNE $f7cb   A:ff X:00 Y:5a P:67 SP:f9
f7c8  50 01      BVC $f7cb   A:ff X:00 Y:5a P:67 SP:f9
f7ca  60         RTS         A:ff X:00 Y:5a P:67 SP:f9
d058  c8         INY         A:ff X:00 Y:5a P:67 SP:fb
d059  20 ce f7   JSR $f7ce   A:ff X:00 Y:5b P:65 SP:fb
f7ce  38         SEC         A:ff X:00 Y:5b P:65 SP:f9
f7cf  b8         CLV         A:ff X:00 Y:5b P:65 SP:f9
f7d0  a9 00      LDA #$00    A:ff X:00 Y:5b P:25 SP:f9
f7d2  60         RTS         A:00 X:00 Y:5b P:27 SP:f9
d05c  01 82      ORA ($82,X) A:00 X:00 Y:5b P:27 SP:fb
d05e  20 d3 f7   JSR $f7d3   A:00 X:00 Y:5b P:27 SP:fb
f7d3  d0 07      BNE $f7dc   A:00 X:00 Y:5b P:27 SP:f9
f7d5  70 05      BVS $f7dc   A:00 X:00 Y:5b P:27 SP:f9
f7d7  90 03      BCC $f7dc   A:00 X:00 Y:5b P:27 SP:f9
f7d9  30 01      BMI $f7dc   A:00 X:00 Y:5b P:27 SP:f9
f7db  60         RTS         A:00 X:00 Y:5b P:27 SP:f9
d061  c8         INY         A:00 X:00 Y:5b P:27 SP:fb
d062  20 df f7   JSR $f7df   A:00 X:00 Y:5c P:25 SP:fb
f7df  18         CLC         A:00 X:00 Y:5c P:25 SP:f9
f7e0  24 01      BIT $01     A:00 X:00 Y:5c P:24 SP:f9
f7e2  a9 55      LDA #$55    A:00 X:00 Y:5c P:e6 SP:f9
f7e4  60         RTS         A:55 X:00 Y:5c P:64 SP:f9
d065  21 80      AND ($80,X) A:55 X:00 Y:5c P:64 SP:fb
d067  20 e5 f7   JSR $f7e5   A:00 X:00 Y:5c P:66 SP:fb
f7e5  d0 07      BNE $f7ee   A:00 X:00 Y:5c P:66 SP:f9
f7e7  50 05      BVC $f7ee   A:00 X:00 Y:5c P:66 SP:f9
f7e9  b0 03      BCS $f7ee   A:00 X:00 Y:5c P:66 SP:f9
f7eb  30 01      BMI $f7ee   A:00 X:00 Y:5c P:66 SP:f9
f7ed  60         RTS         A:00 X:00 Y:5c P:66 SP:f9
d06a  c8         INY         A:00 X:00 Y:5c P:66 SP:fb
d06b  a9 ef      LDA #$ef    A:00 X:00 Y:5d P:64 SP:fb
d06d  8d 00 03   STA $0300   A:ef X:00 Y:5d P:e4 SP:fb
d070  20 f1 f7   JSR $f7f1   A:ef X:00 Y:5d P:e4 SP:fb
f7f1  38         SEC         A:ef X:00 Y:5d P:e4 SP:f9
f7f2  b8         CLV         A:ef X:00 Y:5d P:e5 SP:f9
f7f3  a9 f8      LDA #$f8    A:ef X:00 Y:5d P:a5 SP:f9
f7f5  60         RTS         A:f8 X:00 Y:5d P:a5 SP:f9
d073  21 82      AND ($82,X) A:f8 X:00 Y:5d P:a5 SP:fb
d075  20 f6 f7   JSR $f7f6   A:e8 X:00 Y:5d P:a5 SP:fb
f7f6  90 09      BCC $f801   A:e8 X:00 Y:5d P:a5 SP:f9
f7f8  10 07      BPL $f801   A:e8 X:00 Y:5d P:a5 SP:f9
f7fa  c9 e8      CMP #$e8    A:e8 X:00 Y:5d P:a5 SP:f9
f7fc  d0 03      BNE $f801   A:e8 X:00 Y:5d P:27 SP:f9
f7fe  70 01      BVS $f801   A:e8 X:00 Y:5d P:27 SP:f9
f800  60         RTS         A:e8 X:00 Y:5d P:27 SP:f9
d078  c8         INY         A:e8 X:00 Y:5d P:27 SP:fb
d079  20 04 f8   JSR $f804   A:e8 X:00 Y:5e P:25 SP:fb
f804  18         CLC         A:e8 X:00 Y:5e P:25 SP:f9
f805  24 01      BIT $01     A:e8 X:00 Y:5e P:24 SP:f9
f807  a9 5f      LDA #$5f    A:e8 X:00 Y:5e P:e4 SP:f9
f809  60         RTS         A:5f X:00 Y:5e P:64 SP:f9
d07c  41 80      EOR ($80,X) A:5f X:00 Y:5e P:64 SP:fb
d07e  20 0a f8   JSR $f80a   A:f5 X:00 Y:5e P:e4 SP:fb
f80a  b0 09      BCS $f815   A:f5 X:00 Y:5e P:e4 SP:f9
f80c  10 07      BPL $f815   A:f5 X:00 Y:5e P:e4 SP:f9
f80e  c9 f5      CMP #$f5    A:f5 X:00 Y:5e P:e4 SP:f9
f810  d0 03      BNE $f815   A:f5 X:00 Y:5e P:67 SP:f9
f812  50 01      BVC $f815   A:f5 X:00 Y:5e P:67 SP:f9
f814  60         RTS         A:f5 X:00 Y:5e P:67 SP:f9
d081  c8         INY         A:f5 X:00 Y:5e P:67 SP:fb
d082  a9 70      LDA #$70    A:f5 X:00 Y:5f P:65 SP:fb
d084  8d 00 03   STA $0300   A:70 X:00 Y:5f P:65 SP:fb
d087  20 18 f8   JSR $f818   A:70 X:00 Y:5f P:65 SP:fb
f818  38         SEC         A:70 X:00 Y:5f P:65 SP:f9
f819  b8         CLV         A:70 X:00 Y:5f P:65 SP:f9
f81a  a9 70      LDA #$70    A:70 X:00 Y:5f P:25 SP:f9
f81c  60         RTS         A:70 X:00 Y:5f P:25 SP:f9
d08a  41 82      EOR ($82,X) A:70 X:00 Y:5f P:25 SP:fb
d08c  20 1d f8   JSR $f81d   A:00 X:00 Y:5f P:27 SP:fb
f81d  d0 07      BNE $f826   A:00 X:00 Y:5f P:27 SP:f9
f81f  70 05      BVS $f826   A:00 X:00 Y:5f P:27 SP:f9
f821  90 03      BCC $f826   A:00 X:00 Y:5f P:27 SP:f9
f823  30 01      BMI $f826   A:00 X:00 Y:5f P:27 SP:f9
f825  60         RTS         A:00 X:00 Y:5f P:27 SP:f9
d08f  c8         INY         A:00 X:00 Y:5f P:27 SP:fb
d090  a9 69      LDA #$69    A:00 X:00 Y:60 P:25 SP:fb
d092  8d 00 02   STA $0200   A:69 X:00 Y:60 P:25 SP:fb
d095  20 29 f8   JSR $f829   A:69 X:00 Y:60 P:25 SP:fb
f829  18         CLC         A:69 X:00 Y:60 P:25 SP:f9
f82a  24 01      BIT $01     A:69 X:00 Y:60 P:24 SP:f9
f82c  a9 00      LDA #$00    A:69 X:00 Y:60 P:e4 SP:f9
f82e  60         RTS         A:00 X:00 Y:60 P:66 SP:f9
d098  61 80      ADC ($80,X) A:00 X:00 Y:60 P:66 SP:fb
d09a  20 2f f8   JSR $f82f   A:69 X:00 Y:60 P:24 SP:fb
f82f  30 09      BMI $f83a   A:69 X:00 Y:60 P:24 SP:f9
f831  b0 07      BCS $f83a   A:69 X:00 Y:60 P:24 SP:f9
f833  c9 69      CMP #$69    A:69 X:00 Y:60 P:24 SP:f9
f835  d0 03      BNE $f83a   A:69 X:00 Y:60 P:27 SP:f9
f837  70 01      BVS $f83a   A:69 X:00 Y:60 P:27 SP:f9
f839  60         RTS         A:69 X:00 Y:60 P:27 SP:f9
d09d  c8         INY         A:69 X:00 Y:60 P:27 SP:fb
d09e  20 3d f8   JSR $f83d   A:69 X:00 Y:61 P:25 SP:fb
f83d  38         SEC         A:69 X:00 Y:61 P:25 SP:f9
f83e  24 01      BIT $01     A:69 X:00 Y:61 P:25 SP:f9
f840  a9 00      LDA #$00    A:69 X:00 Y:61 P:e5 SP:f9
f842  60         RTS         A:00 X:00 Y:61 P:67 SP:f9
d0a1  61 80      ADC ($80,X) A:00 X:00 Y:61 P:67 SP:fb
d0a3  20 43 f8   JSR $f843   A:6a X:00 Y:61 P:24 SP:fb
f843  30 09      BMI $f84e   A:6a X:00 Y:61 P:24 SP:f9
f845  b0 07      BCS $f84e   A:6a X:00 Y:61 P:24 SP:f9
f847  c9 6a      CMP #$6a    A:6a X:00 Y:61 P:24 SP:f9
f849  d0 03      BNE $f84e   A:6a X:00 Y:61 P:27 SP:f9
f84b  70 01      BVS $f84e   A:6a X:00 Y:61 P:27 SP:f9
f84d  60         RTS         A:6a X:00 Y:61 P:27 SP:f9
d0a6  c8         INY         A:6a X:00 Y:61 P:27 SP:fb
d0a7  a9 7f      LDA #$7f    A:6a X:00 Y:62 P:25 SP:fb
d0a9  8d 00 02   STA $0200   A:7f X:00 Y:62 P:25 SP:fb
d0ac  20 51 f8   JSR $f851   A:7f X:00 Y:62 P:25 SP:fb
f851  38         SEC         A:7f X:00 Y:62 P:25 SP:f9
f852  b8         CLV         A:7f X:00 Y:62 P:25 SP:f9
f853  a9 7f      LDA #$7f    A:7f X:00 Y:62 P:25 SP:f9
f855  60         RTS         A:7f X:00 Y:62 P:25 SP:f9
d0af  61 80      ADC ($80,X) A:7f X:00 Y:62 P:25 SP:fb
d0b1  20 56 f8   JSR $f856   A:ff X:00 Y:62 P:e4 SP:fb
f856  10 09      BPL $f861   A:ff X:00 Y:62 P:e4 SP:f9
f858  b0 07      BCS $f861   A:ff X:00 Y:62 P:e4 SP:f9
f85a  c9 ff      CMP #$ff    A:ff X:00 Y:62 P:e4 SP:f9
f85c  d0 03      BNE $f861   A:ff X:00 Y:62 P:67 SP:f9
f85e  50 01      BVC $f861   A:ff X:00 Y:62 P:67 SP:f9
f860  60         RTS         A:ff X:00 Y:62 P:67 SP:f9
d0b4  c8         INY         A:ff X:00 Y:62 P:67 SP:fb
d0b5  a9 80      LDA #$80    A:ff X:00 Y:63 P:65 SP:fb
d0b7  8d 00 02   STA $0200   A:80 X:00 Y:63 P:e5 SP:fb
d0ba  20 64 f8   JSR $f864   A:80 X:00 Y:63 P:e5 SP:fb
f864  18         CLC         A:80 X:00 Y:63 P:e5 SP:f9
f865  24 01      BIT $01     A:80 X:00 Y:63 P:e4 SP:f9
f867  a9 7f      LDA #$7f    A:80 X:00 Y:63 P:e4 SP:f9
f869  60         RTS         A:7f X:00 Y:63 P:64 SP:f9
d0bd  61 80      ADC ($80,X) A:7f X:00 Y:63 P:64 SP:fb
d0bf  20 6a f8   JSR $f86a   A:ff X:00 Y:63 P:a4 SP:fb
f86a  10 09      BPL $f875   A:ff X:00 Y:63 P:a4 SP:f9
f86c  b0 07      BCS $f875   A:ff X:00 Y:63 P:a4 SP:f9
f86e  c9 ff      CMP #$ff    A:ff X:00 Y:63 P:a4 SP:f9
f870  d0 03      BNE $f875   A:ff X:00 Y:63 P:27 SP:f9
f872  70 01      BVS $f875   A:ff X:00 Y:63 P:27 SP:f9
f874  60         RTS         A:ff X:00 Y:63 P:27 SP:f9
d0c2  c8         INY         A:ff X:00 Y:63 P:27 SP:fb
d0c3  20 78 f8   JSR $f878   A:ff X:00 Y:64 P:25 SP:fb
f878  38         SEC         A:ff X:00 Y:64 P:25 SP:f9
f879  b8         CLV         A:ff X:00 Y:64 P:25 SP:f9
f87a  a9 7f      LDA #$7f    A:ff X:00 Y:64 P:25 SP:f9
f87c  60         RTS         A:7f X:00 Y:64 P:25 SP:f9
d0c6  61 80      ADC ($80,X) A:7f X:00 Y:64 P:25 SP:fb
d0c8  20 7d f8   JSR $f87d   A:00 X:00 Y:64 P:27 SP:fb
f87d  d0 07      BNE $f886   A:00 X:00 Y:64 P:27 SP:f9
f87f  30 05      BMI $f886   A:00 X:00 Y:64 P:27 SP:f9
f881  70 03      BVS $f886   A:00 X:00 Y:64 P:27 SP:f9
f883  90 01      BCC $f886   A:00 X:00 Y:64 P:27 SP:f9
f885  60         RTS         A:00 X:00 Y:64 P:27 SP:f9
d0cb  c8         INY         A:00 X:00 Y:64 P:27 SP:fb
d0cc  a9 40      LDA #$40    A:00 X:00 Y:65 P:25 SP:fb
d0ce  8d 00 02   STA $0200   A:40 X:00 Y:65 P:25 SP:fb
d0d1  20 89 f8   JSR $f889   A:40 X:00 Y:65 P:25 SP:fb
f889  24 01      BIT $01     A:40 X:00 Y:65 P:25 SP:f9
f88b  a9 40      LDA #$40    A:40 X:00 Y:65 P:e5 SP:f9
f88d  60         RTS         A:40 X:00 Y:65 P:65 SP:f9
d0d4  c1 80      CMP ($80,X) A:40 X:00 Y:65 P:65 SP:fb
d0d6  20 8e f8   JSR $f88e   A:40 X:00 Y:65 P:67 SP:fb
f88e  30 07      BMI $f897   A:40 X:00 Y:65 P:67 SP:f9
f890  90 05      BCC $f897   A:40 X:00 Y:65 P:67 SP:f9
f892  d0 03      BNE $f897   A:40 X:00 Y:65 P:67 SP:f9
f894  50 01      BVC $f897   A:40 X:00 Y:65 P:67 SP:f9
f896  60         RTS         A:40 X:00 Y:65 P:67 SP:f9
d0d9  c8         INY         A:40 X:00 Y:65 P:67 SP:fb
d0da  48         PHA         A:40 X:00 Y:66 P:65 SP:fb
d0db  a9 3f      LDA #$3f    A:40 X:00 Y:66 P:65 SP:fa
d0dd  8d 00 02   STA $0200   A:3f X:00 Y:66 P:65 SP:fa
d0e0  68         PLA         A:3f X:00 Y:66 P:65 SP:fa
d0e1  20 9a f8   JSR $f89a   A:40 X:00 Y:66 P:65 SP:fb
f89a  b8         CLV         A:40 X:00 Y:66 P:65 SP:f9
f89b  60         RTS         A:40 X:00 Y:66 P:25 SP:f9
d0e4  c1 80      CMP ($80,X) A:40 X:00 Y:66 P:25 SP:fb
d0e6  20 9c f8   JSR $f89c   A:40 X:00 Y:66 P:25 SP:fb
f89c  f0 07      BEQ $f8a5   A:40 X:00 Y:66 P:25 SP:f9
f89e  30 05      BMI $f8a5   A:40 X:00 Y:66 P:25 SP:f9
f8a0  90 03      BCC $f8a5   A:40 X:00 Y:66 P:25 SP:f9
f8a2  70 01      BVS $f8a5   A:40 X:00 Y:66 P:25 SP:f9
f8a4  60         RTS         A:40 X:00 Y:66 P:25 SP:f9
d0e9  c8         INY         A:40 X:00 Y:66 P:25 SP:fb
d0ea  48         PHA         A:40 X:00 Y:67 P:25 SP:fb
d0eb  a9 41      LDA #$41    A:40 X:00 Y:67 P:25 SP:fa
d0ed  8d 00 02   STA $0200   A:41 X:00 Y:67 P:25 SP:fa
d0f0  68         PLA         A:41 X:00 Y:67 P:25 SP:fa
d0f1  c1 80      CMP ($80,X) A:40 X:00 Y:67 P:25 SP:fb
d0f3  20 a8 f8   JSR $f8a8   A:40 X:00 Y:67 P:a4 SP:fb
f8a8  f0 05      BEQ $f8af   A:40 X:00 Y:67 P:a4 SP:f9
f8aa  10 03      BPL $f8af   A:40 X:00 Y:67 P:a4 SP:f9
f8ac  10 01      BPL $f8af   A:40 X:00 Y:67 P:a4 SP:f9
f8ae  60         RTS         A:40 X:00 Y:67 P:a4 SP:f9
d0f6  c8         INY         A:40 X:00 Y:67 P:a4 SP:fb
d0f7  48         PHA         A:40 X:00 Y:68 P:24 SP:fb
d0f8  a9 00      LDA #$00    A:40 X:00 Y:68 P:24 SP:fa
d0fa  8d 00 02   STA $0200   A:00 X:00 Y:68 P:26 SP:fa
d0fd  68         PLA         A:00 X:00 Y:68 P:26 SP:fa
d0fe  20 b2 f8   JSR $f8b2   A:40 X:00 Y:68 P:24 SP:fb
f8b2  a9 80      LDA #$80    A:40 X:00 Y:68 P:24 SP:f9
f8b4  60         RTS         A:80 X:00 Y:68 P:a4 SP:f9
d101  c1 80      CMP ($80,X) A:80 X:00 Y:68 P:a4 SP:fb
d103  20 b5 f8   JSR $f8b5   A:80 X:00 Y:68 P:a5 SP:fb
f8b5  f0 05      BEQ $f8bc   A:80 X:00 Y:68 P:a5 SP:f9
f8b7  10 03      BPL $f8bc   A:80 X:00 Y:68 P:a5 SP:f9
f8b9  90 01      BCC $f8bc   A:80 X:00 Y:68 P:a5 SP:f9
f8bb  60         RTS         A:80 X:00 Y:68 P:a5 SP:f9
d106  c8         INY         A:80 X:00 Y:68 P:a5 SP:fb
d107  48         PHA         A:80 X:00 Y:69 P:25 SP:fb
d108  a9 80      LDA #$80    A:80 X:00 Y:69 P:25 SP:fa
d10a  8d 00 02   STA $0200   A:80 X:00 Y:69 P:a5 SP:fa
d10d  68         PLA         A:80 X:00 Y:69 P:a5 SP:fa
d10e  c1 80      CMP ($80,X) A:80 X:00 Y:69 P:a5 SP:fb
d110  20 bf f8   JSR $f8bf   A:80 X:00 Y:69 P:27 SP:fb
f8bf  d0 05      BNE $f8c6   A:80 X:00 Y:69 P:27 SP:f9
f8c1  30 03      BMI $f8c6   A:80 X:00 Y:69 P:27 SP:f9
f8c3  90 01      BCC $f8c6   A:80 X:00 Y:69 P:27 SP:f9
f8c5  60         RTS         A:80 X:00 Y:69 P:27 SP:f9
d113  c8         INY         A:80 X:00 Y:69 P:27 SP:fb
d114  48         PHA         A:80 X:00 Y:6a P:25 SP:fb
d115  a9 81      LDA #$81    A:80 X:00 Y:6a P:25 SP:fa
d117  8d 00 02   STA $0200   A:81 X:00 Y:6a P:a5 SP:fa
d11a  68         PLA         A:81 X:00 Y:6a P:a5 SP:fa
d11b  c1 80      CMP ($80,X) A:80 X:00 Y:6a P:a5 SP:fb
d11d  20 c9 f8   JSR $f8c9   A:80 X:00 Y:6a P:a4 SP:fb
f8c9  b0 05      BCS $f8d0   A:80 X:00 Y:6a P:a4 SP:f9
f8cb  f0 03      BEQ $f8d0   A:80 X:00 Y:6a P:a4 SP:f9
f8cd  10 01      BPL $f8d0   A:80 X:00 Y:6a P:a4 SP:f9
f8cf  60         RTS         A:80 X:00 Y:6a P:a4 SP:f9
d120  c8         INY         A:80 X:00 Y:6a P:a4 SP:fb
d121  48         PHA         A:80 X:00 Y:6b P:24 SP:fb
d122  a9 7f      LDA #$7f    A:80 X:00 Y:6b P:24 SP:fa
d124  8d 00 02   STA $0200   A:7f X:00 Y:6b P:24 SP:fa
d127  68         PLA         A:7f X:00 Y:6b P:24 SP:fa
d128  c1 80      CMP ($80,X) A:80 X:00 Y:6b P:a4 SP:fb
d12a  20 d3 f8   JSR $f8d3   A:80 X:00 Y:6b P:25 SP:fb
f8d3  90 05      BCC $f8da   A:80 X:00 Y:6b P:25 SP:f9
f8d5  f0 03      BEQ $f8da   A:80 X:00 Y:6b P:25 SP:f9
f8d7  30 01      BMI $f8da   A:80 X:00 Y:6b P:25 SP:f9
f8d9  60         RTS         A:80 X:00 Y:6b P:25 SP:f9
d12d  c8         INY         A:80 X:00 Y:6b P:25 SP:fb
d12e  a9 40      LDA #$40    A:80 X:00 Y:6c P:25 SP:fb
d130  8d 00 02   STA $0200   A:40 X:00 Y:6c P:25 SP:fb
d133  20 31 f9   JSR $f931   A:40 X:00 Y:6c P:25 SP:fb
f931  24 01      BIT $01     A:40 X:00 Y:6c P:25 SP:f9
f933  a9 40      LDA #$40    A:40 X:00 Y:6c P:e5 SP:f9
f935  38         SEC         A:40 X:00 Y:6c P:65 SP:f9
f936  60         RTS         A:40 X:00 Y:6c P:65 SP:f9
d136  e1 80      SBC ($80,X) A:40 X:00 Y:6c P:65 SP:fb
d138  20 37 f9   JSR $f937   A:00 X:00 Y:6c P:27 SP:fb
f937  30 0b      BMI $f944   A:00 X:00 Y:6c P:27 SP:f9
f939  90 09      BCC $f944   A:00 X:00 Y:6c P:27 SP:f9
f93b  d0 07      BNE $f944   A:00 X:00 Y:6c P:27 SP:f9
f93d  70 05      BVS $f944   A:00 X:00 Y:6c P:27 SP:f9
f93f  c9 00      CMP #$00    A:00 X:00 Y:6c P:27 SP:f9
f941  d0 01      BNE $f944   A:00 X:00 Y:6c P:27 SP:f9
f943  60         RTS         A:00 X:00 Y:6c P:27 SP:f9
d13b  c8         INY         A:00 X:00 Y:6c P:27 SP:fb
d13c  a9 3f      LDA #$3f    A:00 X:00 Y:6d P:25 SP:fb
d13e  8d 00 02   STA $0200   A:3f X:00 Y:6d P:25 SP:fb
d141  20 47 f9   JSR $f947   A:3f X:00 Y:6d P:25 SP:fb
f947  b8         CLV         A:3f X:00 Y:6d P:25 SP:f9
f948  38         SEC         A:3f X:00 Y:6d P:25 SP:f9
f949  a9 40      LDA #$40    A:3f X:00 Y:6d P:25 SP:f9
f94b  60         RTS         A:40 X:00 Y:6d P:25 SP:f9
d144  e1 80      SBC ($80,X) A:40 X:00 Y:6d P:25 SP:fb
d146  20 4c f9   JSR $f94c   A:01 X:00 Y:6d P:25 SP:fb
f94c  f0 0b      BEQ $f959   A:01 X:00 Y:6d P:25 SP:f9
f94e  30 09      BMI $f959   A:01 X:00 Y:6d P:25 SP:f9
f950  90 07      BCC $f959   A:01 X:00 Y:6d P:25 SP:f9
f952  70 05      BVS $f959   A:01 X:00 Y:6d P:25 SP:f9
f954  c9 01      CMP #$01    A:01 X:00 Y:6d P:25 SP:f9
f956  d0 01      BNE $f959   A:01 X:00 Y:6d P:27 SP:f9
f958  60         RTS         A:01 X:00 Y:6d P:27 SP:f9
d149  c8         INY         A:01 X:00 Y:6d P:27 SP:fb
d14a  a9 41      LDA #$41    A:01 X:00 Y:6e P:25 SP:fb
d14c  8d 00 02   STA $0200   A:41 X:00 Y:6e P:25 SP:fb
d14f  20 5c f9   JSR $f95c   A:41 X:00 Y:6e P:25 SP:fb
f95c  a9 40      LDA #$40    A:41 X:00 Y:6e P:25 SP:f9
f95e  38         SEC         A:40 X:00 Y:6e P:25 SP:f9
f95f  24 01      BIT $01     A:40 X:00 Y:6e P:25 SP:f9
f961  60         RTS         A:40 X:00 Y:6e P:e5 SP:f9
d152  e1 80      SBC ($80,X) A:40 X:00 Y:6e P:e5 SP:fb
d154  20 62 f9   JSR $f962   A:ff X:00 Y:6e P:a4 SP:fb
f962  b0 0b      BCS $f96f   A:ff X:00 Y:6e P:a4 SP:f9
f964  f0 09      BEQ $f96f   A:ff X:00 Y:6e P:a4 SP:f9
f966  10 07      BPL $f96f   A:ff X:00 Y:6e P:a4 SP:f9
f968  70 05      BVS $f96f   A:ff X:00 Y:6e P:a4 SP:f9
f96a  c9 ff      CMP #$ff    A:ff X:00 Y:6e P:a4 SP:f9
f96c  d0 01      BNE $f96f   A:ff X:00 Y:6e P:27 SP:f9
f96e  60         RTS         A:ff X:00 Y:6e P:27 SP:f9
d157  c8         INY         A:ff X:00 Y:6e P:27 SP:fb
d158  a9 00      LDA #$00    A:ff X:00 Y:6f P:25 SP:fb
d15a  8d 00 02   STA $0200   A:00 X:00 Y:6f P:27 SP:fb
d15d  20 72 f9   JSR $f972   A:00 X:00 Y:6f P:27 SP:fb
f972  18         CLC         A:00 X:00 Y:6f P:27 SP:f9
f973  a9 80      LDA #$80    A:00 X:00 Y:6f P:26 SP:f9
f975  60         RTS         A:80 X:00 Y:6f P:a4 SP:f9
d160  e1 80      SBC ($80,X) A:80 X:00 Y:6f P:a4 SP:fb
d162  20 76 f9   JSR $f976   A:7f X:00 Y:6f P:65 SP:fb
f976  90 05      BCC $f97d   A:7f X:00 Y:6f P:65 SP:f9
f978  c9 7f      CMP #$7f    A:7f X:00 Y:6f P:65 SP:f9
f97a  d0 01      BNE $f97d   A:7f X:00 Y:6f P:67 SP:f9
f97c  60         RTS         A:7f X:00 Y:6f P:67 SP:f9
d165  c8         INY         A:7f X:00 Y:6f P:67 SP:fb
d166  a9 7f      LDA #$7f    A:7f X:00 Y:70 P:65 SP:fb
d168  8d 00 02   STA $0200   A:7f X:00 Y:70 P:65 SP:fb
d16b  20 80 f9   JSR $f980   A:7f X:00 Y:70 P:65 SP:fb
f980  38         SEC         A:7f X:00 Y:70 P:65 SP:f9
f981  a9 81      LDA #$81    A:7f X:00 Y:70 P:65 SP:f9
f983  60         RTS         A:81 X:00 Y:70 P:e5 SP:f9
d16e  e1 80      SBC ($80,X) A:81 X:00 Y:70 P:e5 SP:fb
d170  20 84 f9   JSR $f984   A:02 X:00 Y:70 P:65 SP:fb
f984  50 07      BVC $f98d   A:02 X:00 Y:70 P:65 SP:f9
f986  90 05      BCC $f98d   A:02 X:00 Y:70 P:65 SP:f9
f988  c9 02      CMP #$02    A:02 X:00 Y:70 P:65 SP:f9
f98a  d0 01      BNE $f98d   A:02 X:00 Y:70 P:67 SP:f9
f98c  60         RTS         A:02 X:00 Y:70 P:67 SP:f9
d173  60         RTS         A:02 X:00 Y:70 P:67 SP:fb
c612  20 74 d1   JSR $d174   A:02 X:00 Y:70 P:67 SP:fd
d174  a9 55      LDA #$55    A:02 X:00 Y:70 P:67 SP:fb
d176  85 78      STA $78     A:55 X:00 Y:70 P:65 SP:fb
d178  a9 ff      LDA #$ff    A:55 X:00 Y:70 P:65 SP:fb
d17a  85 01      STA $01     A:ff X:00 Y:70 P:e5 SP:fb
d17c  24 01      BIT $01     A:ff X:00 Y:70 P:e5 SP:fb
d17e  a0 11      LDY #$11    A:ff X:00 Y:70 P:e5 SP:fb
d180  a2 23      LDX #$23    A:ff X:00 Y:11 P:65 SP:fb
d182  a9 00      LDA #$00    A:ff X:23 Y:11 P:65 SP:fb
d184  a5 78      LDA $78     A:00 X:23 Y:11 P:67 SP:fb
d186  f0 10      BEQ $d198   A:55 X:23 Y:11 P:65 SP:fb
d188  30 0e      BMI $d198   A:55 X:23 Y:11 P:65 SP:fb
d18a  c9 55      CMP #$55    A:55 X:23 Y:11 P:65 SP:fb
d18c  d0 0a      BNE $d198   A:55 X:23 Y:11 P:67 SP:fb
d18e  c0 11      CPY #$11    A:55 X:23 Y:11 P:67 SP:fb
d190  d0 06      BNE $d198   A:55 X:23 Y:11 P:67 SP:fb
d192  e0 23      CPX #$23    A:55 X:23 Y:11 P:67 SP:fb
d194  50 02      BVC $d198   A:55 X:23 Y:11 P:67 SP:fb
d196  f0 04      BEQ $d19c   A:55 X:23 Y:11 P:67 SP:fb
d19c  a9 46      LDA #$46    A:55 X:23 Y:11 P:67 SP:fb
d19e  24 01      BIT $01     A:46 X:23 Y:11 P:65 SP:fb
d1a0  85 78      STA $78     A:46 X:23 Y:11 P:e5 SP:fb
d1a2  f0 0a      BEQ $d1ae   A:46 X:23 Y:11 P:e5 SP:fb
d1a4  10 08      BPL $d1ae   A:46 X:23 Y:11 P:e5 SP:fb
d1a6  50 06      BVC $d1ae   A:46 X:23 Y:11 P:e5 SP:fb
d1a8  a5 78      LDA $78     A:46 X:23 Y:11 P:e5 SP:fb
d1aa  c9 46      CMP #$46    A:46 X:23 Y:11 P:65 SP:fb
d1ac  f0 04      BEQ $d1b2   A:46 X:23 Y:11 P:67 SP:fb
d1b2  a9 55      LDA #$55    A:46 X:23 Y:11 P:67 SP:fb
d1b4  85 78      STA $78     A:55 X:23 Y:11 P:65 SP:fb
d1b6  24 01      BIT $01     A:55 X:23 Y:11 P:65 SP:fb
d1b8  a9 11      LDA #$11    A:55 X:23 Y:11 P:e5 SP:fb
d1ba  a2 23      LDX #$23    A:11 X:23 Y:11 P:65 SP:fb
d1bc  a0 00      LDY #$00    A:11 X:23 Y:11 P:65 SP:fb
d1be  a4 78      LDY $78     A:11 X:23 Y:00 P:67 SP:fb
d1c0  f0 10      BEQ $d1d2   A:11 X:23 Y:55 P:65 SP:fb
d1c2  30 0e      BMI $d1d2   A:11 X:23 Y:55 P:65 SP:fb
d1c4  c0 55      CPY #$55    A:11 X:23 Y:55 P:65 SP:fb
d1c6  d0 0a      BNE $d1d2   A:11 X:23 Y:55 P:67 SP:fb
d1c8  c9 11      CMP #$11    A:11 X:23 Y:55 P:67 SP:fb
d1ca  d0 06      BNE $d1d2   A:11 X:23 Y:55 P:67 SP:fb
d1cc  e0 23      CPX #$23    A:11 X:23 Y:55 P:67 SP:fb
d1ce  50 02      BVC $d1d2   A:11 X:23 Y:55 P:67 SP:fb
d1d0  f0 04      BEQ $d1d6   A:11 X:23 Y:55 P:67 SP:fb
d1d6  a0 46      LDY #$46    A:11 X:23 Y:55 P:67 SP:fb
d1d8  24 01      BIT $01     A:11 X:23 Y:46 P:65 SP:fb
d1da  84 78      STY $78     A:11 X:23 Y:46 P:e5 SP:fb
d1dc  f0 0a      BEQ $d1e8   A:11 X:23 Y:46 P:e5 SP:fb
d1de  10 08      BPL $d1e8   A:11 X:23 Y:46 P:e5 SP:fb
d1e0  50 06      BVC $d1e8   A:11 X:23 Y:46 P:e5 SP:fb
d1e2  a4 78      LDY $78     A:11 X:23 Y:46 P:e5 SP:fb
d1e4  c0 46      CPY #$46    A:11 X:23 Y:46 P:65 SP:fb
d1e6  f0 04      BEQ $d1ec   A:11 X:23 Y:46 P:67 SP:fb
d1ec  24 01      BIT $01     A:11 X:23 Y:46 P:67 SP:fb
d1ee  a9 55      LDA #$55    A:11 X:23 Y:46 P:e5 SP:fb
d1f0  85 78      STA $78     A:55 X:23 Y:46 P:65 SP:fb
d1f2  a0 11      LDY #$11    A:55 X:23 Y:46 P:65 SP:fb
d1f4  a9 23      LDA #$23    A:55 X:23 Y:11 P:65 SP:fb
d1f6  a2 00      LDX #$00    A:23 X:23 Y:11 P:65 SP:fb
d1f8  a6 78      LDX $78     A:23 X:00 Y:11 P:67 SP:fb
d1fa  f0 10      BEQ $d20c   A:23 X:55 Y:11 P:65 SP:fb
d1fc  30 0e      BMI $d20c   A:23 X:55 Y:11 P:65 SP:fb
d1fe  e0 55      CPX #$55    A:23 X:55 Y:11 P:65 SP:fb
d200  d0 0a      BNE $d20c   A:23 X:55 Y:11 P:67 SP:fb
d202  c0 11      CPY #$11    A:23 X:55 Y:11 P:67 SP:fb
d204  d0 06      BNE $d20c   A:23 X:55 Y:11 P:67 SP:fb
d206  c9 23      CMP #$23    A:23 X:55 Y:11 P:67 SP:fb
d208  50 02      BVC $d20c   A:23 X:55 Y:11 P:67 SP:fb
d20a  f0 04      BEQ $d210   A:23 X:55 Y:11 P:67 SP:fb
d210  a2 46      LDX #$46    A:23 X:55 Y:11 P:67 SP:fb
d212  24 01      BIT $01     A:23 X:46 Y:11 P:65 SP:fb
d214  86 78      STX $78     A:23 X:46 Y:11 P:e5 SP:fb
d216  f0 0a      BEQ $d222   A:23 X:46 Y:11 P:e5 SP:fb
d218  10 08      BPL $d222   A:23 X:46 Y:11 P:e5 SP:fb
d21a  50 06      BVC $d222   A:23 X:46 Y:11 P:e5 SP:fb
d21c  a6 78      LDX $78     A:23 X:46 Y:11 P:e5 SP:fb
d21e  e0 46      CPX #$46    A:23 X:46 Y:11 P:65 SP:fb
d220  f0 04      BEQ $d226   A:23 X:46 Y:11 P:67 SP:fb
d226  a9 c0      LDA #$c0    A:23 X:46 Y:11 P:67 SP:fb
d228  85 78      STA $78     A:c0 X:46 Y:11 P:e5 SP:fb
d22a  a2 33      LDX #$33    A:c0 X:46 Y:11 P:e5 SP:fb
d22c  a0 88      LDY #$88    A:c0 X:33 Y:11 P:65 SP:fb
d22e  a9 05      LDA #$05    A:c0 X:33 Y:88 P:e5 SP:fb
d230  24 78      BIT $78     A:05 X:33 Y:88 P:65 SP:fb
d232  10 10      BPL $d244   A:05 X:33 Y:88 P:e7 SP:fb
d234  50 0e      BVC $d244   A:05 X:33 Y:88 P:e7 SP:fb
d236  d0 0c      BNE $d244   A:05 X:33 Y:88 P:e7 SP:fb
d238  c9 05      CMP #$05    A:05 X:33 Y:88 P:e7 SP:fb
d23a  d0 08      BNE $d244   A:05 X:33 Y:88 P:67 SP:fb
d23c  e0 33      CPX #$33    A:05 X:33 Y:88 P:67 SP:fb
d23e  d0 04      BNE $d244   A:05 X:33 Y:88 P:67 SP:fb
d240  c0 88      CPY #$88    A:05 X:33 Y:88 P:67 SP:fb
d242  f0 04      BEQ $d248   A:05 X:33 Y:88 P:67 SP:fb
d248  a9 03      LDA #$03    A:05 X:33 Y:88 P:67 SP:fb
d24a  85 78      STA $78     A:03 X:33 Y:88 P:65 SP:fb
d24c  a9 01      LDA #$01    A:03 X:33 Y:88 P:65 SP:fb
d24e  24 78      BIT $78     A:01 X:33 Y:88 P:65 SP:fb
d250  30 08      BMI $d25a   A:01 X:33 Y:88 P:25 SP:fb
d252  70 06      BVS $d25a   A:01 X:33 Y:88 P:25 SP:fb
d254  f0 04      BEQ $d25a   A:01 X:33 Y:88 P:25 SP:fb
d256  c9 01      CMP #$01    A:01 X:33 Y:88 P:25 SP:fb
d258  f0 04      BEQ $d25e   A:01 X:33 Y:88 P:27 SP:fb
d25e  a0 7e      LDY #$7e    A:01 X:33 Y:88 P:27 SP:fb
d260  a9 aa      LDA #$aa    A:01 X:33 Y:7e P:25 SP:fb
d262  85 78      STA $78     A:aa X:33 Y:7e P:a5 SP:fb
d264  20 b6 f7   JSR $f7b6   A:aa X:33 Y:7e P:a5 SP:fb
f7b6  18         CLC         A:aa X:33 Y:7e P:a5 SP:f9
f7b7  a9 ff      LDA #$ff    A:aa X:33 Y:7e P:a4 SP:f9
f7b9  85 01      STA $01     A:ff X:33 Y:7e P:a4 SP:f9
f7bb  24 01      BIT $01     A:ff X:33 Y:7e P:a4 SP:f9
f7bd  a9 55      LDA #$55    A:ff X:33 Y:7e P:e4 SP:f9
f7bf  60         RTS         A:55 X:33 Y:7e P:64 SP:f9
d267  05 78      ORA $78     A:55 X:33 Y:7e P:64 SP:fb
d269  20 c0 f7   JSR $f7c0   A:ff X:33 Y:7e P:e4 SP:fb
f7c0  b0 09      BCS $f7cb   A:ff X:33 Y:7e P:e4 SP:f9
f7c2  10 07      BPL $f7cb   A:ff X:33 Y:7e P:e4 SP:f9
f7c4  c9 ff      CMP #$ff    A:ff X:33 Y:7e P:e4 SP:f9
f7c6  d0 03      BNE $f7cb   A:ff X:33 Y:7e P:67 SP:f9
f7c8  50 01      BVC $f7cb   A:ff X:33 Y:7e P:67 SP:f9
f7ca  60         RTS         A:ff X:33 Y:7e P:67 SP:f9
d26c  c8         INY         A:ff X:33 Y:7e P:67 SP:fb
d26d  a9 00      LDA #$00    A:ff X:33 Y:7f P:65 SP:fb
d26f  85 78      STA $78     A:00 X:33 Y:7f P:67 SP:fb
d271  20 ce f7   JSR $f7ce   A:00 X:33 Y:7f P:67 SP:fb
f7ce  38         SEC         A:00 X:33 Y:7f P:67 SP:f9
f7cf  b8         CLV         A:00 X:33 Y:7f P:67 SP:f9
f7d0  a9 00      LDA #$00    A:00 X:33 Y:7f P:27 SP:f9
f7d2  60         RTS         A:00 X:33 Y:7f P:27 SP:f9
d274  05 78      ORA $78     A:00 X:33 Y:7f P:27 SP:fb
d276  20 d3 f7   JSR $f7d3   A:00 X:33 Y:7f P:27 SP:fb
f7d3  d0 07      BNE $f7dc   A:00 X:33 Y:7f P:27 SP:f9
f7d5  70 05      BVS $f7dc   A:00 X:33 Y:7f P:27 SP:f9
f7d7  90 03      BCC $f7dc   A:00 X:33 Y:7f P:27 SP:f9
f7d9  30 01      BMI $f7dc   A:00 X:33 Y:7f P:27 SP:f9
f7db  60         RTS         A:00 X:33 Y:7f P:27 SP:f9
d279  c8         INY         A:00 X:33 Y:7f P:27 SP:fb
d27a  a9 aa      LDA #$aa    A:00 X:33 Y:80 P:a5 SP:fb
d27c  85 78      STA $78     A:aa X:33 Y:80 P:a5 SP:fb
d27e  20 df f7   JSR $f7df   A:aa X:33 Y:80 P:a5 SP:fb
f7df  18         CLC         A:aa X:33 Y:80 P:a5 SP:f9
f7e0  24 01      BIT $01     A:aa X:33 Y:80 P:a4 SP:f9
f7e2  a9 55      LDA #$55    A:aa X:33 Y:80 P:e4 SP:f9
f7e4  60         RTS         A:55 X:33 Y:80 P:64 SP:f9
d281  25 78      AND $78     A:55 X:33 Y:80 P:64 SP:fb
d283  20 e5 f7   JSR $f7e5   A:00 X:33 Y:80 P:66 SP:fb
f7e5  d0 07      BNE $f7ee   A:00 X:33 Y:80 P:66 SP:f9
f7e7  50 05      BVC $f7ee   A:00 X:33 Y:80 P:66 SP:f9
f7e9  b0 03      BCS $f7ee   A:00 X:33 Y:80 P:66 SP:f9
f7eb  30 01      BMI $f7ee   A:00 X:33 Y:80 P:66 SP:f9
f7ed  60         RTS         A:00 X:33 Y:80 P:66 SP:f9
d286  c8         INY         A:00 X:33 Y:80 P:66 SP:fb
d287  a9 ef      LDA #$ef    A:00 X:33 Y:81 P:e4 SP:fb
d289  85 78      STA $78     A:ef X:33 Y:81 P:e4 SP:fb
d28b  20 f1 f7   JSR $f7f1   A:ef X:33 Y:81 P:e4 SP:fb
f7f1  38         SEC         A:ef X:33 Y:81 P:e4 SP:f9
f7f2  b8         CLV         A:ef X:33 Y:81 P:e5 SP:f9
f7f3  a9 f8      LDA #$f8    A:ef X:33 Y:81 P:a5 SP:f9
f7f5  60         RTS         A:f8 X:33 Y:81 P:a5 SP:f9
d28e  25 78      AND $78     A:f8 X:33 Y:81 P:a5 SP:fb
d290  20 f6 f7   JSR $f7f6   A:e8 X:33 Y:81 P:a5 SP:fb
f7f6  90 09      BCC $f801   A:e8 X:33 Y:81 P:a5 SP:f9
f7f8  10 07      BPL $f801   A:e8 X:33 Y:81 P:a5 SP:f9
f7fa  c9 e8      CMP #$e8    A:e8 X:33 Y:81 P:a5 SP:f9
f7fc  d0 03      BNE $f801   A:e8 X:33 Y:81 P:27 SP:f9
f7fe  70 01      BVS $f801   A:e8 X:33 Y:81 P:27 SP:f9
f800  60         RTS         A:e8 X:33 Y:81 P:27 SP:f9
d293  c8         INY         A:e8 X:33 Y:81 P:27 SP:fb
d294  a9 aa      LDA #$aa    A:e8 X:33 Y:82 P:a5 SP:fb
d296  85 78      STA $78     A:aa X:33 Y:82 P:a5 SP:fb
d298  20 04 f8   JSR $f804   A:aa X:33 Y:82 P:a5 SP:fb
f804  18         CLC         A:aa X:33 Y:82 P:a5 SP:f9
f805  24 01      BIT $01     A:aa X:33 Y:82 P:a4 SP:f9
f807  a9 5f      LDA #$5f    A:aa X:33 Y:82 P:e4 SP:f9
f809  60         RTS         A:5f X:33 Y:82 P:64 SP:f9
d29b  45 78      EOR $78     A:5f X:33 Y:82 P:64 SP:fb
d29d  20 0a f8   JSR $f80a   A:f5 X:33 Y:82 P:e4 SP:fb
f80a  b0 09      BCS $f815   A:f5 X:33 Y:82 P:e4 SP:f9
f80c  10 07      BPL $f815   A:f5 X:33 Y:82 P:e4 SP:f9
f80e  c9 f5      CMP #$f5    A:f5 X:33 Y:82 P:e4 SP:f9
f810  d0 03      BNE $f815   A:f5 X:33 Y:82 P:67 SP:f9
f812  50 01      BVC $f815   A:f5 X:33 Y:82 P:67 SP:f9
f814  60         RTS         A:f5 X:33 Y:82 P:67 SP:f9
d2a0  c8         INY         A:f5 X:33 Y:82 P:67 SP:fb
d2a1  a9 70      LDA #$70    A:f5 X:33 Y:83 P:e5 SP:fb
d2a3  85 78      STA $78     A:70 X:33 Y:83 P:65 SP:fb
d2a5  20 18 f8   JSR $f818   A:70 X:33 Y:83 P:65 SP:fb
f818  38         SEC         A:70 X:33 Y:83 P:65 SP:f9
f819  b8         CLV         A:70 X:33 Y:83 P:65 SP:f9
f81a  a9 70      LDA #$70    A:70 X:33 Y:83 P:25 SP:f9
f81c  60         RTS         A:70 X:33 Y:83 P:25 SP:f9
d2a8  45 78      EOR $78     A:70 X:33 Y:83 P:25 SP:fb
d2aa  20 1d f8   JSR $f81d   A:00 X:33 Y:83 P:27 SP:fb
f81d  d0 07      BNE $f826   A:00 X:33 Y:83 P:27 SP:f9
f81f  70 05      BVS $f826   A:00 X:33 Y:83 P:27 SP:f9
f821  90 03      BCC $f826   A:00 X:33 Y:83 P:27 SP:f9
f823  30 01      BMI $f826   A:00 X:33 Y:83 P:27 SP:f9
f825  60         RTS         A:00 X:33 Y:83 P:27 SP:f9
d2ad  c8         INY         A:00 X:33 Y:83 P:27 SP:fb
d2ae  a9 69      LDA #$69    A:00 X:33 Y:84 P:a5 SP:fb
d2b0  85 78      STA $78     A:69 X:33 Y:84 P:25 SP:fb
d2b2  20 29 f8   JSR $f829   A:69 X:33 Y:84 P:25 SP:fb
f829  18         CLC         A:69 X:33 Y:84 P:25 SP:f9
f82a  24 01      BIT $01     A:69 X:33 Y:84 P:24 SP:f9
f82c  a9 00      LDA #$00    A:69 X:33 Y:84 P:e4 SP:f9
f82e  60         RTS         A:00 X:33 Y:84 P:66 SP:f9
d2b5  65 78      ADC $78     A:00 X:33 Y:84 P:66 SP:fb
d2b7  20 2f f8   JSR $f82f   A:69 X:33 Y:84 P:24 SP:fb
f82f  30 09      BMI $f83a   A:69 X:33 Y:84 P:24 SP:f9
f831  b0 07      BCS $f83a   A:69 X:33 Y:84 P:24 SP:f9
f833  c9 69      CMP #$69    A:69 X:33 Y:84 P:24 SP:f9
f835  d0 03      BNE $f83a   A:69 X:33 Y:84 P:27 SP:f9
f837  70 01      BVS $f83a   A:69 X:33 Y:84 P:27 SP:f9
f839  60         RTS         A:69 X:33 Y:84 P:27 SP:f9
d2ba  c8         INY         A:69 X:33 Y:84 P:27 SP:fb
d2bb  20 3d f8   JSR $f83d   A:69 X:33 Y:85 P:a5 SP:fb
f83d  38         SEC         A:69 X:33 Y:85 P:a5 SP:f9
f83e  24 01      BIT $01     A:69 X:33 Y:85 P:a5 SP:f9
f840  a9 00      LDA #$00    A:69 X:33 Y:85 P:e5 SP:f9
f842  60         RTS         A:00 X:33 Y:85 P:67 SP:f9
d2be  65 78      ADC $78     A:00 X:33 Y:85 P:67 SP:fb
d2c0  20 43 f8   JSR $f843   A:6a X:33 Y:85 P:24 SP:fb
f843  30 09      BMI $f84e   A:6a X:33 Y:85 P:24 SP:f9
f845  b0 07      BCS $f84e   A:6a X:33 Y:85 P:24 SP:f9
f847  c9 6a      CMP #$6a    A:6a X:33 Y:85 P:24 SP:f9
f849  d0 03      BNE $f84e   A:6a X:33 Y:85 P:27 SP:f9
f84b  70 01      BVS $f84e   A:6a X:33 Y:85 P:27 SP:f9
f84d  60         RTS         A:6a X:33 Y:85 P:27 SP:f9
d2c3  c8         INY         A:6a X:33 Y:85 P:27 SP:fb
d2c4  a9 7f      LDA #$7f    A:6a X:33 Y:86 P:a5 SP:fb
d2c6  85 78      STA $78     A:7f X:33 Y:86 P:25 SP:fb
d2c8  20 51 f8   JSR $f851   A:7f X:33 Y:86 P:25 SP:fb
f851  38         SEC         A:7f X:33 Y:86 P:25 SP:f9
f852  b8         CLV         A:7f X:33 Y:86 P:25 SP:f9
f853  a9 7f      LDA #$7f    A:7f X:33 Y:86 P:25 SP:f9
f855  60         RTS         A:7f X:33 Y:86 P:25 SP:f9
d2cb  65 78      ADC $78     A:7f X:33 Y:86 P:25 SP:fb
d2cd  20 56 f8   JSR $f856   A:ff X:33 Y:86 P:e4 SP:fb
f856  10 09      BPL $f861   A:ff X:33 Y:86 P:e4 SP:f9
f858  b0 07      BCS $f861   A:ff X:33 Y:86 P:e4 SP:f9
f85a  c9 ff      CMP #$ff    A:ff X:33 Y:86 P:e4 SP:f9
f85c  d0 03      BNE $f861   A:ff X:33 Y:86 P:67 SP:f9
f85e  50 01      BVC $f861   A:ff X:33 Y:86 P:67 SP:f9
f860  60         RTS         A:ff X:33 Y:86 P:67 SP:f9
d2d0  c8         INY         A:ff X:33 Y:86 P:67 SP:fb
d2d1  a9 80      LDA #$80    A:ff X:33 Y:87 P:e5 SP:fb
d2d3  85 78      STA $78     A:80 X:33 Y:87 P:e5 SP:fb
d2d5  20 64 f8   JSR $f864   A:80 X:33 Y:87 P:e5 SP:fb
f864  18         CLC         A:80 X:33 Y:87 P:e5 SP:f9
f865  24 01      BIT $01     A:80 X:33 Y:87 P:e4 SP:f9
f867  a9 7f      LDA #$7f    A:80 X:33 Y:87 P:e4 SP:f9
f869  60         RTS         A:7f X:33 Y:87 P:64 SP:f9
d2d8  65 78      ADC $78     A:7f X:33 Y:87 P:64 SP:fb
d2da  20 6a f8   JSR $f86a   A:ff X:33 Y:87 P:a4 SP:fb
f86a  10 09      BPL $f875   A:ff X:33 Y:87 P:a4 SP:f9
f86c  b0 07      BCS $f875   A:ff X:33 Y:87 P:a4 SP:f9
f86e  c9 ff      CMP #$ff    A:ff X:33 Y:87 P:a4 SP:f9
f870  d0 03      BNE $f875   A:ff X:33 Y:87 P:27 SP:f9
f872  70 01      BVS $f875   A:ff X:33 Y:87 P:27 SP:f9
f874  60         RTS         A:ff X:33 Y:87 P:27 SP:f9
d2dd  c8         INY         A:ff X:33 Y:87 P:27 SP:fb
d2de  20 78 f8   JSR $f878   A:ff X:33 Y:88 P:a5 SP:fb
f878  38         SEC         A:ff X:33 Y:88 P:a5 SP:f9
f879  b8         CLV         A:ff X:33 Y:88 P:a5 SP:f9
f87a  a9 7f      LDA #$7f    A:ff X:33 Y:88 P:a5 SP:f9
f87c  60         RTS         A:7f X:33 Y:88 P:25 SP:f9
d2e1  65 78      ADC $78     A:7f X:33 Y:88 P:25 SP:fb
d2e3  20 7d f8   JSR $f87d   A:00 X:33 Y:88 P:27 SP:fb
f87d  d0 07      BNE $f886   A:00 X:33 Y:88 P:27 SP:f9
f87f  30 05      BMI $f886   A:00 X:33 Y:88 P:27 SP:f9
f881  70 03      BVS $f886   A:00 X:33 Y:88 P:27 SP:f9
f883  90 01      BCC $f886   A:00 X:33 Y:88 P:27 SP:f9
f885  60         RTS         A:00 X:33 Y:88 P:27 SP:f9
d2e6  c8         INY         A:00 X:33 Y:88 P:27 SP:fb
d2e7  a9 40      LDA #$40    A:00 X:33 Y:89 P:a5 SP:fb
d2e9  85 78      STA $78     A:40 X:33 Y:89 P:25 SP:fb
d2eb  20 89 f8   JSR $f889   A:40 X:33 Y:89 P:25 SP:fb
f889  24 01      BIT $01     A:40 X:33 Y:89 P:25 SP:f9
f88b  a9 40      LDA #$40    A:40 X:33 Y:89 P:e5 SP:f9
f88d  60         RTS         A:40 X:33 Y:89 P:65 SP:f9
d2ee  c5 78      CMP $78     A:40 X:33 Y:89 P:65 SP:fb
d2f0  20 8e f8   JSR $f88e   A:40 X:33 Y:89 P:67 SP:fb
f88e  30 07      BMI $f897   A:40 X:33 Y:89 P:67 SP:f9
f890  90 05      BCC $f897   A:40 X:33 Y:89 P:67 SP:f9
f892  d0 03      BNE $f897   A:40 X:33 Y:89 P:67 SP:f9
f894  50 01      BVC $f897   A:40 X:33 Y:89 P:67 SP:f9
f896  60         RTS         A:40 X:33 Y:89 P:67 SP:f9
d2f3  c8         INY         A:40 X:33 Y:89 P:67 SP:fb
d2f4  48         PHA         A:40 X:33 Y:8a P:e5 SP:fb
d2f5  a9 3f      LDA #$3f    A:40 X:33 Y:8a P:e5 SP:fa
d2f7  85 78      STA $78     A:3f X:33 Y:8a P:65 SP:fa
d2f9  68         PLA         A:3f X:33 Y:8a P:65 SP:fa
d2fa  20 9a f8   JSR $f89a   A:40 X:33 Y:8a P:65 SP:fb
f89a  b8         CLV         A:40 X:33 Y:8a P:65 SP:f9
f89b  60         RTS         A:40 X:33 Y:8a P:25 SP:f9
d2fd  c5 78      CMP $78     A:40 X:33 Y:8a P:25 SP:fb
d2ff  20 9c f8   JSR $f89c   A:40 X:33 Y:8a P:25 SP:fb
f89c  f0 07      BEQ $f8a5   A:40 X:33 Y:8a P:25 SP:f9
f89e  30 05      BMI $f8a5   A:40 X:33 Y:8a P:25 SP:f9
f8a0  90 03      BCC $f8a5   A:40 X:33 Y:8a P:25 SP:f9
f8a2  70 01      BVS $f8a5   A:40 X:33 Y:8a P:25 SP:f9
f8a4  60         RTS         A:40 X:33 Y:8a P:25 SP:f9
d302  c8         INY         A:40 X:33 Y:8a P:25 SP:fb
d303  48         PHA         A:40 X:33 Y:8b P:a5 SP:fb
d304  a9 41      LDA #$41    A:40 X:33 Y:8b P:a5 SP:fa
d306  85 78      STA $78     A:41 X:33 Y:8b P:25 SP:fa
d308  68         PLA         A:41 X:33 Y:8b P:25 SP:fa
d309  c5 78      CMP $78     A:40 X:33 Y:8b P:25 SP:fb
d30b  20 a8 f8   JSR $f8a8   A:40 X:33 Y:8b P:a4 SP:fb
f8a8  f0 05      BEQ $f8af   A:40 X:33 Y:8b P:a4 SP:f9
f8aa  10 03      BPL $f8af   A:40 X:33 Y:8b P:a4 SP:f9
f8ac  10 01      BPL $f8af   A:40 X:33 Y:8b P:a4 SP:f9
f8ae  60         RTS         A:40 X:33 Y:8b P:a4 SP:f9
d30e  c8         INY         A:40 X:33 Y:8b P:a4 SP:fb
d30f  48         PHA         A:40 X:33 Y:8c P:a4 SP:fb
d310  a9 00      LDA #$00    A:40 X:33 Y:8c P:a4 SP:fa
d312  85 78      STA $78     A:00 X:33 Y:8c P:26 SP:fa
d314  68         PLA         A:00 X:33 Y:8c P:26 SP:fa
d315  20 b2 f8   JSR $f8b2   A:40 X:33 Y:8c P:24 SP:fb
f8b2  a9 80      LDA #$80    A:40 X:33 Y:8c P:24 SP:f9
f8b4  60         RTS         A:80 X:33 Y:8c P:a4 SP:f9
d318  c5 78      CMP $78     A:80 X:33 Y:8c P:a4 SP:fb
d31a  20 b5 f8   JSR $f8b5   A:80 X:33 Y:8c P:a5 SP:fb
f8b5  f0 05      BEQ $f8bc   A:80 X:33 Y:8c P:a5 SP:f9
f8b7  10 03      BPL $f8bc   A:80 X:33 Y:8c P:a5 SP:f9
f8b9  90 01      BCC $f8bc   A:80 X:33 Y:8c P:a5 SP:f9
f8bb  60         RTS         A:80 X:33 Y:8c P:a5 SP:f9
d31d  c8         INY         A:80 X:33 Y:8c P:a5 SP:fb
d31e  48         PHA         A:80 X:33 Y:8d P:a5 SP:fb
d31f  a9 80      LDA #$80    A:80 X:33 Y:8d P:a5 SP:fa
d321  85 78      STA $78     A:80 X:33 Y:8d P:a5 SP:fa
d323  68         PLA         A:80 X:33 Y:8d P:a5 SP:fa
d324  c5 78      CMP $78     A:80 X:33 Y:8d P:a5 SP:fb
d326  20 bf f8   JSR $f8bf   A:80 X:33 Y:8d P:27 SP:fb
f8bf  d0 05      BNE $f8c6   A:80 X:33 Y:8d P:27 SP:f9
f8c1  30 03      BMI $f8c6   A:80 X:33 Y:8d P:27 SP:f9
f8c3  90 01      BCC $f8c6   A:80 X:33 Y:8d P:27 SP:f9
f8c5  60         RTS         A:80 X:33 Y:8d P:27 SP:f9
d329  c8         INY         A:80 X:33 Y:8d P:27 SP:fb
d32a  48         PHA         A:80 X:33 Y:8e P:a5 SP:fb
d32b  a9 81      LDA #$81    A:80 X:33 Y:8e P:a5 SP:fa
d32d  85 78      STA $78     A:81 X:33 Y:8e P:a5 SP:fa
d32f  68         PLA         A:81 X:33 Y:8e P:a5 SP:fa
d330  c5 78      CMP $78     A:80 X:33 Y:8e P:a5 SP:fb
d332  20 c9 f8   JSR $f8c9   A:80 X:33 Y:8e P:a4 SP:fb
f8c9  b0 05      BCS $f8d0   A:80 X:33 Y:8e P:a4 SP:f9
f8cb  f0 03      BEQ $f8d0   A:80 X:33 Y:8e P:a4 SP:f9
f8cd  10 01      BPL $f8d0   A:80 X:33 Y:8e P:a4 SP:f9
f8cf  60         RTS         A:80 X:33 Y:8e P:a4 SP:f9
d335  c8         INY         A:80 X:33 Y:8e P:a4 SP:fb
d336  48         PHA         A:80 X:33 Y:8f P:a4 SP:fb
d337  a9 7f      LDA #$7f    A:80 X:33 Y:8f P:a4 SP:fa
d339  85 78      STA $78     A:7f X:33 Y:8f P:24 SP:fa
d33b  68         PLA         A:7f X:33 Y:8f P:24 SP:fa
d33c  c5 78      CMP $78     A:80 X:33 Y:8f P:a4 SP:fb
d33e  20 d3 f8   JSR $f8d3   A:80 X:33 Y:8f P:25 SP:fb
f8d3  90 05      BCC $f8da   A:80 X:33 Y:8f P:25 SP:f9
f8d5  f0 03      BEQ $f8da   A:80 X:33 Y:8f P:25 SP:f9
f8d7  30 01      BMI $f8da   A:80 X:33 Y:8f P:25 SP:f9
f8d9  60         RTS         A:80 X:33 Y:8f P:25 SP:f9
d341  c8         INY         A:80 X:33 Y:8f P:25 SP:fb
d342  a9 40      LDA #$40    A:80 X:33 Y:90 P:a5 SP:fb
d344  85 78      STA $78     A:40 X:33 Y:90 P:25 SP:fb
d346  20 31 f9   JSR $f931   A:40 X:33 Y:90 P:25 SP:fb
f931  24 01      BIT $01     A:40 X:33 Y:90 P:25 SP:f9
f933  a9 40      LDA #$40    A:40 X:33 Y:90 P:e5 SP:f9
f935  38         SEC         A:40 X:33 Y:90 P:65 SP:f9
f936  60         RTS         A:40 X:33 Y:90 P:65 SP:f9
d349  e5 78      SBC $78     A:40 X:33 Y:90 P:65 SP:fb
d34b  20 37 f9   JSR $f937   A:00 X:33 Y:90 P:27 SP:fb
f937  30 0b      BMI $f944   A:00 X:33 Y:90 P:27 SP:f9
f939  90 09      BCC $f944   A:00 X:33 Y:90 P:27 SP:f9
f93b  d0 07      BNE $f944   A:00 X:33 Y:90 P:27 SP:f9
f93d  70 05      BVS $f944   A:00 X:33 Y:90 P:27 SP:f9
f93f  c9 00      CMP #$00    A:00 X:33 Y:90 P:27 SP:f9
f941  d0 01      BNE $f944   A:00 X:33 Y:90 P:27 SP:f9
f943  60         RTS         A:00 X:33 Y:90 P:27 SP:f9
d34e  c8         INY         A:00 X:33 Y:90 P:27 SP:fb
d34f  a9 3f      LDA #$3f    A:00 X:33 Y:91 P:a5 SP:fb
d351  85 78      STA $78     A:3f X:33 Y:91 P:25 SP:fb
d353  20 47 f9   JSR $f947   A:3f X:33 Y:91 P:25 SP:fb
f947  b8         CLV         A:3f X:33 Y:91 P:25 SP:f9
f948  38         SEC         A:3f X:33 Y:91 P:25 SP:f9
f949  a9 40      LDA #$40    A:3f X:33 Y:91 P:25 SP:f9
f94b  60         RTS         A:40 X:33 Y:91 P:25 SP:f9
d356  e5 78      SBC $78     A:40 X:33 Y:91 P:25 SP:fb
d358  20 4c f9   JSR $f94c   A:01 X:33 Y:91 P:25 SP:fb
f94c  f0 0b      BEQ $f959   A:01 X:33 Y:91 P:25 SP:f9
f94e  30 09      BMI $f959   A:01 X:33 Y:91 P:25 SP:f9
f950  90 07      BCC $f959   A:01 X:33 Y:91 P:25 SP:f9
f952  70 05      BVS $f959   A:01 X:33 Y:91 P:25 SP:f9
f954  c9 01      CMP #$01    A:01 X:33 Y:91 P:25 SP:f9
f956  d0 01      BNE $f959   A:01 X:33 Y:91 P:27 SP:f9
f958  60         RTS         A:01 X:33 Y:91 P:27 SP:f9
d35b  c8         INY         A:01 X:33 Y:91 P:27 SP:fb
d35c  a9 41      LDA #$41    A:01 X:33 Y:92 P:a5 SP:fb
d35e  85 78      STA $78     A:41 X:33 Y:92 P:25 SP:fb
d360  20 5c f9   JSR $f95c   A:41 X:33 Y:92 P:25 SP:fb
f95c  a9 40      LDA #$40    A:41 X:33 Y:92 P:25 SP:f9
f95e  38         SEC         A:40 X:33 Y:92 P:25 SP:f9
f95f  24 01      BIT $01     A:40 X:33 Y:92 P:25 SP:f9
f961  60         RTS         A:40 X:33 Y:92 P:e5 SP:f9
d363  e5 78      SBC $78     A:40 X:33 Y:92 P:e5 SP:fb
d365  20 62 f9   JSR $f962   A:ff X:33 Y:92 P:a4 SP:fb
f962  b0 0b      BCS $f96f   A:ff X:33 Y:92 P:a4 SP:f9
f964  f0 09      BEQ $f96f   A:ff X:33 Y:92 P:a4 SP:f9
f966  10 07      BPL $f96f   A:ff X:33 Y:92 P:a4 SP:f9
f968  70 05      BVS $f96f   A:ff X:33 Y:92 P:a4 SP:f9
f96a  c9 ff      CMP #$ff    A:ff X:33 Y:92 P:a4 SP:f9
f96c  d0 01      BNE $f96f   A:ff X:33 Y:92 P:27 SP:f9
f96e  60         RTS         A:ff X:33 Y:92 P:27 SP:f9
d368  c8         INY         A:ff X:33 Y:92 P:27 SP:fb
d369  a9 00      LDA #$00    A:ff X:33 Y:93 P:a5 SP:fb
d36b  85 78      STA $78     A:00 X:33 Y:93 P:27 SP:fb
d36d  20 72 f9   JSR $f972   A:00 X:33 Y:93 P:27 SP:fb
f972  18         CLC         A:00 X:33 Y:93 P:27 SP:f9
f973  a9 80      LDA #$80    A:00 X:33 Y:93 P:26 SP:f9
f975  60         RTS         A:80 X:33 Y:93 P:a4 SP:f9
d370  e5 78      SBC $78     A:80 X:33 Y:93 P:a4 SP:fb
d372  20 76 f9   JSR $f976   A:7f X:33 Y:93 P:65 SP:fb
f976  90 05      BCC $f97d   A:7f X:33 Y:93 P:65 SP:f9
f978  c9 7f      CMP #$7f    A:7f X:33 Y:93 P:65 SP:f9
f97a  d0 01      BNE $f97d   A:7f X:33 Y:93 P:67 SP:f9
f97c  60         RTS         A:7f X:33 Y:93 P:67 SP:f9
d375  c8         INY         A:7f X:33 Y:93 P:67 SP:fb
d376  a9 7f      LDA #$7f    A:7f X:33 Y:94 P:e5 SP:fb
d378  85 78      STA $78     A:7f X:33 Y:94 P:65 SP:fb
d37a  20 80 f9   JSR $f980   A:7f X:33 Y:94 P:65 SP:fb
f980  38         SEC         A:7f X:33 Y:94 P:65 SP:f9
f981  a9 81      LDA #$81    A:7f X:33 Y:94 P:65 SP:f9
f983  60         RTS         A:81 X:33 Y:94 P:e5 SP:f9
d37d  e5 78      SBC $78     A:81 X:33 Y:94 P:e5 SP:fb
d37f  20 84 f9   JSR $f984   A:02 X:33 Y:94 P:65 SP:fb
f984  50 07      BVC $f98d   A:02 X:33 Y:94 P:65 SP:f9
f986  90 05      BCC $f98d   A:02 X:33 Y:94 P:65 SP:f9
f988  c9 02      CMP #$02    A:02 X:33 Y:94 P:65 SP:f9
f98a  d0 01      BNE $f98d   A:02 X:33 Y:94 P:67 SP:f9
f98c  60         RTS         A:02 X:33 Y:94 P:67 SP:f9
d382  c8         INY         A:02 X:33 Y:94 P:67 SP:fb
d383  a9 40      LDA #$40    A:02 X:33 Y:95 P:e5 SP:fb
d385  85 78      STA $78     A:40 X:33 Y:95 P:65 SP:fb
d387  20 89 f8   JSR $f889   A:40 X:33 Y:95 P:65 SP:fb
f889  24 01      BIT $01     A:40 X:33 Y:95 P:65 SP:f9
f88b  a9 40      LDA #$40    A:40 X:33 Y:95 P:e5 SP:f9
f88d  60         RTS         A:40 X:33 Y:95 P:65 SP:f9
d38a  aa         TAX         A:40 X:33 Y:95 P:65 SP:fb
d38b  e4 78      CPX $78     A:40 X:40 Y:95 P:65 SP:fb
d38d  20 8e f8   JSR $f88e   A:40 X:40 Y:95 P:67 SP:fb
f88e  30 07      BMI $f897   A:40 X:40 Y:95 P:67 SP:f9
f890  90 05      BCC $f897   A:40 X:40 Y:95 P:67 SP:f9
f892  d0 03      BNE $f897   A:40 X:40 Y:95 P:67 SP:f9
f894  50 01      BVC $f897   A:40 X:40 Y:95 P:67 SP:f9
f896  60         RTS         A:40 X:40 Y:95 P:67 SP:f9
d390  c8         INY         A:40 X:40 Y:95 P:67 SP:fb
d391  a9 3f      LDA #$3f    A:40 X:40 Y:96 P:e5 SP:fb
d393  85 78      STA $78     A:3f X:40 Y:96 P:65 SP:fb
d395  20 9a f8   JSR $f89a   A:3f X:40 Y:96 P:65 SP:fb
f89a  b8         CLV         A:3f X:40 Y:96 P:65 SP:f9
f89b  60         RTS         A:3f X:40 Y:96 P:25 SP:f9
d398  e4 78      CPX $78     A:3f X:40 Y:96 P:25 SP:fb
d39a  20 9c f8   JSR $f89c   A:3f X:40 Y:96 P:25 SP:fb
f89c  f0 07      BEQ $f8a5   A:3f X:40 Y:96 P:25 SP:f9
f89e  30 05      BMI $f8a5   A:3f X:40 Y:96 P:25 SP:f9
f8a0  90 03      BCC $f8a5   A:3f X:40 Y:96 P:25 SP:f9
f8a2  70 01      BVS $f8a5   A:3f X:40 Y:96 P:25 SP:f9
f8a4  60         RTS         A:3f X:40 Y:96 P:25 SP:f9
d39d  c8         INY         A:3f X:40 Y:96 P:25 SP:fb
d39e  a9 41      LDA #$41    A:3f X:40 Y:97 P:a5 SP:fb
d3a0  85 78      STA $78     A:41 X:40 Y:97 P:25 SP:fb
d3a2  e4 78      CPX $78     A:41 X:40 Y:97 P:25 SP:fb
d3a4  20 a8 f8   JSR $f8a8   A:41 X:40 Y:97 P:a4 SP:fb
f8a8  f0 05      BEQ $f8af   A:41 X:40 Y:97 P:a4 SP:f9
f8aa  10 03      BPL $f8af   A:41 X:40 Y:97 P:a4 SP:f9
f8ac  10 01      BPL $f8af   A:41 X:40 Y:97 P:a4 SP:f9
f8ae  60         RTS         A:41 X:40 Y:97 P:a4 SP:f9
d3a7  c8         INY         A:41 X:40 Y:97 P:a4 SP:fb
d3a8  a9 00      LDA #$00    A:41 X:40 Y:98 P:a4 SP:fb
d3aa  85 78      STA $78     A:00 X:40 Y:98 P:26 SP:fb
d3ac  20 b2 f8   JSR $f8b2   A:00 X:40 Y:98 P:26 SP:fb
f8b2  a9 80      LDA #$80    A:00 X:40 Y:98 P:26 SP:f9
f8b4  60         RTS         A:80 X:40 Y:98 P:a4 SP:f9
d3af  aa         TAX         A:80 X:40 Y:98 P:a4 SP:fb
d3b0  e4 78      CPX $78     A:80 X:80 Y:98 P:a4 SP:fb
d3b2  20 b5 f8   JSR $f8b5   A:80 X:80 Y:98 P:a5 SP:fb
f8b5  f0 05      BEQ $f8bc   A:80 X:80 Y:98 P:a5 SP:f9
f8b7  10 03      BPL $f8bc   A:80 X:80 Y:98 P:a5 SP:f9
f8b9  90 01      BCC $f8bc   A:80 X:80 Y:98 P:a5 SP:f9
f8bb  60         RTS         A:80 X:80 Y:98 P:a5 SP:f9
d3b5  c8         INY         A:80 X:80 Y:98 P:a5 SP:fb
d3b6  a9 80      LDA #$80    A:80 X:80 Y:99 P:a5 SP:fb
d3b8  85 78      STA $78     A:80 X:80 Y:99 P:a5 SP:fb
d3ba  e4 78      CPX $78     A:80 X:80 Y:99 P:a5 SP:fb
d3bc  20 bf f8   JSR $f8bf   A:80 X:80 Y:99 P:27 SP:fb
f8bf  d0 05      BNE $f8c6   A:80 X:80 Y:99 P:27 SP:f9
f8c1  30 03      BMI $f8c6   A:80 X:80 Y:99 P:27 SP:f9
f8c3  90 01      BCC $f8c6   A:80 X:80 Y:99 P:27 SP:f9
f8c5  60         RTS         A:80 X:80 Y:99 P:27 SP:f9
d3bf  c8         INY         A:80 X:80 Y:99 P:27 SP:fb
d3c0  a9 81      LDA #$81    A:80 X:80 Y:9a P:a5 SP:fb
d3c2  85 78      STA $78     A:81 X:80 Y:9a P:a5 SP:fb
d3c4  e4 78      CPX $78     A:81 X:80 Y:9a P:a5 SP:fb
d3c6  20 c9 f8   JSR $f8c9   A:81 X:80 Y:9a P:a4 SP:fb
f8c9  b0 05      BCS $f8d0   A:81 X:80 Y:9a P:a4 SP:f9
f8cb  f0 03      BEQ $f8d0   A:81 X:80 Y:9a P:a4 SP:f9
f8cd  10 01      BPL $f8d0   A:81 X:80 Y:9a P:a4 SP:f9
f8cf  60         RTS         A:81 X:80 Y:9a P:a4 SP:f9
d3c9  c8         INY         A:81 X:80 Y:9a P:a4 SP:fb
d3ca  a9 7f      LDA #$7f    A:81 X:80 Y:9b P:a4 SP:fb
d3cc  85 78      STA $78     A:7f X:80 Y:9b P:24 SP:fb
d3ce  e4 78      CPX $78     A:7f X:80 Y:9b P:24 SP:fb
d3d0  20 d3 f8   JSR $f8d3   A:7f X:80 Y:9b P:25 SP:fb
f8d3  90 05      BCC $f8da   A:7f X:80 Y:9b P:25 SP:f9
f8d5  f0 03      BEQ $f8da   A:7f X:80 Y:9b P:25 SP:f9
f8d7  30 01      BMI $f8da   A:7f X:80 Y:9b P:25 SP:f9
f8d9  60         RTS         A:7f X:80 Y:9b P:25 SP:f9
d3d3  c8         INY         A:7f X:80 Y:9b P:25 SP:fb
d3d4  98         TYA         A:7f X:80 Y:9c P:a5 SP:fb
d3d5  aa         TAX         A:9c X:80 Y:9c P:a5 SP:fb
d3d6  a9 40      LDA #$40    A:9c X:9c Y:9c P:a5 SP:fb
d3d8  85 78      STA $78     A:40 X:9c Y:9c P:25 SP:fb
d3da  20 dd f8   JSR $f8dd   A:40 X:9c Y:9c P:25 SP:fb
f8dd  24 01      BIT $01     A:40 X:9c Y:9c P:25 SP:f9
f8df  a0 40      LDY #$40    A:40 X:9c Y:9c P:e5 SP:f9
f8e1  60         RTS         A:40 X:9c Y:40 P:65 SP:f9
d3dd  c4 78      CPY $78     A:40 X:9c Y:40 P:65 SP:fb
d3df  20 e2 f8   JSR $f8e2   A:40 X:9c Y:40 P:67 SP:fb
f8e2  30 07      BMI $f8eb   A:40 X:9c Y:40 P:67 SP:f9
f8e4  90 05      BCC $f8eb   A:40 X:9c Y:40 P:67 SP:f9
f8e6  d0 03      BNE $f8eb   A:40 X:9c Y:40 P:67 SP:f9
f8e8  50 01      BVC $f8eb   A:40 X:9c Y:40 P:67 SP:f9
f8ea  60         RTS         A:40 X:9c Y:40 P:67 SP:f9
d3e2  e8         INX         A:40 X:9c Y:40 P:67 SP:fb
d3e3  a9 3f      LDA #$3f    A:40 X:9d Y:40 P:e5 SP:fb
d3e5  85 78      STA $78     A:3f X:9d Y:40 P:65 SP:fb
d3e7  20 ee f8   JSR $f8ee   A:3f X:9d Y:40 P:65 SP:fb
f8ee  b8         CLV         A:3f X:9d Y:40 P:65 SP:f9
f8ef  60         RTS         A:3f X:9d Y:40 P:25 SP:f9
d3ea  c4 78      CPY $78     A:3f X:9d Y:40 P:25 SP:fb
d3ec  20 f0 f8   JSR $f8f0   A:3f X:9d Y:40 P:25 SP:fb
f8f0  f0 07      BEQ $f8f9   A:3f X:9d Y:40 P:25 SP:f9
f8f2  30 05      BMI $f8f9   A:3f X:9d Y:40 P:25 SP:f9
f8f4  90 03      BCC $f8f9   A:3f X:9d Y:40 P:25 SP:f9
f8f6  70 01      BVS $f8f9   A:3f X:9d Y:40 P:25 SP:f9
f8f8  60         RTS         A:3f X:9d Y:40 P:25 SP:f9
d3ef  e8         INX         A:3f X:9d Y:40 P:25 SP:fb
d3f0  a9 41      LDA #$41    A:3f X:9e Y:40 P:a5 SP:fb
d3f2  85 78      STA $78     A:41 X:9e Y:40 P:25 SP:fb
d3f4  c4 78      CPY $78     A:41 X:9e Y:40 P:25 SP:fb
d3f6  20 fc f8   JSR $f8fc   A:41 X:9e Y:40 P:a4 SP:fb
f8fc  f0 05      BEQ $f903   A:41 X:9e Y:40 P:a4 SP:f9
f8fe  10 03      BPL $f903   A:41 X:9e Y:40 P:a4 SP:f9
f900  10 01      BPL $f903   A:41 X:9e Y:40 P:a4 SP:f9
f902  60         RTS         A:41 X:9e Y:40 P:a4 SP:f9
d3f9  e8         INX         A:41 X:9e Y:40 P:a4 SP:fb
d3fa  a9 00      LDA #$00    A:41 X:9f Y:40 P:a4 SP:fb
d3fc  85 78      STA $78     A:00 X:9f Y:40 P:26 SP:fb
d3fe  20 06 f9   JSR $f906   A:00 X:9f Y:40 P:26 SP:fb
f906  a0 80      LDY #$80    A:00 X:9f Y:40 P:26 SP:f9
f908  60         RTS         A:00 X:9f Y:80 P:a4 SP:f9
d401  c4 78      CPY $78     A:00 X:9f Y:80 P:a4 SP:fb
d403  20 09 f9   JSR $f909   A:00 X:9f Y:80 P:a5 SP:fb
f909  f0 05      BEQ $f910   A:00 X:9f Y:80 P:a5 SP:f9
f90b  10 03      BPL $f910   A:00 X:9f Y:80 P:a5 SP:f9
f90d  90 01      BCC $f910   A:00 X:9f Y:80 P:a5 SP:f9
f90f  60         RTS         A:00 X:9f Y:80 P:a5 SP:f9
d406  e8         INX         A:00 X:9f Y:80 P:a5 SP:fb
d407  a9 80      LDA #$80    A:00 X:a0 Y:80 P:a5 SP:fb
d409  85 78      STA $78     A:80 X:a0 Y:80 P:a5 SP:fb
d40b  c4 78      CPY $78     A:80 X:a0 Y:80 P:a5 SP:fb
d40d  20 13 f9   JSR $f913   A:80 X:a0 Y:80 P:27 SP:fb
f913  d0 05      BNE $f91a   A:80 X:a0 Y:80 P:27 SP:f9
f915  30 03      BMI $f91a   A:80 X:a0 Y:80 P:27 SP:f9
f917  90 01      BCC $f91a   A:80 X:a0 Y:80 P:27 SP:f9
f919  60         RTS         A:80 X:a0 Y:80 P:27 SP:f9
d410  e8         INX         A:80 X:a0 Y:80 P:27 SP:fb
d411  a9 81      LDA #$81    A:80 X:a1 Y:80 P:a5 SP:fb
d413  85 78      STA $78     A:81 X:a1 Y:80 P:a5 SP:fb
d415  c4 78      CPY $78     A:81 X:a1 Y:80 P:a5 SP:fb
d417  20 1d f9   JSR $f91d   A:81 X:a1 Y:80 P:a4 SP:fb
f91d  b0 05      BCS $f924   A:81 X:a1 Y:80 P:a4 SP:f9
f91f  f0 03      BEQ $f924   A:81 X:a1 Y:80 P:a4 SP:f9
f921  10 01      BPL $f924   A:81 X:a1 Y:80 P:a4 SP:f9
f923  60         RTS         A:81 X:a1 Y:80 P:a4 SP:f9
d41a  e8         INX         A:81 X:a1 Y:80 P:a4 SP:fb
d41b  a9 7f      LDA #$7f    A:81 X:a2 Y:80 P:a4 SP:fb
d41d  85 78      STA $78     A:7f X:a2 Y:80 P:24 SP:fb
d41f  c4 78      CPY $78     A:7f X:a2 Y:80 P:24 SP:fb
d421  20 27 f9   JSR $f927   A:7f X:a2 Y:80 P:25 SP:fb
f927  90 05      BCC $f92e   A:7f X:a2 Y:80 P:25 SP:f9
f929  f0 03      BEQ $f92e   A:7f X:a2 Y:80 P:25 SP:f9
f92b  30 01      BMI $f92e   A:7f X:a2 Y:80 P:25 SP:f9
f92d  60         RTS         A:7f X:a2 Y:80 P:25 SP:f9
d424  e8         INX         A:7f X:a2 Y:80 P:25 SP:fb
d425  8a         TXA         A:7f X:a3 Y:80 P:a5 SP:fb
d426  a8         TAY         A:a3 X:a3 Y:80 P:a5 SP:fb
d427  20 90 f9   JSR $f990   A:a3 X:a3 Y:a3 P:a5 SP:fb
f990  a2 55      LDX #$55    A:a3 X:a3 Y:a3 P:a5 SP:f9
f992  a9 ff      LDA #$ff    A:a3 X:55 Y:a3 P:25 SP:f9
f994  85 01      STA $01     A:ff X:55 Y:a3 P:a5 SP:f9
f996  ea         NOP         A:ff X:55 Y:a3 P:a5 SP:f9
f997  24 01      BIT $01     A:ff X:55 Y:a3 P:a5 SP:f9
f999  38         SEC         A:ff X:55 Y:a3 P:e5 SP:f9
f99a  a9 01      LDA #$01    A:ff X:55 Y:a3 P:e5 SP:f9
f99c  60         RTS         A:01 X:55 Y:a3 P:65 SP:f9
d42a  85 78      STA $78     A:01 X:55 Y:a3 P:65 SP:fb
d42c  46 78      LSR $78     A:01 X:55 Y:a3 P:65 SP:fb
d42e  a5 78      LDA $78     A:01 X:55 Y:a3 P:67 SP:fb
d430  20 9d f9   JSR $f99d   A:00 X:55 Y:a3 P:67 SP:fb
f99d  90 1b      BCC $f9ba   A:00 X:55 Y:a3 P:67 SP:f9
f99f  d0 19      BNE $f9ba   A:00 X:55 Y:a3 P:67 SP:f9
f9a1  30 17      BMI $f9ba   A:00 X:55 Y:a3 P:67 SP:f9
f9a3  50 15      BVC $f9ba   A:00 X:55 Y:a3 P:67 SP:f9
f9a5  c9 00      CMP #$00    A:00 X:55 Y:a3 P:67 SP:f9
f9a7  d0 11      BNE $f9ba   A:00 X:55 Y:a3 P:67 SP:f9
f9a9  b8         CLV         A:00 X:55 Y:a3 P:67 SP:f9
f9aa  a9 aa      LDA #$aa    A:00 X:55 Y:a3 P:27 SP:f9
f9ac  60         RTS         A:aa X:55 Y:a3 P:a5 SP:f9
d433  c8         INY         A:aa X:55 Y:a3 P:a5 SP:fb
d434  85 78      STA $78     A:aa X:55 Y:a4 P:a5 SP:fb
d436  46 78      LSR $78     A:aa X:55 Y:a4 P:a5 SP:fb
d438  a5 78      LDA $78     A:aa X:55 Y:a4 P:24 SP:fb
d43a  20 ad f9   JSR $f9ad   A:55 X:55 Y:a4 P:24 SP:fb
f9ad  b0 0b      BCS $f9ba   A:55 X:55 Y:a4 P:24 SP:f9
f9af  f0 09      BEQ $f9ba   A:55 X:55 Y:a4 P:24 SP:f9
f9b1  30 07      BMI $f9ba   A:55 X:55 Y:a4 P:24 SP:f9
f9b3  70 05      BVS $f9ba   A:55 X:55 Y:a4 P:24 SP:f9
f9b5  c9 55      CMP #$55    A:55 X:55 Y:a4 P:24 SP:f9
f9b7  d0 01      BNE $f9ba   A:55 X:55 Y:a4 P:27 SP:f9
f9b9  60         RTS         A:55 X:55 Y:a4 P:27 SP:f9
d43d  c8         INY         A:55 X:55 Y:a4 P:27 SP:fb
d43e  20 bd f9   JSR $f9bd   A:55 X:55 Y:a5 P:a5 SP:fb
f9bd  24 01      BIT $01     A:55 X:55 Y:a5 P:a5 SP:f9
f9bf  38         SEC         A:55 X:55 Y:a5 P:e5 SP:f9
f9c0  a9 80      LDA #$80    A:55 X:55 Y:a5 P:e5 SP:f9
f9c2  60         RTS         A:80 X:55 Y:a5 P:e5 SP:f9
d441  85 78      STA $78     A:80 X:55 Y:a5 P:e5 SP:fb
d443  06 78      ASL $78     A:80 X:55 Y:a5 P:e5 SP:fb
d445  a5 78      LDA $78     A:80 X:55 Y:a5 P:67 SP:fb
d447  20 c3 f9   JSR $f9c3   A:00 X:55 Y:a5 P:67 SP:fb
f9c3  90 1c      BCC $f9e1   A:00 X:55 Y:a5 P:67 SP:f9
f9c5  d0 1a      BNE $f9e1   A:00 X:55 Y:a5 P:67 SP:f9
f9c7  30 18      BMI $f9e1   A:00 X:55 Y:a5 P:67 SP:f9
f9c9  50 16      BVC $f9e1   A:00 X:55 Y:a5 P:67 SP:f9
f9cb  c9 00      CMP #$00    A:00 X:55 Y:a5 P:67 SP:f9
f9cd  d0 12      BNE $f9e1   A:00 X:55 Y:a5 P:67 SP:f9
f9cf  b8         CLV         A:00 X:55 Y:a5 P:67 SP:f9
f9d0  a9 55      LDA #$55    A:00 X:55 Y:a5 P:27 SP:f9
f9d2  38         SEC         A:55 X:55 Y:a5 P:25 SP:f9
f9d3  60         RTS         A:55 X:55 Y:a5 P:25 SP:f9
d44a  c8         INY         A:55 X:55 Y:a5 P:25 SP:fb
d44b  85 78      STA $78     A:55 X:55 Y:a6 P:a5 SP:fb
d44d  06 78      ASL $78     A:55 X:55 Y:a6 P:a5 SP:fb
d44f  a5 78      LDA $78     A:55 X:55 Y:a6 P:a4 SP:fb
d451  20 d4 f9   JSR $f9d4   A:aa X:55 Y:a6 P:a4 SP:fb
f9d4  b0 0b      BCS $f9e1   A:aa X:55 Y:a6 P:a4 SP:f9
f9d6  f0 09      BEQ $f9e1   A:aa X:55 Y:a6 P:a4 SP:f9
f9d8  10 07      BPL $f9e1   A:aa X:55 Y:a6 P:a4 SP:f9
f9da  70 05      BVS $f9e1   A:aa X:55 Y:a6 P:a4 SP:f9
f9dc  c9 aa      CMP #$aa    A:aa X:55 Y:a6 P:a4 SP:f9
f9de  d0 01      BNE $f9e1   A:aa X:55 Y:a6 P:27 SP:f9
f9e0  60         RTS         A:aa X:55 Y:a6 P:27 SP:f9
d454  c8         INY         A:aa X:55 Y:a6 P:27 SP:fb
d455  20 e4 f9   JSR $f9e4   A:aa X:55 Y:a7 P:a5 SP:fb
f9e4  24 01      BIT $01     A:aa X:55 Y:a7 P:a5 SP:f9
f9e6  38         SEC         A:aa X:55 Y:a7 P:e5 SP:f9
f9e7  a9 01      LDA #$01    A:aa X:55 Y:a7 P:e5 SP:f9
f9e9  60         RTS         A:01 X:55 Y:a7 P:65 SP:f9
d458  85 78      STA $78     A:01 X:55 Y:a7 P:65 SP:fb
d45a  66 78      ROR $78     A:01 X:55 Y:a7 P:65 SP:fb
d45c  a5 78      LDA $78     A:01 X:55 Y:a7 P:e5 SP:fb
d45e  20 ea f9   JSR $f9ea   A:80 X:55 Y:a7 P:e5 SP:fb
f9ea  90 1c      BCC $fa08   A:80 X:55 Y:a7 P:e5 SP:f9
f9ec  f0 1a      BEQ $fa08   A:80 X:55 Y:a7 P:e5 SP:f9
f9ee  10 18      BPL $fa08   A:80 X:55 Y:a7 P:e5 SP:f9
f9f0  50 16      BVC $fa08   A:80 X:55 Y:a7 P:e5 SP:f9
f9f2  c9 80      CMP #$80    A:80 X:55 Y:a7 P:e5 SP:f9
f9f4  d0 12      BNE $fa08   A:80 X:55 Y:a7 P:67 SP:f9
f9f6  b8         CLV         A:80 X:55 Y:a7 P:67 SP:f9
f9f7  18         CLC         A:80 X:55 Y:a7 P:27 SP:f9
f9f8  a9 55      LDA #$55    A:80 X:55 Y:a7 P:26 SP:f9
f9fa  60         RTS         A:55 X:55 Y:a7 P:24 SP:f9
d461  c8         INY         A:55 X:55 Y:a7 P:24 SP:fb
d462  85 78      STA $78     A:55 X:55 Y:a8 P:a4 SP:fb
d464  66 78      ROR $78     A:55 X:55 Y:a8 P:a4 SP:fb
d466  a5 78      LDA $78     A:55 X:55 Y:a8 P:25 SP:fb
d468  20 fb f9   JSR $f9fb   A:2a X:55 Y:a8 P:25 SP:fb
f9fb  90 0b      BCC $fa08   A:2a X:55 Y:a8 P:25 SP:f9
f9fd  f0 09      BEQ $fa08   A:2a X:55 Y:a8 P:25 SP:f9
f9ff  30 07      BMI $fa08   A:2a X:55 Y:a8 P:25 SP:f9
fa01  70 05      BVS $fa08   A:2a X:55 Y:a8 P:25 SP:f9
fa03  c9 2a      CMP #$2a    A:2a X:55 Y:a8 P:25 SP:f9
fa05  d0 01      BNE $fa08   A:2a X:55 Y:a8 P:27 SP:f9
fa07  60         RTS         A:2a X:55 Y:a8 P:27 SP:f9
d46b  c8         INY         A:2a X:55 Y:a8 P:27 SP:fb
d46c  20 0a fa   JSR $fa0a   A:2a X:55 Y:a9 P:a5 SP:fb
fa0a  24 01      BIT $01     A:2a X:55 Y:a9 P:a5 SP:f9
fa0c  38         SEC         A:2a X:55 Y:a9 P:e5 SP:f9
fa0d  a9 80      LDA #$80    A:2a X:55 Y:a9 P:e5 SP:f9
fa0f  60         RTS         A:80 X:55 Y:a9 P:e5 SP:f9
d46f  85 78      STA $78     A:80 X:55 Y:a9 P:e5 SP:fb
d471  26 78      ROL $78     A:80 X:55 Y:a9 P:e5 SP:fb
d473  a5 78      LDA $78     A:80 X:55 Y:a9 P:65 SP:fb
d475  20 10 fa   JSR $fa10   A:01 X:55 Y:a9 P:65 SP:fb
fa10  90 1c      BCC $fa2e   A:01 X:55 Y:a9 P:65 SP:f9
fa12  f0 1a      BEQ $fa2e   A:01 X:55 Y:a9 P:65 SP:f9
fa14  30 18      BMI $fa2e   A:01 X:55 Y:a9 P:65 SP:f9
fa16  50 16      BVC $fa2e   A:01 X:55 Y:a9 P:65 SP:f9
fa18  c9 01      CMP #$01    A:01 X:55 Y:a9 P:65 SP:f9
fa1a  d0 12      BNE $fa2e   A:01 X:55 Y:a9 P:67 SP:f9
fa1c  b8         CLV         A:01 X:55 Y:a9 P:67 SP:f9
fa1d  18         CLC         A:01 X:55 Y:a9 P:27 SP:f9
fa1e  a9 55      LDA #$55    A:01 X:55 Y:a9 P:26 SP:f9
fa20  60         RTS         A:55 X:55 Y:a9 P:24 SP:f9
d478  c8         INY         A:55 X:55 Y:a9 P:24 SP:fb
d479  85 78      STA $78     A:55 X:55 Y:aa P:a4 SP:fb
d47b  26 78      ROL $78     A:55 X:55 Y:aa P:a4 SP:fb
d47d  a5 78      LDA $78     A:55 X:55 Y:aa P:a4 SP:fb
d47f  20 21 fa   JSR $fa21   A:aa X:55 Y:aa P:a4 SP:fb
fa21  b0 0b      BCS $fa2e   A:aa X:55 Y:aa P:a4 SP:f9
fa23  f0 09      BEQ $fa2e   A:aa X:55 Y:aa P:a4 SP:f9
fa25  10 07      BPL $fa2e   A:aa X:55 Y:aa P:a4 SP:f9
fa27  70 05      BVS $fa2e   A:aa X:55 Y:aa P:a4 SP:f9
fa29  c9 aa      CMP #$aa    A:aa X:55 Y:aa P:a4 SP:f9
fa2b  d0 01      BNE $fa2e   A:aa X:55 Y:aa P:27 SP:f9
fa2d  60         RTS         A:aa X:55 Y:aa P:27 SP:f9
d482  a9 ff      LDA #$ff    A:aa X:55 Y:aa P:27 SP:fb
d484  85 78      STA $78     A:ff X:55 Y:aa P:a5 SP:fb
d486  85 01      STA $01     A:ff X:55 Y:aa P:a5 SP:fb
d488  24 01      BIT $01     A:ff X:55 Y:aa P:a5 SP:fb
d48a  38         SEC         A:ff X:55 Y:aa P:e5 SP:fb
d48b  e6 78      INC $78     A:ff X:55 Y:aa P:e5 SP:fb
d48d  d0 0c      BNE $d49b   A:ff X:55 Y:aa P:67 SP:fb
d48f  30 0a      BMI $d49b   A:ff X:55 Y:aa P:67 SP:fb
d491  50 08      BVC $d49b   A:ff X:55 Y:aa P:67 SP:fb
d493  90 06      BCC $d49b   A:ff X:55 Y:aa P:67 SP:fb
d495  a5 78      LDA $78     A:ff X:55 Y:aa P:67 SP:fb
d497  c9 00      CMP #$00    A:00 X:55 Y:aa P:67 SP:fb
d499  f0 04      BEQ $d49f   A:00 X:55 Y:aa P:67 SP:fb
d49f  a9 7f      LDA #$7f    A:00 X:55 Y:aa P:67 SP:fb
d4a1  85 78      STA $78     A:7f X:55 Y:aa P:65 SP:fb
d4a3  b8         CLV         A:7f X:55 Y:aa P:65 SP:fb
d4a4  18         CLC         A:7f X:55 Y:aa P:25 SP:fb
d4a5  e6 78      INC $78     A:7f X:55 Y:aa P:24 SP:fb
d4a7  f0 0c      BEQ $d4b5   A:7f X:55 Y:aa P:a4 SP:fb
d4a9  10 0a      BPL $d4b5   A:7f X:55 Y:aa P:a4 SP:fb
d4ab  70 08      BVS $d4b5   A:7f X:55 Y:aa P:a4 SP:fb
d4ad  b0 06      BCS $d4b5   A:7f X:55 Y:aa P:a4 SP:fb
d4af  a5 78      LDA $78     A:7f X:55 Y:aa P:a4 SP:fb
d4b1  c9 80      CMP #$80    A:80 X:55 Y:aa P:a4 SP:fb
d4b3  f0 04      BEQ $d4b9   A:80 X:55 Y:aa P:27 SP:fb
d4b9  a9 00      LDA #$00    A:80 X:55 Y:aa P:27 SP:fb
d4bb  85 78      STA $78     A:00 X:55 Y:aa P:27 SP:fb
d4bd  24 01      BIT $01     A:00 X:55 Y:aa P:27 SP:fb
d4bf  38         SEC         A:00 X:55 Y:aa P:e7 SP:fb
d4c0  c6 78      DEC $78     A:00 X:55 Y:aa P:e7 SP:fb
d4c2  f0 0c      BEQ $d4d0   A:00 X:55 Y:aa P:e5 SP:fb
d4c4  10 0a      BPL $d4d0   A:00 X:55 Y:aa P:e5 SP:fb
d4c6  50 08      BVC $d4d0   A:00 X:55 Y:aa P:e5 SP:fb
d4c8  90 06      BCC $d4d0   A:00 X:55 Y:aa P:e5 SP:fb
d4ca  a5 78      LDA $78     A:00 X:55 Y:aa P:e5 SP:fb
d4cc  c9 ff      CMP #$ff    A:ff X:55 Y:aa P:e5 SP:fb
d4ce  f0 04      BEQ $d4d4   A:ff X:55 Y:aa P:67 SP:fb
d4d4  a9 80      LDA #$80    A:ff X:55 Y:aa P:67 SP:fb
d4d6  85 78      STA $78     A:80 X:55 Y:aa P:e5 SP:fb
d4d8  b8         CLV         A:80 X:55 Y:aa P:e5 SP:fb
d4d9  18         CLC         A:80 X:55 Y:aa P:a5 SP:fb
d4da  c6 78      DEC $78     A:80 X:55 Y:aa P:a4 SP:fb
d4dc  f0 0c      BEQ $d4ea   A:80 X:55 Y:aa P:24 SP:fb
d4de  30 0a      BMI $d4ea   A:80 X:55 Y:aa P:24 SP:fb
d4e0  70 08      BVS $d4ea   A:80 X:55 Y:aa P:24 SP:fb
d4e2  b0 06      BCS $d4ea   A:80 X:55 Y:aa P:24 SP:fb
d4e4  a5 78      LDA $78     A:80 X:55 Y:aa P:24 SP:fb
d4e6  c9 7f      CMP #$7f    A:7f X:55 Y:aa P:24 SP:fb
d4e8  f0 04      BEQ $d4ee   A:7f X:55 Y:aa P:27 SP:fb
d4ee  a9 01      LDA #$01    A:7f X:55 Y:aa P:27 SP:fb
d4f0  85 78      STA $78     A:01 X:55 Y:aa P:25 SP:fb
d4f2  c6 78      DEC $78     A:01 X:55 Y:aa P:25 SP:fb
d4f4  f0 04      BEQ $d4fa   A:01 X:55 Y:aa P:27 SP:fb
d4fa  60         RTS         A:01 X:55 Y:aa P:27 SP:fb
c615  20 fb d4   JSR $d4fb   A:01 X:55 Y:aa P:27 SP:fd
d4fb  a9 55      LDA #$55    A:01 X:55 Y:aa P:27 SP:fb
d4fd  8d 78 06   STA $0678   A:55 X:55 Y:aa P:25 SP:fb
d500  a9 ff      LDA #$ff    A:55 X:55 Y:aa P:25 SP:fb
d502  85 01      STA $01     A:ff X:55 Y:aa P:a5 SP:fb
d504  24 01      BIT $01     A:ff X:55 Y:aa P:a5 SP:fb
d506  a0 11      LDY #$11    A:ff X:55 Y:aa P:e5 SP:fb
d508  a2 23      LDX #$23    A:ff X:55 Y:11 P:65 SP:fb
d50a  a9 00      LDA #$00    A:ff X:23 Y:11 P:65 SP:fb
d50c  ad 78 06   LDA $0678   A:00 X:23 Y:11 P:67 SP:fb
d50f  f0 10      BEQ $d521   A:55 X:23 Y:11 P:65 SP:fb
d511  30 0e      BMI $d521   A:55 X:23 Y:11 P:65 SP:fb
d513  c9 55      CMP #$55    A:55 X:23 Y:11 P:65 SP:fb
d515  d0 0a      BNE $d521   A:55 X:23 Y:11 P:67 SP:fb
d517  c0 11      CPY #$11    A:55 X:23 Y:11 P:67 SP:fb
d519  d0 06      BNE $d521   A:55 X:23 Y:11 P:67 SP:fb
d51b  e0 23      CPX #$23    A:55 X:23 Y:11 P:67 SP:fb
d51d  50 02      BVC $d521   A:55 X:23 Y:11 P:67 SP:fb
d51f  f0 04      BEQ $d525   A:55 X:23 Y:11 P:67 SP:fb
d525  a9 46      LDA #$46    A:55 X:23 Y:11 P:67 SP:fb
d527  24 01      BIT $01     A:46 X:23 Y:11 P:65 SP:fb
d529  8d 78 06   STA $0678   A:46 X:23 Y:11 P:e5 SP:fb
d52c  f0 0b      BEQ $d539   A:46 X:23 Y:11 P:e5 SP:fb
d52e  10 09      BPL $d539   A:46 X:23 Y:11 P:e5 SP:fb
d530  50 07      BVC $d539   A:46 X:23 Y:11 P:e5 SP:fb
d532  ad 78 06   LDA $0678   A:46 X:23 Y:11 P:e5 SP:fb
d535  c9 46      CMP #$46    A:46 X:23 Y:11 P:65 SP:fb
d537  f0 04      BEQ $d53d   A:46 X:23 Y:11 P:67 SP:fb
d53d  a9 55      LDA #$55    A:46 X:23 Y:11 P:67 SP:fb
d53f  8d 78 06   STA $0678   A:55 X:23 Y:11 P:65 SP:fb
d542  24 01      BIT $01     A:55 X:23 Y:11 P:65 SP:fb
d544  a9 11      LDA #$11    A:55 X:23 Y:11 P:e5 SP:fb
d546  a2 23      LDX #$23    A:11 X:23 Y:11 P:65 SP:fb
d548  a0 00      LDY #$00    A:11 X:23 Y:11 P:65 SP:fb
d54a  ac 78 06   LDY $0678   A:11 X:23 Y:00 P:67 SP:fb
d54d  f0 10      BEQ $d55f   A:11 X:23 Y:55 P:65 SP:fb
d54f  30 0e      BMI $d55f   A:11 X:23 Y:55 P:65 SP:fb
d551  c0 55      CPY #$55    A:11 X:23 Y:55 P:65 SP:fb
d553  d0 0a      BNE $d55f   A:11 X:23 Y:55 P:67 SP:fb
d555  c9 11      CMP #$11    A:11 X:23 Y:55 P:67 SP:fb
d557  d0 06      BNE $d55f   A:11 X:23 Y:55 P:67 SP:fb
d559  e0 23      CPX #$23    A:11 X:23 Y:55 P:67 SP:fb
d55b  50 02      BVC $d55f   A:11 X:23 Y:55 P:67 SP:fb
d55d  f0 04      BEQ $d563   A:11 X:23 Y:55 P:67 SP:fb
d563  a0 46      LDY #$46    A:11 X:23 Y:55 P:67 SP:fb
d565  24 01      BIT $01     A:11 X:23 Y:46 P:65 SP:fb
d567  8c 78 06   STY $0678   A:11 X:23 Y:46 P:e5 SP:fb
d56a  f0 0b      BEQ $d577   A:11 X:23 Y:46 P:e5 SP:fb
d56c  10 09      BPL $d577   A:11 X:23 Y:46 P:e5 SP:fb
d56e  50 07      BVC $d577   A:11 X:23 Y:46 P:e5 SP:fb
d570  ac 78 06   LDY $0678   A:11 X:23 Y:46 P:e5 SP:fb
d573  c0 46      CPY #$46    A:11 X:23 Y:46 P:65 SP:fb
d575  f0 04      BEQ $d57b   A:11 X:23 Y:46 P:67 SP:fb
d57b  24 01      BIT $01     A:11 X:23 Y:46 P:67 SP:fb
d57d  a9 55      LDA #$55    A:11 X:23 Y:46 P:e5 SP:fb
d57f  8d 78 06   STA $0678   A:55 X:23 Y:46 P:65 SP:fb
d582  a0 11      LDY #$11    A:55 X:23 Y:46 P:65 SP:fb
d584  a9 23      LDA #$23    A:55 X:23 Y:11 P:65 SP:fb
d586  a2 00      LDX #$00    A:23 X:23 Y:11 P:65 SP:fb
d588  ae 78 06   LDX $0678   A:23 X:00 Y:11 P:67 SP:fb
d58b  f0 10      BEQ $d59d   A:23 X:55 Y:11 P:65 SP:fb
d58d  30 0e      BMI $d59d   A:23 X:55 Y:11 P:65 SP:fb
d58f  e0 55      CPX #$55    A:23 X:55 Y:11 P:65 SP:fb
d591  d0 0a      BNE $d59d   A:23 X:55 Y:11 P:67 SP:fb
d593  c0 11      CPY #$11    A:23 X:55 Y:11 P:67 SP:fb
d595  d0 06      BNE $d59d   A:23 X:55 Y:11 P:67 SP:fb
d597  c9 23      CMP #$23    A:23 X:55 Y:11 P:67 SP:fb
d599  50 02      BVC $d59d   A:23 X:55 Y:11 P:67 SP:fb
d59b  f0 04      BEQ $d5a1   A:23 X:55 Y:11 P:67 SP:fb
d5a1  a2 46      LDX #$46    A:23 X:55 Y:11 P:67 SP:fb
d5a3  24 01      BIT $01     A:23 X:46 Y:11 P:65 SP:fb
d5a5  8e 78 06   STX $0678   A:23 X:46 Y:11 P:e5 SP:fb
d5a8  f0 0b      BEQ $d5b5   A:23 X:46 Y:11 P:e5 SP:fb
d5aa  10 09      BPL $d5b5   A:23 X:46 Y:11 P:e5 SP:fb
d5ac  50 07      BVC $d5b5   A:23 X:46 Y:11 P:e5 SP:fb
d5ae  ae 78 06   LDX $0678   A:23 X:46 Y:11 P:e5 SP:fb
d5b1  e0 46      CPX #$46    A:23 X:46 Y:11 P:65 SP:fb
d5b3  f0 04      BEQ $d5b9   A:23 X:46 Y:11 P:67 SP:fb
d5b9  a9 c0      LDA #$c0    A:23 X:46 Y:11 P:67 SP:fb
d5bb  8d 78 06   STA $0678   A:c0 X:46 Y:11 P:e5 SP:fb
d5be  a2 33      LDX #$33    A:c0 X:46 Y:11 P:e5 SP:fb
d5c0  a0 88      LDY #$88    A:c0 X:33 Y:11 P:65 SP:fb
d5c2  a9 05      LDA #$05    A:c0 X:33 Y:88 P:e5 SP:fb
d5c4  2c 78 06   BIT $0678   A:05 X:33 Y:88 P:65 SP:fb
d5c7  10 10      BPL $d5d9   A:05 X:33 Y:88 P:e7 SP:fb
d5c9  50 0e      BVC $d5d9   A:05 X:33 Y:88 P:e7 SP:fb
d5cb  d0 0c      BNE $d5d9   A:05 X:33 Y:88 P:e7 SP:fb
d5cd  c9 05      CMP #$05    A:05 X:33 Y:88 P:e7 SP:fb
d5cf  d0 08      BNE $d5d9   A:05 X:33 Y:88 P:67 SP:fb
d5d1  e0 33      CPX #$33    A:05 X:33 Y:88 P:67 SP:fb
d5d3  d0 04      BNE $d5d9   A:05 X:33 Y:88 P:67 SP:fb
d5d5  c0 88      CPY #$88    A:05 X:33 Y:88 P:67 SP:fb
d5d7  f0 04      BEQ $d5dd   A:05 X:33 Y:88 P:67 SP:fb
d5dd  a9 03      LDA #$03    A:05 X:33 Y:88 P:67 SP:fb
d5df  8d 78 06   STA $0678   A:03 X:33 Y:88 P:65 SP:fb
d5e2  a9 01      LDA #$01    A:03 X:33 Y:88 P:65 SP:fb
d5e4  2c 78 06   BIT $0678   A:01 X:33 Y:88 P:65 SP:fb
d5e7  30 08      BMI $d5f1   A:01 X:33 Y:88 P:25 SP:fb
d5e9  70 06      BVS $d5f1   A:01 X:33 Y:88 P:25 SP:fb
d5eb  f0 04      BEQ $d5f1   A:01 X:33 Y:88 P:25 SP:fb
d5ed  c9 01      CMP #$01    A:01 X:33 Y:88 P:25 SP:fb
d5ef  f0 04      BEQ $d5f5   A:01 X:33 Y:88 P:27 SP:fb
d5f5  a0 b8      LDY #$b8    A:01 X:33 Y:88 P:27 SP:fb
d5f7  a9 aa      LDA #$aa    A:01 X:33 Y:b8 P:a5 SP:fb
d5f9  8d 78 06   STA $0678   A:aa X:33 Y:b8 P:a5 SP:fb
d5fc  20 b6 f7   JSR $f7b6   A:aa X:33 Y:b8 P:a5 SP:fb
f7b6  18         CLC         A:aa X:33 Y:b8 P:a5 SP:f9
f7b7  a9 ff      LDA #$ff    A:aa X:33 Y:b8 P:a4 SP:f9
f7b9  85 01      STA $01     A:ff X:33 Y:b8 P:a4 SP:f9
f7bb  24 01      BIT $01     A:ff X:33 Y:b8 P:a4 SP:f9
f7bd  a9 55      LDA #$55    A:ff X:33 Y:b8 P:e4 SP:f9
f7bf  60         RTS         A:55 X:33 Y:b8 P:64 SP:f9
d5ff  0d 78 06   ORA $0678   A:55 X:33 Y:b8 P:64 SP:fb
d602  20 c0 f7   JSR $f7c0   A:ff X:33 Y:b8 P:e4 SP:fb
f7c0  b0 09      BCS $f7cb   A:ff X:33 Y:b8 P:e4 SP:f9
f7c2  10 07      BPL $f7cb   A:ff X:33 Y:b8 P:e4 SP:f9
f7c4  c9 ff      CMP #$ff    A:ff X:33 Y:b8 P:e4 SP:f9
f7c6  d0 03      BNE $f7cb   A:ff X:33 Y:b8 P:67 SP:f9
f7c8  50 01      BVC $f7cb   A:ff X:33 Y:b8 P:67 SP:f9
f7ca  60         RTS         A:ff X:33 Y:b8 P:67 SP:f9
d605  c8         INY         A:ff X:33 Y:b8 P:67 SP:fb
d606  a9 00      LDA #$00    A:ff X:33 Y:b9 P:e5 SP:fb
d608  8d 78 06   STA $0678   A:00 X:33 Y:b9 P:67 SP:fb
d60b  20 ce f7   JSR $f7ce   A:00 X:33 Y:b9 P:67 SP:fb
f7ce  38         SEC         A:00 X:33 Y:b9 P:67 SP:f9
f7cf  b8         CLV         A:00 X:33 Y:b9 P:67 SP:f9
f7d0  a9 00      LDA #$00    A:00 X:33 Y:b9 P:27 SP:f9
f7d2  60         RTS         A:00 X:33 Y:b9 P:27 SP:f9
d60e  0d 78 06   ORA $0678   A:00 X:33 Y:b9 P:27 SP:fb
d611  20 d3 f7   JSR $f7d3   A:00 X:33 Y:b9 P:27 SP:fb
f7d3  d0 07      BNE $f7dc   A:00 X:33 Y:b9 P:27 SP:f9
f7d5  70 05      BVS $f7dc   A:00 X:33 Y:b9 P:27 SP:f9
f7d7  90 03      BCC $f7dc   A:00 X:33 Y:b9 P:27 SP:f9
f7d9  30 01      BMI $f7dc   A:00 X:33 Y:b9 P:27 SP:f9
f7db  60         RTS         A:00 X:33 Y:b9 P:27 SP:f9
d614  c8         INY         A:00 X:33 Y:b9 P:27 SP:fb
d615  a9 aa      LDA #$aa    A:00 X:33 Y:ba P:a5 SP:fb
d617  8d 78 06   STA $0678   A:aa X:33 Y:ba P:a5 SP:fb
d61a  20 df f7   JSR $f7df   A:aa X:33 Y:ba P:a5 SP:fb
f7df  18         CLC         A:aa X:33 Y:ba P:a5 SP:f9
f7e0  24 01      BIT $01     A:aa X:33 Y:ba P:a4 SP:f9
f7e2  a9 55      LDA #$55    A:aa X:33 Y:ba P:e4 SP:f9
f7e4  60         RTS         A:55 X:33 Y:ba P:64 SP:f9
d61d  2d 78 06   AND $0678   A:55 X:33 Y:ba P:64 SP:fb
d620  20 e5 f7   JSR $f7e5   A:00 X:33 Y:ba P:66 SP:fb
f7e5  d0 07      BNE $f7ee   A:00 X:33 Y:ba P:66 SP:f9
f7e7  50 05      BVC $f7ee   A:00 X:33 Y:ba P:66 SP:f9
f7e9  b0 03      BCS $f7ee   A:00 X:33 Y:ba P:66 SP:f9
f7eb  30 01      BMI $f7ee   A:00 X:33 Y:ba P:66 SP:f9
f7ed  60         RTS         A:00 X:33 Y:ba P:66 SP:f9
d623  c8         INY         A:00 X:33 Y:ba P:66 SP:fb
d624  a9 ef      LDA #$ef    A:00 X:33 Y:bb P:e4 SP:fb
d626  8d 78 06   STA $0678   A:ef X:33 Y:bb P:e4 SP:fb
d629  20 f1 f7   JSR $f7f1   A:ef X:33 Y:bb P:e4 SP:fb
f7f1  38         SEC         A:ef X:33 Y:bb P:e4 SP:f9
f7f2  b8         CLV         A:ef X:33 Y:bb P:e5 SP:f9
f7f3  a9 f8      LDA #$f8    A:ef X:33 Y:bb P:a5 SP:f9
f7f5  60         RTS         A:f8 X:33 Y:bb P:a5 SP:f9
d62c  2d 78 06   AND $0678   A:f8 X:33 Y:bb P:a5 SP:fb
d62f  20 f6 f7   JSR $f7f6   A:e8 X:33 Y:bb P:a5 SP:fb
f7f6  90 09      BCC $f801   A:e8 X:33 Y:bb P:a5 SP:f9
f7f8  10 07      BPL $f801   A:e8 X:33 Y:bb P:a5 SP:f9
f7fa  c9 e8      CMP #$e8    A:e8 X:33 Y:bb P:a5 SP:f9
f7fc  d0 03      BNE $f801   A:e8 X:33 Y:bb P:27 SP:f9
f7fe  70 01      BVS $f801   A:e8 X:33 Y:bb P:27 SP:f9
f800  60         RTS         A:e8 X:33 Y:bb P:27 SP:f9
d632  c8         INY         A:e8 X:33 Y:bb P:27 SP:fb
d633  a9 aa      LDA #$aa    A:e8 X:33 Y:bc P:a5 SP:fb
d635  8d 78 06   STA $0678   A:aa X:33 Y:bc P:a5 SP:fb
d638  20 04 f8   JSR $f804   A:aa X:33 Y:bc P:a5 SP:fb
f804  18         CLC         A:aa X:33 Y:bc P:a5 SP:f9
f805  24 01      BIT $01     A:aa X:33 Y:bc P:a4 SP:f9
f807  a9 5f      LDA #$5f    A:aa X:33 Y:bc P:e4 SP:f9
f809  60         RTS         A:5f X:33 Y:bc P:64 SP:f9
d63b  4d 78 06   EOR $0678   A:5f X:33 Y:bc P:64 SP:fb
d63e  20 0a f8   JSR $f80a   A:f5 X:33 Y:bc P:e4 SP:fb
f80a  b0 09      BCS $f815   A:f5 X:33 Y:bc P:e4 SP:f9
f80c  10 07      BPL $f815   A:f5 X:33 Y:bc P:e4 SP:f9
f80e  c9 f5      CMP #$f5    A:f5 X:33 Y:bc P:e4 SP:f9
f810  d0 03      BNE $f815   A:f5 X:33 Y:bc P:67 SP:f9
f812  50 01      BVC $f815   A:f5 X:33 Y:bc P:67 SP:f9
f814  60         RTS         A:f5 X:33 Y:bc P:67 SP:f9
d641  c8         INY         A:f5 X:33 Y:bc P:67 SP:fb
d642  a9 70      LDA #$70    A:f5 X:33 Y:bd P:e5 SP:fb
d644  8d 78 06   STA $0678   A:70 X:33 Y:bd P:65 SP:fb
d647  20 18 f8   JSR $f818   A:70 X:33 Y:bd P:65 SP:fb
f818  38         SEC         A:70 X:33 Y:bd P:65 SP:f9
f819  b8         CLV         A:70 X:33 Y:bd P:65 SP:f9
f81a  a9 70      LDA #$70    A:70 X:33 Y:bd P:25 SP:f9
f81c  60         RTS         A:70 X:33 Y:bd P:25 SP:f9
d64a  4d 78 06   EOR $0678   A:70 X:33 Y:bd P:25 SP:fb
d64d  20 1d f8   JSR $f81d   A:00 X:33 Y:bd P:27 SP:fb
f81d  d0 07      BNE $f826   A:00 X:33 Y:bd P:27 SP:f9
f81f  70 05      BVS $f826   A:00 X:33 Y:bd P:27 SP:f9
f821  90 03      BCC $f826   A:00 X:33 Y:bd P:27 SP:f9
f823  30 01      BMI $f826   A:00 X:33 Y:bd P:27 SP:f9
f825  60         RTS         A:00 X:33 Y:bd P:27 SP:f9
d650  c8         INY         A:00 X:33 Y:bd P:27 SP:fb
d651  a9 69      LDA #$69    A:00 X:33 Y:be P:a5 SP:fb
d653  8d 78 06   STA $0678   A:69 X:33 Y:be P:25 SP:fb
d656  20 29 f8   JSR $f829   A:69 X:33 Y:be P:25 SP:fb
f829  18         CLC         A:69 X:33 Y:be P:25 SP:f9
f82a  24 01      BIT $01     A:69 X:33 Y:be P:24 SP:f9
f82c  a9 00      LDA #$00    A:69 X:33 Y:be P:e4 SP:f9
f82e  60         RTS         A:00 X:33 Y:be P:66 SP:f9
d659  6d 78 06   ADC $0678   A:00 X:33 Y:be P:66 SP:fb
d65c  20 2f f8   JSR $f82f   A:69 X:33 Y:be P:24 SP:fb
f82f  30 09      BMI $f83a   A:69 X:33 Y:be P:24 SP:f9
f831  b0 07      BCS $f83a   A:69 X:33 Y:be P:24 SP:f9
f833  c9 69      CMP #$69    A:69 X:33 Y:be P:24 SP:f9
f835  d0 03      BNE $f83a   A:69 X:33 Y:be P:27 SP:f9
f837  70 01      BVS $f83a   A:69 X:33 Y:be P:27 SP:f9
f839  60         RTS         A:69 X:33 Y:be P:27 SP:f9
d65f  c8         INY         A:69 X:33 Y:be P:27 SP:fb
d660  20 3d f8   JSR $f83d   A:69 X:33 Y:bf P:a5 SP:fb
f83d  38         SEC         A:69 X:33 Y:bf P:a5 SP:f9
f83e  24 01      BIT $01     A:69 X:33 Y:bf P:a5 SP:f9
f840  a9 00      LDA #$00    A:69 X:33 Y:bf P:e5 SP:f9
f842  60         RTS         A:00 X:33 Y:bf P:67 SP:f9
d663  6d 78 06   ADC $0678   A:00 X:33 Y:bf P:67 SP:fb
d666  20 43 f8   JSR $f843   A:6a X:33 Y:bf P:24 SP:fb
f843  30 09      BMI $f84e   A:6a X:33 Y:bf P:24 SP:f9
f845  b0 07      BCS $f84e   A:6a X:33 Y:bf P:24 SP:f9
f847  c9 6a      CMP #$6a    A:6a X:33 Y:bf P:24 SP:f9
f849  d0 03      BNE $f84e   A:6a X:33 Y:bf P:27 SP:f9
f84b  70 01      BVS $f84e   A:6a X:33 Y:bf P:27 SP:f9
f84d  60         RTS         A:6a X:33 Y:bf P:27 SP:f9
d669  c8         INY         A:6a X:33 Y:bf P:27 SP:fb
d66a  a9 7f      LDA #$7f    A:6a X:33 Y:c0 P:a5 SP:fb
d66c  8d 78 06   STA $0678   A:7f X:33 Y:c0 P:25 SP:fb
d66f  20 51 f8   JSR $f851   A:7f X:33 Y:c0 P:25 SP:fb
f851  38         SEC         A:7f X:33 Y:c0 P:25 SP:f9
f852  b8         CLV         A:7f X:33 Y:c0 P:25 SP:f9
f853  a9 7f      LDA #$7f    A:7f X:33 Y:c0 P:25 SP:f9
f855  60         RTS         A:7f X:33 Y:c0 P:25 SP:f9
d672  6d 78 06   ADC $0678   A:7f X:33 Y:c0 P:25 SP:fb
d675  20 56 f8   JSR $f856   A:ff X:33 Y:c0 P:e4 SP:fb
f856  10 09      BPL $f861   A:ff X:33 Y:c0 P:e4 SP:f9
f858  b0 07      BCS $f861   A:ff X:33 Y:c0 P:e4 SP:f9
f85a  c9 ff      CMP #$ff    A:ff X:33 Y:c0 P:e4 SP:f9
f85c  d0 03      BNE $f861   A:ff X:33 Y:c0 P:67 SP:f9
f85e  50 01      BVC $f861   A:ff X:33 Y:c0 P:67 SP:f9
f860  60         RTS         A:ff X:33 Y:c0 P:67 SP:f9
d678  c8         INY         A:ff X:33 Y:c0 P:67 SP:fb
d679  a9 80      LDA #$80    A:ff X:33 Y:c1 P:e5 SP:fb
d67b  8d 78 06   STA $0678   A:80 X:33 Y:c1 P:e5 SP:fb
d67e  20 64 f8   JSR $f864   A:80 X:33 Y:c1 P:e5 SP:fb
f864  18         CLC         A:80 X:33 Y:c1 P:e5 SP:f9
f865  24 01      BIT $01     A:80 X:33 Y:c1 P:e4 SP:f9
f867  a9 7f      LDA #$7f    A:80 X:33 Y:c1 P:e4 SP:f9
f869  60         RTS         A:7f X:33 Y:c1 P:64 SP:f9
d681  6d 78 06   ADC $0678   A:7f X:33 Y:c1 P:64 SP:fb
d684  20 6a f8   JSR $f86a   A:ff X:33 Y:c1 P:a4 SP:fb
f86a  10 09      BPL $f875   A:ff X:33 Y:c1 P:a4 SP:f9
f86c  b0 07      BCS $f875   A:ff X:33 Y:c1 P:a4 SP:f9
f86e  c9 ff      CMP #$ff    A:ff X:33 Y:c1 P:a4 SP:f9
f870  d0 03      BNE $f875   A:ff X:33 Y:c1 P:27 SP:f9
f872  70 01      BVS $f875   A:ff X:33 Y:c1 P:27 SP:f9
f874  60         RTS         A:ff X:33 Y:c1 P:27 SP:f9
d687  c8         INY         A:ff X:33 Y:c1 P:27 SP:fb
d688  20 78 f8   JSR $f878   A:ff X:33 Y:c2 P:a5 SP:fb
f878  38         SEC         A:ff X:33 Y:c2 P:a5 SP:f9
f879  b8         CLV         A:ff X:33 Y:c2 P:a5 SP:f9
f87a  a9 7f      LDA #$7f    A:ff X:33 Y:c2 P:a5 SP:f9
f87c  60         RTS         A:7f X:33 Y:c2 P:25 SP:f9
d68b  6d 78 06   ADC $0678   A:7f X:33 Y:c2 P:25 SP:fb
d68e  20 7d f8   JSR $f87d   A:00 X:33 Y:c2 P:27 SP:fb
f87d  d0 07      BNE $f886   A:00 X:33 Y:c2 P:27 SP:f9
f87f  30 05      BMI $f886   A:00 X:33 Y:c2 P:27 SP:f9
f881  70 03      BVS $f886   A:00 X:33 Y:c2 P:27 SP:f9
f883  90 01      BCC $f886   A:00 X:33 Y:c2 P:27 SP:f9
f885  60         RTS         A:00 X:33 Y:c2 P:27 SP:f9
d691  c8         INY         A:00 X:33 Y:c2 P:27 SP:fb
d692  a9 40      LDA #$40    A:00 X:33 Y:c3 P:a5 SP:fb
d694  8d 78 06   STA $0678   A:40 X:33 Y:c3 P:25 SP:fb
d697  20 89 f8   JSR $f889   A:40 X:33 Y:c3 P:25 SP:fb
f889  24 01      BIT $01     A:40 X:33 Y:c3 P:25 SP:f9
f88b  a9 40      LDA #$40    A:40 X:33 Y:c3 P:e5 SP:f9
f88d  60         RTS         A:40 X:33 Y:c3 P:65 SP:f9
d69a  cd 78 06   CMP $0678   A:40 X:33 Y:c3 P:65 SP:fb
d69d  20 8e f8   JSR $f88e   A:40 X:33 Y:c3 P:67 SP:fb
f88e  30 07      BMI $f897   A:40 X:33 Y:c3 P:67 SP:f9
f890  90 05      BCC $f897   A:40 X:33 Y:c3 P:67 SP:f9
f892  d0 03      BNE $f897   A:40 X:33 Y:c3 P:67 SP:f9
f894  50 01      BVC $f897   A:40 X:33 Y:c3 P:67 SP:f9
f896  60         RTS         A:40 X:33 Y:c3 P:67 SP:f9
d6a0  c8         INY         A:40 X:33 Y:c3 P:67 SP:fb
d6a1  48         PHA         A:40 X:33 Y:c4 P:e5 SP:fb
d6a2  a9 3f      LDA #$3f    A:40 X:33 Y:c4 P:e5 SP:fa
d6a4  8d 78 06   STA $0678   A:3f X:33 Y:c4 P:65 SP:fa
d6a7  68         PLA         A:3f X:33 Y:c4 P:65 SP:fa
d6a8  20 9a f8   JSR $f89a   A:40 X:33 Y:c4 P:65 SP:fb
f89a  b8         CLV         A:40 X:33 Y:c4 P:65 SP:f9
f89b  60         RTS         A:40 X:33 Y:c4 P:25 SP:f9
d6ab  cd 78 06   CMP $0678   A:40 X:33 Y:c4 P:25 SP:fb
d6ae  20 9c f8   JSR $f89c   A:40 X:33 Y:c4 P:25 SP:fb
f89c  f0 07      BEQ $f8a5   A:40 X:33 Y:c4 P:25 SP:f9
f89e  30 05      BMI $f8a5   A:40 X:33 Y:c4 P:25 SP:f9
f8a0  90 03      BCC $f8a5   A:40 X:33 Y:c4 P:25 SP:f9
f8a2  70 01      BVS $f8a5   A:40 X:33 Y:c4 P:25 SP:f9
f8a4  60         RTS         A:40 X:33 Y:c4 P:25 SP:f9
d6b1  c8         INY         A:40 X:33 Y:c4 P:25 SP:fb
d6b2  48         PHA         A:40 X:33 Y:c5 P:a5 SP:fb
d6b3  a9 41      LDA #$41    A:40 X:33 Y:c5 P:a5 SP:fa
d6b5  8d 78 06   STA $0678   A:41 X:33 Y:c5 P:25 SP:fa
d6b8  68         PLA         A:41 X:33 Y:c5 P:25 SP:fa
d6b9  cd 78 06   CMP $0678   A:40 X:33 Y:c5 P:25 SP:fb
d6bc  20 a8 f8   JSR $f8a8   A:40 X:33 Y:c5 P:a4 SP:fb
f8a8  f0 05      BEQ $f8af   A:40 X:33 Y:c5 P:a4 SP:f9
f8aa  10 03      BPL $f8af   A:40 X:33 Y:c5 P:a4 SP:f9
f8ac  10 01      BPL $f8af   A:40 X:33 Y:c5 P:a4 SP:f9
f8ae  60         RTS         A:40 X:33 Y:c5 P:a4 SP:f9
d6bf  c8         INY         A:40 X:33 Y:c5 P:a4 SP:fb
d6c0  48         PHA         A:40 X:33 Y:c6 P:a4 SP:fb
d6c1  a9 00      LDA #$00    A:40 X:33 Y:c6 P:a4 SP:fa
d6c3  8d 78 06   STA $0678   A:00 X:33 Y:c6 P:26 SP:fa
d6c6  68         PLA         A:00 X:33 Y:c6 P:26 SP:fa
d6c7  20 b2 f8   JSR $f8b2   A:40 X:33 Y:c6 P:24 SP:fb
f8b2  a9 80      LDA #$80    A:40 X:33 Y:c6 P:24 SP:f9
f8b4  60         RTS         A:80 X:33 Y:c6 P:a4 SP:f9
d6ca  cd 78 06   CMP $0678   A:80 X:33 Y:c6 P:a4 SP:fb
d6cd  20 b5 f8   JSR $f8b5   A:80 X:33 Y:c6 P:a5 SP:fb
f8b5  f0 05      BEQ $f8bc   A:80 X:33 Y:c6 P:a5 SP:f9
f8b7  10 03      BPL $f8bc   A:80 X:33 Y:c6 P:a5 SP:f9
f8b9  90 01      BCC $f8bc   A:80 X:33 Y:c6 P:a5 SP:f9
f8bb  60         RTS         A:80 X:33 Y:c6 P:a5 SP:f9
d6d0  c8         INY         A:80 X:33 Y:c6 P:a5 SP:fb
d6d1  48         PHA         A:80 X:33 Y:c7 P:a5 SP:fb
d6d2  a9 80      LDA #$80    A:80 X:33 Y:c7 P:a5 SP:fa
d6d4  8d 78 06   STA $0678   A:80 X:33 Y:c7 P:a5 SP:fa
d6d7  68         PLA         A:80 X:33 Y:c7 P:a5 SP:fa
d6d8  cd 78 06   CMP $0678   A:80 X:33 Y:c7 P:a5 SP:fb
d6db  20 bf f8   JSR $f8bf   A:80 X:33 Y:c7 P:27 SP:fb
f8bf  d0 05      BNE $f8c6   A:80 X:33 Y:c7 P:27 SP:f9
f8c1  30 03      BMI $f8c6   A:80 X:33 Y:c7 P:27 SP:f9
f8c3  90 01      BCC $f8c6   A:80 X:33 Y:c7 P:27 SP:f9
f8c5  60         RTS         A:80 X:33 Y:c7 P:27 SP:f9
d6de  c8         INY         A:80 X:33 Y:c7 P:27 SP:fb
d6df  48         PHA         A:80 X:33 Y:c8 P:a5 SP:fb
d6e0  a9 81      LDA #$81    A:80 X:33 Y:c8 P:a5 SP:fa
d6e2  8d 78 06   STA $0678   A:81 X:33 Y:c8 P:a5 SP:fa
d6e5  68         PLA         A:81 X:33 Y:c8 P:a5 SP:fa
d6e6  cd 78 06   CMP $0678   A:80 X:33 Y:c8 P:a5 SP:fb
d6e9  20 c9 f8   JSR $f8c9   A:80 X:33 Y:c8 P:a4 SP:fb
f8c9  b0 05      BCS $f8d0   A:80 X:33 Y:c8 P:a4 SP:f9
f8cb  f0 03      BEQ $f8d0   A:80 X:33 Y:c8 P:a4 SP:f9
f8cd  10 01      BPL $f8d0   A:80 X:33 Y:c8 P:a4 SP:f9
f8cf  60         RTS         A:80 X:33 Y:c8 P:a4 SP:f9
d6ec  c8         INY         A:80 X:33 Y:c8 P:a4 SP:fb
d6ed  48         PHA         A:80 X:33 Y:c9 P:a4 SP:fb
d6ee  a9 7f      LDA #$7f    A:80 X:33 Y:c9 P:a4 SP:fa
d6f0  8d 78 06   STA $0678   A:7f X:33 Y:c9 P:24 SP:fa
d6f3  68         PLA         A:7f X:33 Y:c9 P:24 SP:fa
d6f4  cd 78 06   CMP $0678   A:80 X:33 Y:c9 P:a4 SP:fb
d6f7  20 d3 f8   JSR $f8d3   A:80 X:33 Y:c9 P:25 SP:fb
f8d3  90 05      BCC $f8da   A:80 X:33 Y:c9 P:25 SP:f9
f8d5  f0 03      BEQ $f8da   A:80 X:33 Y:c9 P:25 SP:f9
f8d7  30 01      BMI $f8da   A:80 X:33 Y:c9 P:25 SP:f9
f8d9  60         RTS         A:80 X:33 Y:c9 P:25 SP:f9
d6fa  c8         INY         A:80 X:33 Y:c9 P:25 SP:fb
d6fb  a9 40      LDA #$40    A:80 X:33 Y:ca P:a5 SP:fb
d6fd  8d 78 06   STA $0678   A:40 X:33 Y:ca P:25 SP:fb
d700  20 31 f9   JSR $f931   A:40 X:33 Y:ca P:25 SP:fb
f931  24 01      BIT $01     A:40 X:33 Y:ca P:25 SP:f9
f933  a9 40      LDA #$40    A:40 X:33 Y:ca P:e5 SP:f9
f935  38         SEC         A:40 X:33 Y:ca P:65 SP:f9
f936  60         RTS         A:40 X:33 Y:ca P:65 SP:f9
d703  ed 78 06   SBC $0678   A:40 X:33 Y:ca P:65 SP:fb
d706  20 37 f9   JSR $f937   A:00 X:33 Y:ca P:27 SP:fb
f937  30 0b      BMI $f944   A:00 X:33 Y:ca P:27 SP:f9
f939  90 09      BCC $f944   A:00 X:33 Y:ca P:27 SP:f9
f93b  d0 07      BNE $f944   A:00 X:33 Y:ca P:27 SP:f9
f93d  70 05      BVS $f944   A:00 X:33 Y:ca P:27 SP:f9
f93f  c9 00      CMP #$00    A:00 X:33 Y:ca P:27 SP:f9
f941  d0 01      BNE $f944   A:00 X:33 Y:ca P:27 SP:f9
f943  60         RTS         A:00 X:33 Y:ca P:27 SP:f9
d709  c8         INY         A:00 X:33 Y:ca P:27 SP:fb
d70a  a9 3f      LDA #$3f    A:00 X:33 Y:cb P:a5 SP:fb
d70c  8d 78 06   STA $0678   A:3f X:33 Y:cb P:25 SP:fb
d70f  20 47 f9   JSR $f947   A:3f X:33 Y:cb P:25 SP:fb
f947  b8         CLV         A:3f X:33 Y:cb P:25 SP:f9
f948  38         SEC         A:3f X:33 Y:cb P:25 SP:f9
f949  a9 40      LDA #$40    A:3f X:33 Y:cb P:25 SP:f9
f94b  60         RTS         A:40 X:33 Y:cb P:25 SP:f9
d712  ed 78 06   SBC $0678   A:40 X:33 Y:cb P:25 SP:fb
d715  20 4c f9   JSR $f94c   A:01 X:33 Y:cb P:25 SP:fb
f94c  f0 0b      BEQ $f959   A:01 X:33 Y:cb P:25 SP:f9
f94e  30 09      BMI $f959   A:01 X:33 Y:cb P:25 SP:f9
f950  90 07      BCC $f959   A:01 X:33 Y:cb P:25 SP:f9
f952  70 05      BVS $f959   A:01 X:33 Y:cb P:25 SP:f9
f954  c9 01      CMP #$01    A:01 X:33 Y:cb P:25 SP:f9
f956  d0 01      BNE $f959   A:01 X:33 Y:cb P:27 SP:f9
f958  60         RTS         A:01 X:33 Y:cb P:27 SP:f9
d718  c8         INY         A:01 X:33 Y:cb P:27 SP:fb
d719  a9 41      LDA #$41    A:01 X:33 Y:cc P:a5 SP:fb
d71b  8d 78 06   STA $0678   A:41 X:33 Y:cc P:25 SP:fb
d71e  20 5c f9   JSR $f95c   A:41 X:33 Y:cc P:25 SP:fb
f95c  a9 40      LDA #$40    A:41 X:33 Y:cc P:25 SP:f9
f95e  38         SEC         A:40 X:33 Y:cc P:25 SP:f9
f95f  24 01      BIT $01     A:40 X:33 Y:cc P:25 SP:f9
f961  60         RTS         A:40 X:33 Y:cc P:e5 SP:f9
d721  ed 78 06   SBC $0678   A:40 X:33 Y:cc P:e5 SP:fb
d724  20 62 f9   JSR $f962   A:ff X:33 Y:cc P:a4 SP:fb
f962  b0 0b      BCS $f96f   A:ff X:33 Y:cc P:a4 SP:f9
f964  f0 09      BEQ $f96f   A:ff X:33 Y:cc P:a4 SP:f9
f966  10 07      BPL $f96f   A:ff X:33 Y:cc P:a4 SP:f9
f968  70 05      BVS $f96f   A:ff X:33 Y:cc P:a4 SP:f9
f96a  c9 ff      CMP #$ff    A:ff X:33 Y:cc P:a4 SP:f9
f96c  d0 01      BNE $f96f   A:ff X:33 Y:cc P:27 SP:f9
f96e  60         RTS         A:ff X:33 Y:cc P:27 SP:f9
d727  c8         INY         A:ff X:33 Y:cc P:27 SP:fb
d728  a9 00      LDA #$00    A:ff X:33 Y:cd P:a5 SP:fb
d72a  8d 78 06   STA $0678   A:00 X:33 Y:cd P:27 SP:fb
d72d  20 72 f9   JSR $f972   A:00 X:33 Y:cd P:27 SP:fb
f972  18         CLC         A:00 X:33 Y:cd P:27 SP:f9
f973  a9 80      LDA #$80    A:00 X:33 Y:cd P:26 SP:f9
f975  60         RTS         A:80 X:33 Y:cd P:a4 SP:f9
d730  ed 78 06   SBC $0678   A:80 X:33 Y:cd P:a4 SP:fb
d733  20 76 f9   JSR $f976   A:7f X:33 Y:cd P:65 SP:fb
f976  90 05      BCC $f97d   A:7f X:33 Y:cd P:65 SP:f9
f978  c9 7f      CMP #$7f    A:7f X:33 Y:cd P:65 SP:f9
f97a  d0 01      BNE $f97d   A:7f X:33 Y:cd P:67 SP:f9
f97c  60         RTS         A:7f X:33 Y:cd P:67 SP:f9
d736  c8         INY         A:7f X:33 Y:cd P:67 SP:fb
d737  a9 7f      LDA #$7f    A:7f X:33 Y:ce P:e5 SP:fb
d739  8d 78 06   STA $0678   A:7f X:33 Y:ce P:65 SP:fb
d73c  20 80 f9   JSR $f980   A:7f X:33 Y:ce P:65 SP:fb
f980  38         SEC         A:7f X:33 Y:ce P:65 SP:f9
f981  a9 81      LDA #$81    A:7f X:33 Y:ce P:65 SP:f9
f983  60         RTS         A:81 X:33 Y:ce P:e5 SP:f9
d73f  ed 78 06   SBC $0678   A:81 X:33 Y:ce P:e5 SP:fb
d742  20 84 f9   JSR $f984   A:02 X:33 Y:ce P:65 SP:fb
f984  50 07      BVC $f98d   A:02 X:33 Y:ce P:65 SP:f9
f986  90 05      BCC $f98d   A:02 X:33 Y:ce P:65 SP:f9
f988  c9 02      CMP #$02    A:02 X:33 Y:ce P:65 SP:f9
f98a  d0 01      BNE $f98d   A:02 X:33 Y:ce P:67 SP:f9
f98c  60         RTS         A:02 X:33 Y:ce P:67 SP:f9
d745  c8         INY         A:02 X:33 Y:ce P:67 SP:fb
d746  a9 40      LDA #$40    A:02 X:33 Y:cf P:e5 SP:fb
d748  8d 78 06   STA $0678   A:40 X:33 Y:cf P:65 SP:fb
d74b  20 89 f8   JSR $f889   A:40 X:33 Y:cf P:65 SP:fb
f889  24 01      BIT $01     A:40 X:33 Y:cf P:65 SP:f9
f88b  a9 40      LDA #$40    A:40 X:33 Y:cf P:e5 SP:f9
f88d  60         RTS         A:40 X:33 Y:cf P:65 SP:f9
d74e  aa         TAX         A:40 X:33 Y:cf P:65 SP:fb
d74f  ec 78 06   CPX $0678   A:40 X:40 Y:cf P:65 SP:fb
d752  20 8e f8   JSR $f88e   A:40 X:40 Y:cf P:67 SP:fb
f88e  30 07      BMI $f897   A:40 X:40 Y:cf P:67 SP:f9
f890  90 05      BCC $f897   A:40 X:40 Y:cf P:67 SP:f9
f892  d0 03      BNE $f897   A:40 X:40 Y:cf P:67 SP:f9
f894  50 01      BVC $f897   A:40 X:40 Y:cf P:67 SP:f9
f896  60         RTS         A:40 X:40 Y:cf P:67 SP:f9
d755  c8         INY         A:40 X:40 Y:cf P:67 SP:fb
d756  a9 3f      LDA #$3f    A:40 X:40 Y:d0 P:e5 SP:fb
d758  8d 78 06   STA $0678   A:3f X:40 Y:d0 P:65 SP:fb
d75b  20 9a f8   JSR $f89a   A:3f X:40 Y:d0 P:65 SP:fb
f89a  b8         CLV         A:3f X:40 Y:d0 P:65 SP:f9
f89b  60         RTS         A:3f X:40 Y:d0 P:25 SP:f9
d75e  ec 78 06   CPX $0678   A:3f X:40 Y:d0 P:25 SP:fb
d761  20 9c f8   JSR $f89c   A:3f X:40 Y:d0 P:25 SP:fb
f89c  f0 07      BEQ $f8a5   A:3f X:40 Y:d0 P:25 SP:f9
f89e  30 05      BMI $f8a5   A:3f X:40 Y:d0 P:25 SP:f9
f8a0  90 03      BCC $f8a5   A:3f X:40 Y:d0 P:25 SP:f9
f8a2  70 01      BVS $f8a5   A:3f X:40 Y:d0 P:25 SP:f9
f8a4  60         RTS         A:3f X:40 Y:d0 P:25 SP:f9
d764  c8         INY         A:3f X:40 Y:d0 P:25 SP:fb
d765  a9 41      LDA #$41    A:3f X:40 Y:d1 P:a5 SP:fb
d767  8d 78 06   STA $0678   A:41 X:40 Y:d1 P:25 SP:fb
d76a  ec 78 06   CPX $0678   A:41 X:40 Y:d1 P:25 SP:fb
d76d  20 a8 f8   JSR $f8a8   A:41 X:40 Y:d1 P:a4 SP:fb
f8a8  f0 05      BEQ $f8af   A:41 X:40 Y:d1 P:a4 SP:f9
f8aa  10 03      BPL $f8af   A:41 X:40 Y:d1 P:a4 SP:f9
f8ac  10 01      BPL $f8af   A:41 X:40 Y:d1 P:a4 SP:f9
f8ae  60         RTS         A:41 X:40 Y:d1 P:a4 SP:f9
d770  c8         INY         A:41 X:40 Y:d1 P:a4 SP:fb
d771  a9 00      LDA #$00    A:41 X:40 Y:d2 P:a4 SP:fb
d773  8d 78 06   STA $0678   A:00 X:40 Y:d2 P:26 SP:fb
d776  20 b2 f8   JSR $f8b2   A:00 X:40 Y:d2 P:26 SP:fb
f8b2  a9 80      LDA #$80    A:00 X:40 Y:d2 P:26 SP:f9
f8b4  60         RTS         A:80 X:40 Y:d2 P:a4 SP:f9
d779  aa         TAX         A:80 X:40 Y:d2 P:a4 SP:fb
d77a  ec 78 06   CPX $0678   A:80 X:80 Y:d2 P:a4 SP:fb
d77d  20 b5 f8   JSR $f8b5   A:80 X:80 Y:d2 P:a5 SP:fb
f8b5  f0 05      BEQ $f8bc   A:80 X:80 Y:d2 P:a5 SP:f9
f8b7  10 03      BPL $f8bc   A:80 X:80 Y:d2 P:a5 SP:f9
f8b9  90 01      BCC $f8bc   A:80 X:80 Y:d2 P:a5 SP:f9
f8bb  60         RTS         A:80 X:80 Y:d2 P:a5 SP:f9
d780  c8         INY         A:80 X:80 Y:d2 P:a5 SP:fb
d781  a9 80      LDA #$80    A:80 X:80 Y:d3 P:a5 SP:fb
d783  8d 78 06   STA $0678   A:80 X:80 Y:d3 P:a5 SP:fb
d786  ec 78 06   CPX $0678   A:80 X:80 Y:d3 P:a5 SP:fb
d789  20 bf f8   JSR $f8bf   A:80 X:80 Y:d3 P:27 SP:fb
f8bf  d0 05      BNE $f8c6   A:80 X:80 Y:d3 P:27 SP:f9
f8c1  30 03      BMI $f8c6   A:80 X:80 Y:d3 P:27 SP:f9
f8c3  90 01      BCC $f8c6   A:80 X:80 Y:d3 P:27 SP:f9
f8c5  60         RTS         A:80 X:80 Y:d3 P:27 SP:f9
d78c  c8         INY         A:80 X:80 Y:d3 P:27 SP:fb
d78d  a9 81      LDA #$81    A:80 X:80 Y:d4 P:a5 SP:fb
d78f  8d 78 06   STA $0678   A:81 X:80 Y:d4 P:a5 SP:fb
d792  ec 78 06   CPX $0678   A:81 X:80 Y:d4 P:a5 SP:fb
d795  20 c9 f8   JSR $f8c9   A:81 X:80 Y:d4 P:a4 SP:fb
f8c9  b0 05      BCS $f8d0   A:81 X:80 Y:d4 P:a4 SP:f9
f8cb  f0 03      BEQ $f8d0   A:81 X:80 Y:d4 P:a4 SP:f9
f8cd  10 01      BPL $f8d0   A:81 X:80 Y:d4 P:a4 SP:f9
f8cf  60         RTS         A:81 X:80 Y:d4 P:a4 SP:f9
d798  c8         INY         A:81 X:80 Y:d4 P:a4 SP:fb
d799  a9 7f      LDA #$7f    A:81 X:80 Y:d5 P:a4 SP:fb
d79b  8d 78 06   STA $0678   A:7f X:80 Y:d5 P:24 SP:fb
d79e  ec 78 06   CPX $0678   A:7f X:80 Y:d5 P:24 SP:fb
d7a1  20 d3 f8   JSR $f8d3   A:7f X:80 Y:d5 P:25 SP:fb
f8d3  90 05      BCC $f8da   A:7f X:80 Y:d5 P:25 SP:f9
f8d5  f0 03      BEQ $f8da   A:7f X:80 Y:d5 P:25 SP:f9
f8d7  30 01      BMI $f8da   A:7f X:80 Y:d5 P:25 SP:f9
f8d9  60         RTS         A:7f X:80 Y:d5 P:25 SP:f9
d7a4  c8         INY         A:7f X:80 Y:d5 P:25 SP:fb
d7a5  98         TYA         A:7f X:80 Y:d6 P:a5 SP:fb
d7a6  aa         TAX         A:d6 X:80 Y:d6 P:a5 SP:fb
d7a7  a9 40      LDA #$40    A:d6 X:d6 Y:d6 P:a5 SP:fb
d7a9  8d 78 06   STA $0678   A:40 X:d6 Y:d6 P:25 SP:fb
d7ac  20 dd f8   JSR $f8dd   A:40 X:d6 Y:d6 P:25 SP:fb
f8dd  24 01      BIT $01     A:40 X:d6 Y:d6 P:25 SP:f9
f8df  a0 40      LDY #$40    A:40 X:d6 Y:d6 P:e5 SP:f9
f8e1  60         RTS         A:40 X:d6 Y:40 P:65 SP:f9
d7af  cc 78 06   CPY $0678   A:40 X:d6 Y:40 P:65 SP:fb
d7b2  20 e2 f8   JSR $f8e2   A:40 X:d6 Y:40 P:67 SP:fb
f8e2  30 07      BMI $f8eb   A:40 X:d6 Y:40 P:67 SP:f9
f8e4  90 05      BCC $f8eb   A:40 X:d6 Y:40 P:67 SP:f9
f8e6  d0 03      BNE $f8eb   A:40 X:d6 Y:40 P:67 SP:f9
f8e8  50 01      BVC $f8eb   A:40 X:d6 Y:40 P:67 SP:f9
f8ea  60         RTS         A:40 X:d6 Y:40 P:67 SP:f9
d7b5  e8         INX         A:40 X:d6 Y:40 P:67 SP:fb
d7b6  a9 3f      LDA #$3f    A:40 X:d7 Y:40 P:e5 SP:fb
d7b8  8d 78 06   STA $0678   A:3f X:d7 Y:40 P:65 SP:fb
d7bb  20 ee f8   JSR $f8ee   A:3f X:d7 Y:40 P:65 SP:fb
f8ee  b8         CLV         A:3f X:d7 Y:40 P:65 SP:f9
f8ef  60         RTS         A:3f X:d7 Y:40 P:25 SP:f9
d7be  cc 78 06   CPY $0678   A:3f X:d7 Y:40 P:25 SP:fb
d7c1  20 f0 f8   JSR $f8f0   A:3f X:d7 Y:40 P:25 SP:fb
f8f0  f0 07      BEQ $f8f9   A:3f X:d7 Y:40 P:25 SP:f9
f8f2  30 05      BMI $f8f9   A:3f X:d7 Y:40 P:25 SP:f9
f8f4  90 03      BCC $f8f9   A:3f X:d7 Y:40 P:25 SP:f9
f8f6  70 01      BVS $f8f9   A:3f X:d7 Y:40 P:25 SP:f9
f8f8  60         RTS         A:3f X:d7 Y:40 P:25 SP:f9
d7c4  e8         INX         A:3f X:d7 Y:40 P:25 SP:fb
d7c5  a9 41      LDA #$41    A:3f X:d8 Y:40 P:a5 SP:fb
d7c7  8d 78 06   STA $0678   A:41 X:d8 Y:40 P:25 SP:fb
d7ca  cc 78 06   CPY $0678   A:41 X:d8 Y:40 P:25 SP:fb
d7cd  20 fc f8   JSR $f8fc   A:41 X:d8 Y:40 P:a4 SP:fb
f8fc  f0 05      BEQ $f903   A:41 X:d8 Y:40 P:a4 SP:f9
f8fe  10 03      BPL $f903   A:41 X:d8 Y:40 P:a4 SP:f9
f900  10 01      BPL $f903   A:41 X:d8 Y:40 P:a4 SP:f9
f902  60         RTS         A:41 X:d8 Y:40 P:a4 SP:f9
d7d0  e8         INX         A:41 X:d8 Y:40 P:a4 SP:fb
d7d1  a9 00      LDA #$00    A:41 X:d9 Y:40 P:a4 SP:fb
d7d3  8d 78 06   STA $0678   A:00 X:d9 Y:40 P:26 SP:fb
d7d6  20 06 f9   JSR $f906   A:00 X:d9 Y:40 P:26 SP:fb
f906  a0 80      LDY #$80    A:00 X:d9 Y:40 P:26 SP:f9
f908  60         RTS         A:00 X:d9 Y:80 P:a4 SP:f9
d7d9  cc 78 06   CPY $0678   A:00 X:d9 Y:80 P:a4 SP:fb
d7dc  20 09 f9   JSR $f909   A:00 X:d9 Y:80 P:a5 SP:fb
f909  f0 05      BEQ $f910   A:00 X:d9 Y:80 P:a5 SP:f9
f90b  10 03      BPL $f910   A:00 X:d9 Y:80 P:a5 SP:f9
f90d  90 01      BCC $f910   A:00 X:d9 Y:80 P:a5 SP:f9
f90f  60         RTS         A:00 X:d9 Y:80 P:a5 SP:f9
d7df  e8         INX         A:00 X:d9 Y:80 P:a5 SP:fb
d7e0  a9 80      LDA #$80    A:00 X:da Y:80 P:a5 SP:fb
d7e2  8d 78 06   STA $0678   A:80 X:da Y:80 P:a5 SP:fb
d7e5  cc 78 06   CPY $0678   A:80 X:da Y:80 P:a5 SP:fb
d7e8  20 13 f9   JSR $f913   A:80 X:da Y:80 P:27 SP:fb
f913  d0 05      BNE $f91a   A:80 X:da Y:80 P:27 SP:f9
f915  30 03      BMI $f91a   A:80 X:da Y:80 P:27 SP:f9
f917  90 01      BCC $f91a   A:80 X:da Y:80 P:27 SP:f9
f919  60         RTS         A:80 X:da Y:80 P:27 SP:f9
d7eb  e8         INX         A:80 X:da Y:80 P:27 SP:fb
d7ec  a9 81      LDA #$81    A:80 X:db Y:80 P:a5 SP:fb
d7ee  8d 78 06   STA $0678   A:81 X:db Y:80 P:a5 SP:fb
d7f1  cc 78 06   CPY $0678   A:81 X:db Y:80 P:a5 SP:fb
d7f4  20 1d f9   JSR $f91d   A:81 X:db Y:80 P:a4 SP:fb
f91d  b0 05      BCS $f924   A:81 X:db Y:80 P:a4 SP:f9
f91f  f0 03      BEQ $f924   A:81 X:db Y:80 P:a4 SP:f9
f921  10 01      BPL $f924   A:81 X:db Y:80 P:a4 SP:f9
f923  60         RTS         A:81 X:db Y:80 P:a4 SP:f9
d7f7  e8         INX         A:81 X:db Y:80 P:a4 SP:fb
d7f8  a9 7f      LDA #$7f    A:81 X:dc Y:80 P:a4 SP:fb
d7fa  8d 78 06   STA $0678   A:7f X:dc Y:80 P:24 SP:fb
d7fd  cc 78 06   CPY $0678   A:7f X:dc Y:80 P:24 SP:fb
d800  20 27 f9   JSR $f927   A:7f X:dc Y:80 P:25 SP:fb
f927  90 05      BCC $f92e   A:7f X:dc Y:80 P:25 SP:f9
f929  f0 03      BEQ $f92e   A:7f X:dc Y:80 P:25 SP:f9
f92b  30 01      BMI $f92e   A:7f X:dc Y:80 P:25 SP:f9
f92d  60         RTS         A:7f X:dc Y:80 P:25 SP:f9
d803  e8         INX         A:7f X:dc Y:80 P:25 SP:fb
d804  8a         TXA         A:7f X:dd Y:80 P:a5 SP:fb
d805  a8         TAY         A:dd X:dd Y:80 P:a5 SP:fb
d806  20 90 f9   JSR $f990   A:dd X:dd Y:dd P:a5 SP:fb
f990  a2 55      LDX #$55    A:dd X:dd Y:dd P:a5 SP:f9
f992  a9 ff      LDA #$ff    A:dd X:55 Y:dd P:25 SP:f9
f994  85 01      STA $01     A:ff X:55 Y:dd P:a5 SP:f9
f996  ea         NOP         A:ff X:55 Y:dd P:a5 SP:f9
f997  24 01      BIT $01     A:ff X:55 Y:dd P:a5 SP:f9
f999  38         SEC         A:ff X:55 Y:dd P:e5 SP:f9
f99a  a9 01      LDA #$01    A:ff X:55 Y:dd P:e5 SP:f9
f99c  60         RTS         A:01 X:55 Y:dd P:65 SP:f9
d809  8d 78 06   STA $0678   A:01 X:55 Y:dd P:65 SP:fb
d80c  4e 78 06   LSR $0678   A:01 X:55 Y:dd P:65 SP:fb
d80f  ad 78 06   LDA $0678   A:01 X:55 Y:dd P:67 SP:fb
d812  20 9d f9   JSR $f99d   A:00 X:55 Y:dd P:67 SP:fb
f99d  90 1b      BCC $f9ba   A:00 X:55 Y:dd P:67 SP:f9
f99f  d0 19      BNE $f9ba   A:00 X:55 Y:dd P:67 SP:f9
f9a1  30 17      BMI $f9ba   A:00 X:55 Y:dd P:67 SP:f9
f9a3  50 15      BVC $f9ba   A:00 X:55 Y:dd P:67 SP:f9
f9a5  c9 00      CMP #$00    A:00 X:55 Y:dd P:67 SP:f9
f9a7  d0 11      BNE $f9ba   A:00 X:55 Y:dd P:67 SP:f9
f9a9  b8         CLV         A:00 X:55 Y:dd P:67 SP:f9
f9aa  a9 aa      LDA #$aa    A:00 X:55 Y:dd P:27 SP:f9
f9ac  60         RTS         A:aa X:55 Y:dd P:a5 SP:f9
d815  c8         INY         A:aa X:55 Y:dd P:a5 SP:fb
d816  8d 78 06   STA $0678   A:aa X:55 Y:de P:a5 SP:fb
d819  4e 78 06   LSR $0678   A:aa X:55 Y:de P:a5 SP:fb
d81c  ad 78 06   LDA $0678   A:aa X:55 Y:de P:24 SP:fb
d81f  20 ad f9   JSR $f9ad   A:55 X:55 Y:de P:24 SP:fb
f9ad  b0 0b      BCS $f9ba   A:55 X:55 Y:de P:24 SP:f9
f9af  f0 09      BEQ $f9ba   A:55 X:55 Y:de P:24 SP:f9
f9b1  30 07      BMI $f9ba   A:55 X:55 Y:de P:24 SP:f9
f9b3  70 05      BVS $f9ba   A:55 X:55 Y:de P:24 SP:f9
f9b5  c9 55      CMP #$55    A:55 X:55 Y:de P:24 SP:f9
f9b7  d0 01      BNE $f9ba   A:55 X:55 Y:de P:27 SP:f9
f9b9  60         RTS         A:55 X:55 Y:de P:27 SP:f9
d822  c8         INY         A:55 X:55 Y:de P:27 SP:fb
d823  20 bd f9   JSR $f9bd   A:55 X:55 Y:df P:a5 SP:fb
f9bd  24 01      BIT $01     A:55 X:55 Y:df P:a5 SP:f9
f9bf  38         SEC         A:55 X:55 Y:df P:e5 SP:f9
f9c0  a9 80      LDA #$80    A:55 X:55 Y:df P:e5 SP:f9
f9c2  60         RTS         A:80 X:55 Y:df P:e5 SP:f9
d826  8d 78 06   STA $0678   A:80 X:55 Y:df P:e5 SP:fb
d829  0e 78 06   ASL $0678   A:80 X:55 Y:df P:e5 SP:fb
d82c  ad 78 06   LDA $0678   A:80 X:55 Y:df P:67 SP:fb
d82f  20 c3 f9   JSR $f9c3   A:00 X:55 Y:df P:67 SP:fb
f9c3  90 1c      BCC $f9e1   A:00 X:55 Y:df P:67 SP:f9
f9c5  d0 1a      BNE $f9e1   A:00 X:55 Y:df P:67 SP:f9
f9c7  30 18      BMI $f9e1   A:00 X:55 Y:df P:67 SP:f9
f9c9  50 16      BVC $f9e1   A:00 X:55 Y:df P:67 SP:f9
f9cb  c9 00      CMP #$00    A:00 X:55 Y:df P:67 SP:f9
f9cd  d0 12      BNE $f9e1   A:00 X:55 Y:df P:67 SP:f9
f9cf  b8         CLV         A:00 X:55 Y:df P:67 SP:f9
f9d0  a9 55      LDA #$55    A:00 X:55 Y:df P:27 SP:f9
f9d2  38         SEC         A:55 X:55 Y:df P:25 SP:f9
f9d3  60         RTS         A:55 X:55 Y:df P:25 SP:f9
d832  c8         INY         A:55 X:55 Y:df P:25 SP:fb
d833  8d 78 06   STA $0678   A:55 X:55 Y:e0 P:a5 SP:fb
d836  0e 78 06   ASL $0678   A:55 X:55 Y:e0 P:a5 SP:fb
d839  ad 78 06   LDA $0678   A:55 X:55 Y:e0 P:a4 SP:fb
d83c  20 d4 f9   JSR $f9d4   A:aa X:55 Y:e0 P:a4 SP:fb
f9d4  b0 0b      BCS $f9e1   A:aa X:55 Y:e0 P:a4 SP:f9
f9d6  f0 09      BEQ $f9e1   A:aa X:55 Y:e0 P:a4 SP:f9
f9d8  10 07      BPL $f9e1   A:aa X:55 Y:e0 P:a4 SP:f9
f9da  70 05      BVS $f9e1   A:aa X:55 Y:e0 P:a4 SP:f9
f9dc  c9 aa      CMP #$aa    A:aa X:55 Y:e0 P:a4 SP:f9
f9de  d0 01      BNE $f9e1   A:aa X:55 Y:e0 P:27 SP:f9
f9e0  60         RTS         A:aa X:55 Y:e0 P:27 SP:f9
d83f  c8         INY         A:aa X:55 Y:e0 P:27 SP:fb
d840  20 e4 f9   JSR $f9e4   A:aa X:55 Y:e1 P:a5 SP:fb
f9e4  24 01      BIT $01     A:aa X:55 Y:e1 P:a5 SP:f9
f9e6  38         SEC         A:aa X:55 Y:e1 P:e5 SP:f9
f9e7  a9 01      LDA #$01    A:aa X:55 Y:e1 P:e5 SP:f9
f9e9  60         RTS         A:01 X:55 Y:e1 P:65 SP:f9
d843  8d 78 06   STA $0678   A:01 X:55 Y:e1 P:65 SP:fb
d846  6e 78 06   ROR $0678   A:01 X:55 Y:e1 P:65 SP:fb
d849  ad 78 06   LDA $0678   A:01 X:55 Y:e1 P:e5 SP:fb
d84c  20 ea f9   JSR $f9ea   A:80 X:55 Y:e1 P:e5 SP:fb
f9ea  90 1c      BCC $fa08   A:80 X:55 Y:e1 P:e5 SP:f9
f9ec  f0 1a      BEQ $fa08   A:80 X:55 Y:e1 P:e5 SP:f9
f9ee  10 18      BPL $fa08   A:80 X:55 Y:e1 P:e5 SP:f9
f9f0  50 16      BVC $fa08   A:80 X:55 Y:e1 P:e5 SP:f9
f9f2  c9 80      CMP #$80    A:80 X:55 Y:e1 P:e5 SP:f9
f9f4  d0 12      BNE $fa08   A:80 X:55 Y:e1 P:67 SP:f9
f9f6  b8         CLV         A:80 X:55 Y:e1 P:67 SP:f9
f9f7  18         CLC         A:80 X:55 Y:e1 P:27 SP:f9
f9f8  a9 55      LDA #$55    A:80 X:55 Y:e1 P:26 SP:f9
f9fa  60         RTS         A:55 X:55 Y:e1 P:24 SP:f9
d84f  c8         INY         A:55 X:55 Y:e1 P:24 SP:fb
d850  8d 78 06   STA $0678   A:55 X:55 Y:e2 P:a4 SP:fb
d853  6e 78 06   ROR $0678   A:55 X:55 Y:e2 P:a4 SP:fb
d856  ad 78 06   LDA $0678   A:55 X:55 Y:e2 P:25 SP:fb
d859  20 fb f9   JSR $f9fb   A:2a X:55 Y:e2 P:25 SP:fb
f9fb  90 0b      BCC $fa08   A:2a X:55 Y:e2 P:25 SP:f9
f9fd  f0 09      BEQ $fa08   A:2a X:55 Y:e2 P:25 SP:f9
f9ff  30 07      BMI $fa08   A:2a X:55 Y:e2 P:25 SP:f9
fa01  70 05      BVS $fa08   A:2a X:55 Y:e2 P:25 SP:f9
fa03  c9 2a      CMP #$2a    A:2a X:55 Y:e2 P:25 SP:f9
fa05  d0 01      BNE $fa08   A:2a X:55 Y:e2 P:27 SP:f9
fa07  60         RTS         A:2a X:55 Y:e2 P:27 SP:f9
d85c  c8         INY         A:2a X:55 Y:e2 P:27 SP:fb
d85d  20 0a fa   JSR $fa0a   A:2a X:55 Y:e3 P:a5 SP:fb
fa0a  24 01      BIT $01     A:2a X:55 Y:e3 P:a5 SP:f9
fa0c  38         SEC         A:2a X:55 Y:e3 P:e5 SP:f9
fa0d  a9 80      LDA #$80    A:2a X:55 Y:e3 P:e5 SP:f9
fa0f  60         RTS         A:80 X:55 Y:e3 P:e5 SP:f9
d860  8d 78 06   STA $0678   A:80 X:55 Y:e3 P:e5 SP:fb
d863  2e 78 06   ROL $0678   A:80 X:55 Y:e3 P:e5 SP:fb
d866  ad 78 06   LDA $0678   A:80 X:55 Y:e3 P:65 SP:fb
d869  20 10 fa   JSR $fa10   A:01 X:55 Y:e3 P:65 SP:fb
fa10  90 1c      BCC $fa2e   A:01 X:55 Y:e3 P:65 SP:f9
fa12  f0 1a      BEQ $fa2e   A:01 X:55 Y:e3 P:65 SP:f9
fa14  30 18      BMI $fa2e   A:01 X:55 Y:e3 P:65 SP:f9
fa16  50 16      BVC $fa2e   A:01 X:55 Y:e3 P:65 SP:f9
fa18  c9 01      CMP #$01    A:01 X:55 Y:e3 P:65 SP:f9
fa1a  d0 12      BNE $fa2e   A:01 X:55 Y:e3 P:67 SP:f9
fa1c  b8         CLV         A:01 X:55 Y:e3 P:67 SP:f9
fa1d  18         CLC         A:01 X:55 Y:e3 P:27 SP:f9
fa1e  a9 55      LDA #$55    A:01 X:55 Y:e3 P:26 SP:f9
fa20  60         RTS         A:55 X:55 Y:e3 P:24 SP:f9
d86c  c8         INY         A:55 X:55 Y:e3 P:24 SP:fb
d86d  8d 78 06   STA $0678   A:55 X:55 Y:e4 P:a4 SP:fb
d870  2e 78 06   ROL $0678   A:55 X:55 Y:e4 P:a4 SP:fb
d873  ad 78 06   LDA $0678   A:55 X:55 Y:e4 P:a4 SP:fb
d876  20 21 fa   JSR $fa21   A:aa X:55 Y:e4 P:a4 SP:fb
fa21  b0 0b      BCS $fa2e   A:aa X:55 Y:e4 P:a4 SP:f9
fa23  f0 09      BEQ $fa2e   A:aa X:55 Y:e4 P:a4 SP:f9
fa25  10 07      BPL $fa2e   A:aa X:55 Y:e4 P:a4 SP:f9
fa27  70 05      BVS $fa2e   A:aa X:55 Y:e4 P:a4 SP:f9
fa29  c9 aa      CMP #$aa    A:aa X:55 Y:e4 P:a4 SP:f9
fa2b  d0 01      BNE $fa2e   A:aa X:55 Y:e4 P:27 SP:f9
fa2d  60         RTS         A:aa X:55 Y:e4 P:27 SP:f9
d879  a9 ff      LDA #$ff    A:aa X:55 Y:e4 P:27 SP:fb
d87b  8d 78 06   STA $0678   A:ff X:55 Y:e4 P:a5 SP:fb
d87e  85 01      STA $01     A:ff X:55 Y:e4 P:a5 SP:fb
d880  24 01      BIT $01     A:ff X:55 Y:e4 P:a5 SP:fb
d882  38         SEC         A:ff X:55 Y:e4 P:e5 SP:fb
d883  ee 78 06   INC $0678   A:ff X:55 Y:e4 P:e5 SP:fb
d886  d0 0d      BNE $d895   A:ff X:55 Y:e4 P:67 SP:fb
d888  30 0b      BMI $d895   A:ff X:55 Y:e4 P:67 SP:fb
d88a  50 09      BVC $d895   A:ff X:55 Y:e4 P:67 SP:fb
d88c  90 07      BCC $d895   A:ff X:55 Y:e4 P:67 SP:fb
d88e  ad 78 06   LDA $0678   A:ff X:55 Y:e4 P:67 SP:fb
d891  c9 00      CMP #$00    A:00 X:55 Y:e4 P:67 SP:fb
d893  f0 04      BEQ $d899   A:00 X:55 Y:e4 P:67 SP:fb
d899  a9 7f      LDA #$7f    A:00 X:55 Y:e4 P:67 SP:fb
d89b  8d 78 06   STA $0678   A:7f X:55 Y:e4 P:65 SP:fb
d89e  b8         CLV         A:7f X:55 Y:e4 P:65 SP:fb
d89f  18         CLC         A:7f X:55 Y:e4 P:25 SP:fb
d8a0  ee 78 06   INC $0678   A:7f X:55 Y:e4 P:24 SP:fb
d8a3  f0 0d      BEQ $d8b2   A:7f X:55 Y:e4 P:a4 SP:fb
d8a5  10 0b      BPL $d8b2   A:7f X:55 Y:e4 P:a4 SP:fb
d8a7  70 09      BVS $d8b2   A:7f X:55 Y:e4 P:a4 SP:fb
d8a9  b0 07      BCS $d8b2   A:7f X:55 Y:e4 P:a4 SP:fb
d8ab  ad 78 06   LDA $0678   A:7f X:55 Y:e4 P:a4 SP:fb
d8ae  c9 80      CMP #$80    A:80 X:55 Y:e4 P:a4 SP:fb
d8b0  f0 04      BEQ $d8b6   A:80 X:55 Y:e4 P:27 SP:fb
d8b6  a9 00      LDA #$00    A:80 X:55 Y:e4 P:27 SP:fb
d8b8  8d 78 06   STA $0678   A:00 X:55 Y:e4 P:27 SP:fb
d8bb  24 01      BIT $01     A:00 X:55 Y:e4 P:27 SP:fb
d8bd  38         SEC         A:00 X:55 Y:e4 P:e7 SP:fb
d8be  ce 78 06   DEC $0678   A:00 X:55 Y:e4 P:e7 SP:fb
d8c1  f0 0d      BEQ $d8d0   A:00 X:55 Y:e4 P:e5 SP:fb
d8c3  10 0b      BPL $d8d0   A:00 X:55 Y:e4 P:e5 SP:fb
d8c5  50 09      BVC $d8d0   A:00 X:55 Y:e4 P:e5 SP:fb
d8c7  90 07      BCC $d8d0   A:00 X:55 Y:e4 P:e5 SP:fb
d8c9  ad 78 06   LDA $0678   A:00 X:55 Y:e4 P:e5 SP:fb
d8cc  c9 ff      CMP #$ff    A:ff X:55 Y:e4 P:e5 SP:fb
d8ce  f0 04      BEQ $d8d4   A:ff X:55 Y:e4 P:67 SP:fb
d8d4  a9 80      LDA #$80    A:ff X:55 Y:e4 P:67 SP:fb
d8d6  8d 78 06   STA $0678   A:80 X:55 Y:e4 P:e5 SP:fb
d8d9  b8         CLV         A:80 X:55 Y:e4 P:e5 SP:fb
d8da  18         CLC         A:80 X:55 Y:e4 P:a5 SP:fb
d8db  ce 78 06   DEC $0678   A:80 X:55 Y:e4 P:a4 SP:fb
d8de  f0 0d      BEQ $d8ed   A:80 X:55 Y:e4 P:24 SP:fb
d8e0  30 0b      BMI $d8ed   A:80 X:55 Y:e4 P:24 SP:fb
d8e2  70 09      BVS $d8ed   A:80 X:55 Y:e4 P:24 SP:fb
d8e4  b0 07      BCS $d8ed   A:80 X:55 Y:e4 P:24 SP:fb
d8e6  ad 78 06   LDA $0678   A:80 X:55 Y:e4 P:24 SP:fb
d8e9  c9 7f      CMP #$7f    A:7f X:55 Y:e4 P:24 SP:fb
d8eb  f0 04      BEQ $d8f1   A:7f X:55 Y:e4 P:27 SP:fb
d8f1  a9 01      LDA #$01    A:7f X:55 Y:e4 P:27 SP:fb
d8f3  8d 78 06   STA $0678   A:01 X:55 Y:e4 P:25 SP:fb
d8f6  ce 78 06   DEC $0678   A:01 X:55 Y:e4 P:25 SP:fb
d8f9  f0 04      BEQ $d8ff   A:01 X:55 Y:e4 P:27 SP:fb
d8ff  60         RTS         A:01 X:55 Y:e4 P:27 SP:fb
c618  20 00 d9   JSR $d900   A:01 X:55 Y:e4 P:27 SP:fd
d900  a9 a3      LDA #$a3    A:01 X:55 Y:e4 P:27 SP:fb
d902  85 33      STA $33     A:a3 X:55 Y:e4 P:a5 SP:fb
d904  a9 89      LDA #$89    A:a3 X:55 Y:e4 P:a5 SP:fb
d906  8d 00 03   STA $0300   A:89 X:55 Y:e4 P:a5 SP:fb
d909  a9 12      LDA #$12    A:89 X:55 Y:e4 P:a5 SP:fb
d90b  8d 45 02   STA $0245   A:12 X:55 Y:e4 P:25 SP:fb
d90e  a9 ff      LDA #$ff    A:12 X:55 Y:e4 P:25 SP:fb
d910  85 01      STA $01     A:ff X:55 Y:e4 P:a5 SP:fb
d912  a2 65      LDX #$65    A:ff X:55 Y:e4 P:a5 SP:fb
d914  a9 00      LDA #$00    A:ff X:65 Y:e4 P:25 SP:fb
d916  85 89      STA $89     A:00 X:65 Y:e4 P:27 SP:fb
d918  a9 03      LDA #$03    A:00 X:65 Y:e4 P:27 SP:fb
d91a  85 8a      STA $8a     A:03 X:65 Y:e4 P:25 SP:fb
d91c  a0 00      LDY #$00    A:03 X:65 Y:e4 P:25 SP:fb
d91e  38         SEC         A:03 X:65 Y:00 P:27 SP:fb
d91f  a9 00      LDA #$00    A:03 X:65 Y:00 P:27 SP:fb
d921  b8         CLV         A:00 X:65 Y:00 P:27 SP:fb
d922  b1 89      LDA ($89),Y A:00 X:65 Y:00 P:27 SP:fb
d924  f0 0c      BEQ $d932   A:89 X:65 Y:00 P:a5 SP:fb
d926  90 0a      BCC $d932   A:89 X:65 Y:00 P:a5 SP:fb
d928  70 08      BVS $d932   A:89 X:65 Y:00 P:a5 SP:fb
d92a  c9 89      CMP #$89    A:89 X:65 Y:00 P:a5 SP:fb
d92c  d0 04      BNE $d932   A:89 X:65 Y:00 P:27 SP:fb
d92e  e0 65      CPX #$65    A:89 X:65 Y:00 P:27 SP:fb
d930  f0 04      BEQ $d936   A:89 X:65 Y:00 P:27 SP:fb
d936  a9 ff      LDA #$ff    A:89 X:65 Y:00 P:27 SP:fb
d938  85 97      STA $97     A:ff X:65 Y:00 P:a5 SP:fb
d93a  85 98      STA $98     A:ff X:65 Y:00 P:a5 SP:fb
d93c  24 98      BIT $98     A:ff X:65 Y:00 P:a5 SP:fb
d93e  a0 34      LDY #$34    A:ff X:65 Y:00 P:e5 SP:fb
d940  b1 97      LDA ($97),Y A:ff X:65 Y:34 P:65 SP:fb
d942  c9 a3      CMP #$a3    A:a3 X:65 Y:34 P:e5 SP:fb
d944  d0 02      BNE $d948   A:a3 X:65 Y:34 P:67 SP:fb
d946  b0 04      BCS $d94c   A:a3 X:65 Y:34 P:67 SP:fb
d94c  a5 00      LDA $00     A:a3 X:65 Y:34 P:67 SP:fb
d94e  48         PHA         A:00 X:65 Y:34 P:67 SP:fb
d94f  a9 46      LDA #$46    A:00 X:65 Y:34 P:67 SP:fa
d951  85 ff      STA $ff     A:46 X:65 Y:34 P:65 SP:fa
d953  a9 01      LDA #$01    A:46 X:65 Y:34 P:65 SP:fa
d955  85 00      STA $00     A:01 X:65 Y:34 P:65 SP:fa
d957  a0 ff      LDY #$ff    A:01 X:65 Y:34 P:65 SP:fa
d959  b1 ff      LDA ($ff),Y A:01 X:65 Y:ff P:e5 SP:fa
d95b  c9 12      CMP #$12    A:12 X:65 Y:ff P:65 SP:fa
d95d  f0 04      BEQ $d963   A:12 X:65 Y:ff P:67 SP:fa
d963  68         PLA         A:12 X:65 Y:ff P:67 SP:fa
d964  85 00      STA $00     A:00 X:65 Y:ff P:67 SP:fb
d966  a2 ed      LDX #$ed    A:00 X:65 Y:ff P:67 SP:fb
d968  a9 00      LDA #$00    A:00 X:ed Y:ff P:e5 SP:fb
d96a  85 33      STA $33     A:00 X:ed Y:ff P:67 SP:fb
d96c  a9 04      LDA #$04    A:00 X:ed Y:ff P:67 SP:fb
d96e  85 34      STA $34     A:04 X:ed Y:ff P:65 SP:fb
d970  a0 00      LDY #$00    A:04 X:ed Y:ff P:65 SP:fb
d972  18         CLC         A:04 X:ed Y:00 P:67 SP:fb
d973  a9 ff      LDA #$ff    A:04 X:ed Y:00 P:66 SP:fb
d975  85 01      STA $01     A:ff X:ed Y:00 P:e4 SP:fb
d977  24 01      BIT $01     A:ff X:ed Y:00 P:e4 SP:fb
d979  a9 aa      LDA #$aa    A:ff X:ed Y:00 P:e4 SP:fb
d97b  8d 00 04   STA $0400   A:aa X:ed Y:00 P:e4 SP:fb
d97e  a9 55      LDA #$55    A:aa X:ed Y:00 P:e4 SP:fb
d980  11 33      ORA ($33),Y A:55 X:ed Y:00 P:64 SP:fb
d982  b0 08      BCS $d98c   A:ff X:ed Y:00 P:e4 SP:fb
d984  10 06      BPL $d98c   A:ff X:ed Y:00 P:e4 SP:fb
d986  c9 ff      CMP #$ff    A:ff X:ed Y:00 P:e4 SP:fb
d988  d0 02      BNE $d98c   A:ff X:ed Y:00 P:67 SP:fb
d98a  70 02      BVS $d98e   A:ff X:ed Y:00 P:67 SP:fb
d98e  e8         INX         A:ff X:ed Y:00 P:67 SP:fb
d98f  38         SEC         A:ff X:ee Y:00 P:e5 SP:fb
d990  b8         CLV         A:ff X:ee Y:00 P:e5 SP:fb
d991  a9 00      LDA #$00    A:ff X:ee Y:00 P:a5 SP:fb
d993  11 33      ORA ($33),Y A:00 X:ee Y:00 P:27 SP:fb
d995  f0 06      BEQ $d99d   A:aa X:ee Y:00 P:a5 SP:fb
d997  70 04      BVS $d99d   A:aa X:ee Y:00 P:a5 SP:fb
d999  90 02      BCC $d99d   A:aa X:ee Y:00 P:a5 SP:fb
d99b  30 02      BMI $d99f   A:aa X:ee Y:00 P:a5 SP:fb
d99f  e8         INX         A:aa X:ee Y:00 P:a5 SP:fb
d9a0  18         CLC         A:aa X:ef Y:00 P:a5 SP:fb
d9a1  24 01      BIT $01     A:aa X:ef Y:00 P:a4 SP:fb
d9a3  a9 55      LDA #$55    A:aa X:ef Y:00 P:e4 SP:fb
d9a5  31 33      AND ($33),Y A:55 X:ef Y:00 P:64 SP:fb
d9a7  d0 06      BNE $d9af   A:00 X:ef Y:00 P:66 SP:fb
d9a9  50 04      BVC $d9af   A:00 X:ef Y:00 P:66 SP:fb
d9ab  b0 02      BCS $d9af   A:00 X:ef Y:00 P:66 SP:fb
d9ad  10 02      BPL $d9b1   A:00 X:ef Y:00 P:66 SP:fb
d9b1  e8         INX         A:00 X:ef Y:00 P:66 SP:fb
d9b2  38         SEC         A:00 X:f0 Y:00 P:e4 SP:fb
d9b3  b8         CLV         A:00 X:f0 Y:00 P:e5 SP:fb
d9b4  a9 ef      LDA #$ef    A:00 X:f0 Y:00 P:a5 SP:fb
d9b6  8d 00 04   STA $0400   A:ef X:f0 Y:00 P:a5 SP:fb
d9b9  a9 f8      LDA #$f8    A:ef X:f0 Y:00 P:a5 SP:fb
d9bb  31 33      AND ($33),Y A:f8 X:f0 Y:00 P:a5 SP:fb
d9bd  90 08      BCC $d9c7   A:e8 X:f0 Y:00 P:a5 SP:fb
d9bf  10 06      BPL $d9c7   A:e8 X:f0 Y:00 P:a5 SP:fb
d9c1  c9 e8      CMP #$e8    A:e8 X:f0 Y:00 P:a5 SP:fb
d9c3  d0 02      BNE $d9c7   A:e8 X:f0 Y:00 P:27 SP:fb
d9c5  50 02      BVC $d9c9   A:e8 X:f0 Y:00 P:27 SP:fb
d9c9  e8         INX         A:e8 X:f0 Y:00 P:27 SP:fb
d9ca  18         CLC         A:e8 X:f1 Y:00 P:a5 SP:fb
d9cb  24 01      BIT $01     A:e8 X:f1 Y:00 P:a4 SP:fb
d9cd  a9 aa      LDA #$aa    A:e8 X:f1 Y:00 P:e4 SP:fb
d9cf  8d 00 04   STA $0400   A:aa X:f1 Y:00 P:e4 SP:fb
d9d2  a9 5f      LDA #$5f    A:aa X:f1 Y:00 P:e4 SP:fb
d9d4  51 33      EOR ($33),Y A:5f X:f1 Y:00 P:64 SP:fb
d9d6  b0 08      BCS $d9e0   A:f5 X:f1 Y:00 P:e4 SP:fb
d9d8  10 06      BPL $d9e0   A:f5 X:f1 Y:00 P:e4 SP:fb
d9da  c9 f5      CMP #$f5    A:f5 X:f1 Y:00 P:e4 SP:fb
d9dc  d0 02      BNE $d9e0   A:f5 X:f1 Y:00 P:67 SP:fb
d9de  70 02      BVS $d9e2   A:f5 X:f1 Y:00 P:67 SP:fb
d9e2  e8         INX         A:f5 X:f1 Y:00 P:67 SP:fb
d9e3  38         SEC         A:f5 X:f2 Y:00 P:e5 SP:fb
d9e4  b8         CLV         A:f5 X:f2 Y:00 P:e5 SP:fb
d9e5  a9 70      LDA #$70    A:f5 X:f2 Y:00 P:a5 SP:fb
d9e7  8d 00 04   STA $0400   A:70 X:f2 Y:00 P:25 SP:fb
d9ea  51 33      EOR ($33),Y A:70 X:f2 Y:00 P:25 SP:fb
d9ec  d0 06      BNE $d9f4   A:00 X:f2 Y:00 P:27 SP:fb
d9ee  70 04      BVS $d9f4   A:00 X:f2 Y:00 P:27 SP:fb
d9f0  90 02      BCC $d9f4   A:00 X:f2 Y:00 P:27 SP:fb
d9f2  10 02      BPL $d9f6   A:00 X:f2 Y:00 P:27 SP:fb
d9f6  e8         INX         A:00 X:f2 Y:00 P:27 SP:fb
d9f7  18         CLC         A:00 X:f3 Y:00 P:a5 SP:fb
d9f8  24 01      BIT $01     A:00 X:f3 Y:00 P:a4 SP:fb
d9fa  a9 69      LDA #$69    A:00 X:f3 Y:00 P:e6 SP:fb
d9fc  8d 00 04   STA $0400   A:69 X:f3 Y:00 P:64 SP:fb
d9ff  a9 00      LDA #$00    A:69 X:f3 Y:00 P:64 SP:fb
da01  71 33      ADC ($33),Y A:00 X:f3 Y:00 P:66 SP:fb
da03  30 08      BMI $da0d   A:69 X:f3 Y:00 P:24 SP:fb
da05  b0 06      BCS $da0d   A:69 X:f3 Y:00 P:24 SP:fb
da07  c9 69      CMP #$69    A:69 X:f3 Y:00 P:24 SP:fb
da09  d0 02      BNE $da0d   A:69 X:f3 Y:00 P:27 SP:fb
da0b  50 02      BVC $da0f   A:69 X:f3 Y:00 P:27 SP:fb
da0f  e8         INX         A:69 X:f3 Y:00 P:27 SP:fb
da10  38         SEC         A:69 X:f4 Y:00 P:a5 SP:fb
da11  24 01      BIT $01     A:69 X:f4 Y:00 P:a5 SP:fb
da13  a9 00      LDA #$00    A:69 X:f4 Y:00 P:e5 SP:fb
da15  71 33      ADC ($33),Y A:00 X:f4 Y:00 P:67 SP:fb
da17  30 08      BMI $da21   A:6a X:f4 Y:00 P:24 SP:fb
da19  b0 06      BCS $da21   A:6a X:f4 Y:00 P:24 SP:fb
da1b  c9 6a      CMP #$6a    A:6a X:f4 Y:00 P:24 SP:fb
da1d  d0 02      BNE $da21   A:6a X:f4 Y:00 P:27 SP:fb
da1f  50 02      BVC $da23   A:6a X:f4 Y:00 P:27 SP:fb
da23  e8         INX         A:6a X:f4 Y:00 P:27 SP:fb
da24  38         SEC         A:6a X:f5 Y:00 P:a5 SP:fb
da25  b8         CLV         A:6a X:f5 Y:00 P:a5 SP:fb
da26  a9 7f      LDA #$7f    A:6a X:f5 Y:00 P:a5 SP:fb
da28  8d 00 04   STA $0400   A:7f X:f5 Y:00 P:25 SP:fb
da2b  71 33      ADC ($33),Y A:7f X:f5 Y:00 P:25 SP:fb
da2d  10 08      BPL $da37   A:ff X:f5 Y:00 P:e4 SP:fb
da2f  b0 06      BCS $da37   A:ff X:f5 Y:00 P:e4 SP:fb
da31  c9 ff      CMP #$ff    A:ff X:f5 Y:00 P:e4 SP:fb
da33  d0 02      BNE $da37   A:ff X:f5 Y:00 P:67 SP:fb
da35  70 02      BVS $da39   A:ff X:f5 Y:00 P:67 SP:fb
da39  e8         INX         A:ff X:f5 Y:00 P:67 SP:fb
da3a  18         CLC         A:ff X:f6 Y:00 P:e5 SP:fb
da3b  24 01      BIT $01     A:ff X:f6 Y:00 P:e4 SP:fb
da3d  a9 80      LDA #$80    A:ff X:f6 Y:00 P:e4 SP:fb
da3f  8d 00 04   STA $0400   A:80 X:f6 Y:00 P:e4 SP:fb
da42  a9 7f      LDA #$7f    A:80 X:f6 Y:00 P:e4 SP:fb
da44  71 33      ADC ($33),Y A:7f X:f6 Y:00 P:64 SP:fb
da46  10 08      BPL $da50   A:ff X:f6 Y:00 P:a4 SP:fb
da48  b0 06      BCS $da50   A:ff X:f6 Y:00 P:a4 SP:fb
da4a  c9 ff      CMP #$ff    A:ff X:f6 Y:00 P:a4 SP:fb
da4c  d0 02      BNE $da50   A:ff X:f6 Y:00 P:27 SP:fb
da4e  50 02      BVC $da52   A:ff X:f6 Y:00 P:27 SP:fb
da52  e8         INX         A:ff X:f6 Y:00 P:27 SP:fb
da53  38         SEC         A:ff X:f7 Y:00 P:a5 SP:fb
da54  b8         CLV         A:ff X:f7 Y:00 P:a5 SP:fb
da55  a9 80      LDA #$80    A:ff X:f7 Y:00 P:a5 SP:fb
da57  8d 00 04   STA $0400   A:80 X:f7 Y:00 P:a5 SP:fb
da5a  a9 7f      LDA #$7f    A:80 X:f7 Y:00 P:a5 SP:fb
da5c  71 33      ADC ($33),Y A:7f X:f7 Y:00 P:25 SP:fb
da5e  d0 06      BNE $da66   A:00 X:f7 Y:00 P:27 SP:fb
da60  30 04      BMI $da66   A:00 X:f7 Y:00 P:27 SP:fb
da62  70 02      BVS $da66   A:00 X:f7 Y:00 P:27 SP:fb
da64  b0 02      BCS $da68   A:00 X:f7 Y:00 P:27 SP:fb
da68  e8         INX         A:00 X:f7 Y:00 P:27 SP:fb
da69  24 01      BIT $01     A:00 X:f8 Y:00 P:a5 SP:fb
da6b  a9 40      LDA #$40    A:00 X:f8 Y:00 P:e7 SP:fb
da6d  8d 00 04   STA $0400   A:40 X:f8 Y:00 P:65 SP:fb
da70  d1 33      CMP ($33),Y A:40 X:f8 Y:00 P:65 SP:fb
da72  30 06      BMI $da7a   A:40 X:f8 Y:00 P:67 SP:fb
da74  90 04      BCC $da7a   A:40 X:f8 Y:00 P:67 SP:fb
da76  d0 02      BNE $da7a   A:40 X:f8 Y:00 P:67 SP:fb
da78  70 02      BVS $da7c   A:40 X:f8 Y:00 P:67 SP:fb
da7c  e8         INX         A:40 X:f8 Y:00 P:67 SP:fb
da7d  b8         CLV         A:40 X:f9 Y:00 P:e5 SP:fb
da7e  ce 00 04   DEC $0400   A:40 X:f9 Y:00 P:a5 SP:fb
da81  d1 33      CMP ($33),Y A:40 X:f9 Y:00 P:25 SP:fb
da83  f0 06      BEQ $da8b   A:40 X:f9 Y:00 P:25 SP:fb
da85  30 04      BMI $da8b   A:40 X:f9 Y:00 P:25 SP:fb
da87  90 02      BCC $da8b   A:40 X:f9 Y:00 P:25 SP:fb
da89  50 02      BVC $da8d   A:40 X:f9 Y:00 P:25 SP:fb
da8d  e8         INX         A:40 X:f9 Y:00 P:25 SP:fb
da8e  ee 00 04   INC $0400   A:40 X:fa Y:00 P:a5 SP:fb
da91  ee 00 04   INC $0400   A:40 X:fa Y:00 P:25 SP:fb
da94  d1 33      CMP ($33),Y A:40 X:fa Y:00 P:25 SP:fb
da96  f0 02      BEQ $da9a   A:40 X:fa Y:00 P:a4 SP:fb
da98  30 02      BMI $da9c   A:40 X:fa Y:00 P:a4 SP:fb
da9c  e8         INX         A:40 X:fa Y:00 P:a4 SP:fb
da9d  a9 00      LDA #$00    A:40 X:fb Y:00 P:a4 SP:fb
da9f  8d 00 04   STA $0400   A:00 X:fb Y:00 P:26 SP:fb
daa2  a9 80      LDA #$80    A:00 X:fb Y:00 P:26 SP:fb
daa4  d1 33      CMP ($33),Y A:80 X:fb Y:00 P:a4 SP:fb
daa6  f0 04      BEQ $daac   A:80 X:fb Y:00 P:a5 SP:fb
daa8  10 02      BPL $daac   A:80 X:fb Y:00 P:a5 SP:fb
daaa  b0 02      BCS $daae   A:80 X:fb Y:00 P:a5 SP:fb
daae  e8         INX         A:80 X:fb Y:00 P:a5 SP:fb
daaf  a0 80      LDY #$80    A:80 X:fc Y:00 P:a5 SP:fb
dab1  8c 00 04   STY $0400   A:80 X:fc Y:80 P:a5 SP:fb
dab4  a0 00      LDY #$00    A:80 X:fc Y:80 P:a5 SP:fb
dab6  d1 33      CMP ($33),Y A:80 X:fc Y:00 P:27 SP:fb
dab8  d0 04      BNE $dabe   A:80 X:fc Y:00 P:27 SP:fb
daba  30 02      BMI $dabe   A:80 X:fc Y:00 P:27 SP:fb
dabc  b0 02      BCS $dac0   A:80 X:fc Y:00 P:27 SP:fb
dac0  e8         INX         A:80 X:fc Y:00 P:27 SP:fb
dac1  ee 00 04   INC $0400   A:80 X:fd Y:00 P:a5 SP:fb
dac4  d1 33      CMP ($33),Y A:80 X:fd Y:00 P:a5 SP:fb
dac6  b0 04      BCS $dacc   A:80 X:fd Y:00 P:a4 SP:fb
dac8  f0 02      BEQ $dacc   A:80 X:fd Y:00 P:a4 SP:fb
daca  30 02      BMI $dace   A:80 X:fd Y:00 P:a4 SP:fb
dace  e8         INX         A:80 X:fd Y:00 P:a4 SP:fb
dacf  ce 00 04   DEC $0400   A:80 X:fe Y:00 P:a4 SP:fb
dad2  ce 00 04   DEC $0400   A:80 X:fe Y:00 P:a4 SP:fb
dad5  d1 33      CMP ($33),Y A:80 X:fe Y:00 P:24 SP:fb
dad7  90 04      BCC $dadd   A:80 X:fe Y:00 P:25 SP:fb
dad9  f0 02      BEQ $dadd   A:80 X:fe Y:00 P:25 SP:fb
dadb  10 02      BPL $dadf   A:80 X:fe Y:00 P:25 SP:fb
dadf  60         RTS         A:80 X:fe Y:00 P:25 SP:fb
c61b  a5 00      LDA $00     A:80 X:fe Y:00 P:25 SP:fd
c61d  85 10      STA $10     A:00 X:fe Y:00 P:27 SP:fd
c61f  a9 00      LDA #$00    A:00 X:fe Y:00 P:27 SP:fd
c621  85 00      STA $00     A:00 X:fe Y:00 P:27 SP:fd
c623  20 e0 da   JSR $dae0   A:00 X:fe Y:00 P:27 SP:fd
dae0  a9 00      LDA #$00    A:00 X:fe Y:00 P:27 SP:fb
dae2  85 33      STA $33     A:00 X:fe Y:00 P:27 SP:fb
dae4  a9 04      LDA #$04    A:00 X:fe Y:00 P:27 SP:fb
dae6  85 34      STA $34     A:04 X:fe Y:00 P:25 SP:fb
dae8  a0 00      LDY #$00    A:04 X:fe Y:00 P:25 SP:fb
daea  a2 01      LDX #$01    A:04 X:fe Y:00 P:27 SP:fb
daec  24 01      BIT $01     A:04 X:01 Y:00 P:25 SP:fb
daee  a9 40      LDA #$40    A:04 X:01 Y:00 P:e5 SP:fb
daf0  8d 00 04   STA $0400   A:40 X:01 Y:00 P:65 SP:fb
daf3  38         SEC         A:40 X:01 Y:00 P:65 SP:fb
daf4  f1 33      SBC ($33),Y A:40 X:01 Y:00 P:65 SP:fb
daf6  30 0a      BMI $db02   A:00 X:01 Y:00 P:27 SP:fb
daf8  90 08      BCC $db02   A:00 X:01 Y:00 P:27 SP:fb
dafa  d0 06      BNE $db02   A:00 X:01 Y:00 P:27 SP:fb
dafc  70 04      BVS $db02   A:00 X:01 Y:00 P:27 SP:fb
dafe  c9 00      CMP #$00    A:00 X:01 Y:00 P:27 SP:fb
db00  f0 02      BEQ $db04   A:00 X:01 Y:00 P:27 SP:fb
db04  e8         INX         A:00 X:01 Y:00 P:27 SP:fb
db05  b8         CLV         A:00 X:02 Y:00 P:25 SP:fb
db06  38         SEC         A:00 X:02 Y:00 P:25 SP:fb
db07  a9 40      LDA #$40    A:00 X:02 Y:00 P:25 SP:fb
db09  ce 00 04   DEC $0400   A:40 X:02 Y:00 P:25 SP:fb
db0c  f1 33      SBC ($33),Y A:40 X:02 Y:00 P:25 SP:fb
db0e  f0 0a      BEQ $db1a   A:01 X:02 Y:00 P:25 SP:fb
db10  30 08      BMI $db1a   A:01 X:02 Y:00 P:25 SP:fb
db12  90 06      BCC $db1a   A:01 X:02 Y:00 P:25 SP:fb
db14  70 04      BVS $db1a   A:01 X:02 Y:00 P:25 SP:fb
db16  c9 01      CMP #$01    A:01 X:02 Y:00 P:25 SP:fb
db18  f0 02      BEQ $db1c   A:01 X:02 Y:00 P:27 SP:fb
db1c  e8         INX         A:01 X:02 Y:00 P:27 SP:fb
db1d  a9 40      LDA #$40    A:01 X:03 Y:00 P:25 SP:fb
db1f  38         SEC         A:40 X:03 Y:00 P:25 SP:fb
db20  24 01      BIT $01     A:40 X:03 Y:00 P:25 SP:fb
db22  ee 00 04   INC $0400   A:40 X:03 Y:00 P:e5 SP:fb
db25  ee 00 04   INC $0400   A:40 X:03 Y:00 P:65 SP:fb
db28  f1 33      SBC ($33),Y A:40 X:03 Y:00 P:65 SP:fb
db2a  b0 0a      BCS $db36   A:ff X:03 Y:00 P:a4 SP:fb
db2c  f0 08      BEQ $db36   A:ff X:03 Y:00 P:a4 SP:fb
db2e  10 06      BPL $db36   A:ff X:03 Y:00 P:a4 SP:fb
db30  70 04      BVS $db36   A:ff X:03 Y:00 P:a4 SP:fb
db32  c9 ff      CMP #$ff    A:ff X:03 Y:00 P:a4 SP:fb
db34  f0 02      BEQ $db38   A:ff X:03 Y:00 P:27 SP:fb
db38  e8         INX         A:ff X:03 Y:00 P:27 SP:fb
db39  18         CLC         A:ff X:04 Y:00 P:25 SP:fb
db3a  a9 00      LDA #$00    A:ff X:04 Y:00 P:24 SP:fb
db3c  8d 00 04   STA $0400   A:00 X:04 Y:00 P:26 SP:fb
db3f  a9 80      LDA #$80    A:00 X:04 Y:00 P:26 SP:fb
db41  f1 33      SBC ($33),Y A:80 X:04 Y:00 P:a4 SP:fb
db43  90 04      BCC $db49   A:7f X:04 Y:00 P:65 SP:fb
db45  c9 7f      CMP #$7f    A:7f X:04 Y:00 P:65 SP:fb
db47  f0 02      BEQ $db4b   A:7f X:04 Y:00 P:67 SP:fb
db4b  e8         INX         A:7f X:04 Y:00 P:67 SP:fb
db4c  38         SEC         A:7f X:05 Y:00 P:65 SP:fb
db4d  a9 7f      LDA #$7f    A:7f X:05 Y:00 P:65 SP:fb
db4f  8d 00 04   STA $0400   A:7f X:05 Y:00 P:65 SP:fb
db52  a9 81      LDA #$81    A:7f X:05 Y:00 P:65 SP:fb
db54  f1 33      SBC ($33),Y A:81 X:05 Y:00 P:e5 SP:fb
db56  50 06      BVC $db5e   A:02 X:05 Y:00 P:65 SP:fb
db58  90 04      BCC $db5e   A:02 X:05 Y:00 P:65 SP:fb
db5a  c9 02      CMP #$02    A:02 X:05 Y:00 P:65 SP:fb
db5c  f0 02      BEQ $db60   A:02 X:05 Y:00 P:67 SP:fb
db60  e8         INX         A:02 X:05 Y:00 P:67 SP:fb
db61  a9 00      LDA #$00    A:02 X:06 Y:00 P:65 SP:fb
db63  a9 87      LDA #$87    A:00 X:06 Y:00 P:67 SP:fb
db65  91 33      STA ($33),Y A:87 X:06 Y:00 P:e5 SP:fb
db67  ad 00 04   LDA $0400   A:87 X:06 Y:00 P:e5 SP:fb
db6a  c9 87      CMP #$87    A:87 X:06 Y:00 P:e5 SP:fb
db6c  f0 02      BEQ $db70   A:87 X:06 Y:00 P:67 SP:fb
db70  e8         INX         A:87 X:06 Y:00 P:67 SP:fb
db71  a9 7e      LDA #$7e    A:87 X:07 Y:00 P:65 SP:fb
db73  8d 00 02   STA $0200   A:7e X:07 Y:00 P:65 SP:fb
db76  a9 db      LDA #$db    A:7e X:07 Y:00 P:65 SP:fb
db78  8d 01 02   STA $0201   A:db X:07 Y:00 P:e5 SP:fb
db7b  6c 00 02   JMP ($0200) A:db X:07 Y:00 P:e5 SP:fb
db7e  a9 00      LDA #$00    A:db X:07 Y:00 P:e5 SP:fb
db80  8d ff 02   STA $02ff   A:00 X:07 Y:00 P:67 SP:fb
db83  a9 01      LDA #$01    A:00 X:07 Y:00 P:67 SP:fb
db85  8d 00 03   STA $0300   A:01 X:07 Y:00 P:65 SP:fb
db88  a9 03      LDA #$03    A:01 X:07 Y:00 P:65 SP:fb
db8a  8d 00 02   STA $0200   A:03 X:07 Y:00 P:65 SP:fb
db8d  a9 a9      LDA #$a9    A:03 X:07 Y:00 P:65 SP:fb
db8f  8d 00 01   STA $0100   A:a9 X:07 Y:00 P:e5 SP:fb
db92  a9 55      LDA #$55    A:a9 X:07 Y:00 P:e5 SP:fb
db94  8d 01 01   STA $0101   A:55 X:07 Y:00 P:65 SP:fb
db97  a9 60      LDA #$60    A:55 X:07 Y:00 P:65 SP:fb
db99  8d 02 01   STA $0102   A:60 X:07 Y:00 P:65 SP:fb
db9c  a9 a9      LDA #$a9    A:60 X:07 Y:00 P:65 SP:fb
db9e  8d 00 03   STA $0300   A:a9 X:07 Y:00 P:e5 SP:fb
dba1  a9 aa      LDA #$aa    A:a9 X:07 Y:00 P:e5 SP:fb
dba3  8d 01 03   STA $0301   A:aa X:07 Y:00 P:e5 SP:fb
dba6  a9 60      LDA #$60    A:aa X:07 Y:00 P:e5 SP:fb
dba8  8d 02 03   STA $0302   A:60 X:07 Y:00 P:65 SP:fb
dbab  20 b5 db   JSR $dbb5   A:60 X:07 Y:00 P:65 SP:fb
dbb5  6c ff 02   JMP ($02ff) A:60 X:07 Y:00 P:65 SP:f9
0300  a9 aa      LDA #$aa    A:60 X:07 Y:00 P:65 SP:f9
0302  60         RTS         A:aa X:07 Y:00 P:e5 SP:f9
dbae  c9 aa      CMP #$aa    A:aa X:07 Y:00 P:e5 SP:fb
dbb0  f0 02      BEQ $dbb4   A:aa X:07 Y:00 P:67 SP:fb
dbb4  60         RTS         A:aa X:07 Y:00 P:67 SP:fb
c626  20 4a df   JSR $df4a   A:aa X:07 Y:00 P:67 SP:fd
df4a  a9 89      LDA #$89    A:aa X:07 Y:00 P:67 SP:fb
df4c  8d 00 03   STA $0300   A:89 X:07 Y:00 P:e5 SP:fb
df4f  a9 a3      LDA #$a3    A:89 X:07 Y:00 P:e5 SP:fb
df51  85 33      STA $33     A:a3 X:07 Y:00 P:e5 SP:fb
df53  a9 12      LDA #$12    A:a3 X:07 Y:00 P:e5 SP:fb
df55  8d 45 02   STA $0245   A:12 X:07 Y:00 P:65 SP:fb
df58  a2 65      LDX #$65    A:12 X:07 Y:00 P:65 SP:fb
df5a  a0 00      LDY #$00    A:12 X:65 Y:00 P:65 SP:fb
df5c  38         SEC         A:12 X:65 Y:00 P:67 SP:fb
df5d  a9 00      LDA #$00    A:12 X:65 Y:00 P:67 SP:fb
df5f  b8         CLV         A:00 X:65 Y:00 P:67 SP:fb
df60  b9 00 03   LDA $0300,Y A:00 X:65 Y:00 P:27 SP:fb
df63  f0 0c      BEQ $df71   A:89 X:65 Y:00 P:a5 SP:fb
df65  90 0a      BCC $df71   A:89 X:65 Y:00 P:a5 SP:fb
df67  70 08      BVS $df71   A:89 X:65 Y:00 P:a5 SP:fb
df69  c9 89      CMP #$89    A:89 X:65 Y:00 P:a5 SP:fb
df6b  d0 04      BNE $df71   A:89 X:65 Y:00 P:27 SP:fb
df6d  e0 65      CPX #$65    A:89 X:65 Y:00 P:27 SP:fb
df6f  f0 04      BEQ $df75   A:89 X:65 Y:00 P:27 SP:fb
df75  a9 ff      LDA #$ff    A:89 X:65 Y:00 P:27 SP:fb
df77  85 01      STA $01     A:ff X:65 Y:00 P:a5 SP:fb
df79  24 01      BIT $01     A:ff X:65 Y:00 P:a5 SP:fb
df7b  a0 34      LDY #$34    A:ff X:65 Y:00 P:e5 SP:fb
df7d  b9 ff ff   LDA $ffff,Y A:ff X:65 Y:34 P:65 SP:fb
df80  c9 a3      CMP #$a3    A:a3 X:65 Y:34 P:e5 SP:fb
df82  d0 02      BNE $df86   A:a3 X:65 Y:34 P:67 SP:fb
df84  b0 04      BCS $df8a   A:a3 X:65 Y:34 P:67 SP:fb
df8a  a9 46      LDA #$46    A:a3 X:65 Y:34 P:67 SP:fb
df8c  85 ff      STA $ff     A:46 X:65 Y:34 P:65 SP:fb
df8e  a0 ff      LDY #$ff    A:46 X:65 Y:34 P:65 SP:fb
df90  b9 46 01   LDA $0146,Y A:46 X:65 Y:ff P:e5 SP:fb
df93  c9 12      CMP #$12    A:12 X:65 Y:ff P:65 SP:fb
df95  f0 04      BEQ $df9b   A:12 X:65 Y:ff P:67 SP:fb
df9b  a2 39      LDX #$39    A:12 X:65 Y:ff P:67 SP:fb
df9d  18         CLC         A:12 X:39 Y:ff P:65 SP:fb
df9e  a9 ff      LDA #$ff    A:12 X:39 Y:ff P:64 SP:fb
dfa0  85 01      STA $01     A:ff X:39 Y:ff P:e4 SP:fb
dfa2  24 01      BIT $01     A:ff X:39 Y:ff P:e4 SP:fb
dfa4  a9 aa      LDA #$aa    A:ff X:39 Y:ff P:e4 SP:fb
dfa6  8d 00 04   STA $0400   A:aa X:39 Y:ff P:e4 SP:fb
dfa9  a9 55      LDA #$55    A:aa X:39 Y:ff P:e4 SP:fb
dfab  a0 00      LDY #$00    A:55 X:39 Y:ff P:64 SP:fb
dfad  19 00 04   ORA $0400,Y A:55 X:39 Y:00 P:66 SP:fb
dfb0  b0 08      BCS $dfba   A:ff X:39 Y:00 P:e4 SP:fb
dfb2  10 06      BPL $dfba   A:ff X:39 Y:00 P:e4 SP:fb
dfb4  c9 ff      CMP #$ff    A:ff X:39 Y:00 P:e4 SP:fb
dfb6  d0 02      BNE $dfba   A:ff X:39 Y:00 P:67 SP:fb
dfb8  70 02      BVS $dfbc   A:ff X:39 Y:00 P:67 SP:fb
dfbc  e8         INX         A:ff X:39 Y:00 P:67 SP:fb
dfbd  38         SEC         A:ff X:3a Y:00 P:65 SP:fb
dfbe  b8         CLV         A:ff X:3a Y:00 P:65 SP:fb
dfbf  a9 00      LDA #$00    A:ff X:3a Y:00 P:25 SP:fb
dfc1  19 00 04   ORA $0400,Y A:00 X:3a Y:00 P:27 SP:fb
dfc4  f0 06      BEQ $dfcc   A:aa X:3a Y:00 P:a5 SP:fb
dfc6  70 04      BVS $dfcc   A:aa X:3a Y:00 P:a5 SP:fb
dfc8  90 02      BCC $dfcc   A:aa X:3a Y:00 P:a5 SP:fb
dfca  30 02      BMI $dfce   A:aa X:3a Y:00 P:a5 SP:fb
dfce  e8         INX         A:aa X:3a Y:00 P:a5 SP:fb
dfcf  18         CLC         A:aa X:3b Y:00 P:25 SP:fb
dfd0  24 01      BIT $01     A:aa X:3b Y:00 P:24 SP:fb
dfd2  a9 55      LDA #$55    A:aa X:3b Y:00 P:e4 SP:fb
dfd4  39 00 04   AND $0400,Y A:55 X:3b Y:00 P:64 SP:fb
dfd7  d0 06      BNE $dfdf   A:00 X:3b Y:00 P:66 SP:fb
dfd9  50 04      BVC $dfdf   A:00 X:3b Y:00 P:66 SP:fb
dfdb  b0 02      BCS $dfdf   A:00 X:3b Y:00 P:66 SP:fb
dfdd  10 02      BPL $dfe1   A:00 X:3b Y:00 P:66 SP:fb
dfe1  e8         INX         A:00 X:3b Y:00 P:66 SP:fb
dfe2  38         SEC         A:00 X:3c Y:00 P:64 SP:fb
dfe3  b8         CLV         A:00 X:3c Y:00 P:65 SP:fb
dfe4  a9 ef      LDA #$ef    A:00 X:3c Y:00 P:25 SP:fb
dfe6  8d 00 04   STA $0400   A:ef X:3c Y:00 P:a5 SP:fb
dfe9  a9 f8      LDA #$f8    A:ef X:3c Y:00 P:a5 SP:fb
dfeb  39 00 04   AND $0400,Y A:f8 X:3c Y:00 P:a5 SP:fb
dfee  90 08      BCC $dff8   A:e8 X:3c Y:00 P:a5 SP:fb
dff0  10 06      BPL $dff8   A:e8 X:3c Y:00 P:a5 SP:fb
dff2  c9 e8      CMP #$e8    A:e8 X:3c Y:00 P:a5 SP:fb
dff4  d0 02      BNE $dff8   A:e8 X:3c Y:00 P:27 SP:fb
dff6  50 02      BVC $dffa   A:e8 X:3c Y:00 P:27 SP:fb
dffa  e8         INX         A:e8 X:3c Y:00 P:27 SP:fb
dffb  18         CLC         A:e8 X:3d Y:00 P:25 SP:fb
dffc  24 01      BIT $01     A:e8 X:3d Y:00 P:24 SP:fb
dffe  a9 aa      LDA #$aa    A:e8 X:3d Y:00 P:e4 SP:fb
e000  8d 00 04   STA $0400   A:aa X:3d Y:00 P:e4 SP:fb
e003  a9 5f      LDA #$5f    A:aa X:3d Y:00 P:e4 SP:fb
e005  59 00 04   EOR $0400,Y A:5f X:3d Y:00 P:64 SP:fb
e008  b0 08      BCS $e012   A:f5 X:3d Y:00 P:e4 SP:fb
e00a  10 06      BPL $e012   A:f5 X:3d Y:00 P:e4 SP:fb
e00c  c9 f5      CMP #$f5    A:f5 X:3d Y:00 P:e4 SP:fb
e00e  d0 02      BNE $e012   A:f5 X:3d Y:00 P:67 SP:fb
e010  70 02      BVS $e014   A:f5 X:3d Y:00 P:67 SP:fb
e014  e8         INX         A:f5 X:3d Y:00 P:67 SP:fb
e015  38         SEC         A:f5 X:3e Y:00 P:65 SP:fb
e016  b8         CLV         A:f5 X:3e Y:00 P:65 SP:fb
e017  a9 70      LDA #$70    A:f5 X:3e Y:00 P:25 SP:fb
e019  8d 00 04   STA $0400   A:70 X:3e Y:00 P:25 SP:fb
e01c  59 00 04   EOR $0400,Y A:70 X:3e Y:00 P:25 SP:fb
e01f  d0 06      BNE $e027   A:00 X:3e Y:00 P:27 SP:fb
e021  70 04      BVS $e027   A:00 X:3e Y:00 P:27 SP:fb
e023  90 02      BCC $e027   A:00 X:3e Y:00 P:27 SP:fb
e025  10 02      BPL $e029   A:00 X:3e Y:00 P:27 SP:fb
e029  e8         INX         A:00 X:3e Y:00 P:27 SP:fb
e02a  18         CLC         A:00 X:3f Y:00 P:25 SP:fb
e02b  24 01      BIT $01     A:00 X:3f Y:00 P:24 SP:fb
e02d  a9 69      LDA #$69    A:00 X:3f Y:00 P:e6 SP:fb
e02f  8d 00 04   STA $0400   A:69 X:3f Y:00 P:64 SP:fb
e032  a9 00      LDA #$00    A:69 X:3f Y:00 P:64 SP:fb
e034  79 00 04   ADC $0400,Y A:00 X:3f Y:00 P:66 SP:fb
e037  30 08      BMI $e041   A:69 X:3f Y:00 P:24 SP:fb
e039  b0 06      BCS $e041   A:69 X:3f Y:00 P:24 SP:fb
e03b  c9 69      CMP #$69    A:69 X:3f Y:00 P:24 SP:fb
e03d  d0 02      BNE $e041   A:69 X:3f Y:00 P:27 SP:fb
e03f  50 02      BVC $e043   A:69 X:3f Y:00 P:27 SP:fb
e043  e8         INX         A:69 X:3f Y:00 P:27 SP:fb
e044  38         SEC         A:69 X:40 Y:00 P:25 SP:fb
e045  24 01      BIT $01     A:69 X:40 Y:00 P:25 SP:fb
e047  a9 00      LDA #$00    A:69 X:40 Y:00 P:e5 SP:fb
e049  79 00 04   ADC $0400,Y A:00 X:40 Y:00 P:67 SP:fb
e04c  30 08      BMI $e056   A:6a X:40 Y:00 P:24 SP:fb
e04e  b0 06      BCS $e056   A:6a X:40 Y:00 P:24 SP:fb
e050  c9 6a      CMP #$6a    A:6a X:40 Y:00 P:24 SP:fb
e052  d0 02      BNE $e056   A:6a X:40 Y:00 P:27 SP:fb
e054  50 02      BVC $e058   A:6a X:40 Y:00 P:27 SP:fb
e058  e8         INX         A:6a X:40 Y:00 P:27 SP:fb
e059  38         SEC         A:6a X:41 Y:00 P:25 SP:fb
e05a  b8         CLV         A:6a X:41 Y:00 P:25 SP:fb
e05b  a9 7f      LDA #$7f    A:6a X:41 Y:00 P:25 SP:fb
e05d  8d 00 04   STA $0400   A:7f X:41 Y:00 P:25 SP:fb
e060  79 00 04   ADC $0400,Y A:7f X:41 Y:00 P:25 SP:fb
e063  10 08      BPL $e06d   A:ff X:41 Y:00 P:e4 SP:fb
e065  b0 06      BCS $e06d   A:ff X:41 Y:00 P:e4 SP:fb
e067  c9 ff      CMP #$ff    A:ff X:41 Y:00 P:e4 SP:fb
e069  d0 02      BNE $e06d   A:ff X:41 Y:00 P:67 SP:fb
e06b  70 02      BVS $e06f   A:ff X:41 Y:00 P:67 SP:fb
e06f  e8         INX         A:ff X:41 Y:00 P:67 SP:fb
e070  18         CLC         A:ff X:42 Y:00 P:65 SP:fb
e071  24 01      BIT $01     A:ff X:42 Y:00 P:64 SP:fb
e073  a9 80      LDA #$80    A:ff X:42 Y:00 P:e4 SP:fb
e075  8d 00 04   STA $0400   A:80 X:42 Y:00 P:e4 SP:fb
e078  a9 7f      LDA #$7f    A:80 X:42 Y:00 P:e4 SP:fb
e07a  79 00 04   ADC $0400,Y A:7f X:42 Y:00 P:64 SP:fb
e07d  10 08      BPL $e087   A:ff X:42 Y:00 P:a4 SP:fb
e07f  b0 06      BCS $e087   A:ff X:42 Y:00 P:a4 SP:fb
e081  c9 ff      CMP #$ff    A:ff X:42 Y:00 P:a4 SP:fb
e083  d0 02      BNE $e087   A:ff X:42 Y:00 P:27 SP:fb
e085  50 02      BVC $e089   A:ff X:42 Y:00 P:27 SP:fb
e089  e8         INX         A:ff X:42 Y:00 P:27 SP:fb
e08a  38         SEC         A:ff X:43 Y:00 P:25 SP:fb
e08b  b8         CLV         A:ff X:43 Y:00 P:25 SP:fb
e08c  a9 80      LDA #$80    A:ff X:43 Y:00 P:25 SP:fb
e08e  8d 00 04   STA $0400   A:80 X:43 Y:00 P:a5 SP:fb
e091  a9 7f      LDA #$7f    A:80 X:43 Y:00 P:a5 SP:fb
e093  79 00 04   ADC $0400,Y A:7f X:43 Y:00 P:25 SP:fb
e096  d0 06      BNE $e09e   A:00 X:43 Y:00 P:27 SP:fb
e098  30 04      BMI $e09e   A:00 X:43 Y:00 P:27 SP:fb
e09a  70 02      BVS $e09e   A:00 X:43 Y:00 P:27 SP:fb
e09c  b0 02      BCS $e0a0   A:00 X:43 Y:00 P:27 SP:fb
e0a0  e8         INX         A:00 X:43 Y:00 P:27 SP:fb
e0a1  24 01      BIT $01     A:00 X:44 Y:00 P:25 SP:fb
e0a3  a9 40      LDA #$40    A:00 X:44 Y:00 P:e7 SP:fb
e0a5  8d 00 04   STA $0400   A:40 X:44 Y:00 P:65 SP:fb
e0a8  d9 00 04   CMP $0400,Y A:40 X:44 Y:00 P:65 SP:fb
e0ab  30 06      BMI $e0b3   A:40 X:44 Y:00 P:67 SP:fb
e0ad  90 04      BCC $e0b3   A:40 X:44 Y:00 P:67 SP:fb
e0af  d0 02      BNE $e0b3   A:40 X:44 Y:00 P:67 SP:fb
e0b1  70 02      BVS $e0b5   A:40 X:44 Y:00 P:67 SP:fb
e0b5  e8         INX         A:40 X:44 Y:00 P:67 SP:fb
e0b6  b8         CLV         A:40 X:45 Y:00 P:65 SP:fb
e0b7  ce 00 04   DEC $0400   A:40 X:45 Y:00 P:25 SP:fb
e0ba  d9 00 04   CMP $0400,Y A:40 X:45 Y:00 P:25 SP:fb
e0bd  f0 06      BEQ $e0c5   A:40 X:45 Y:00 P:25 SP:fb
e0bf  30 04      BMI $e0c5   A:40 X:45 Y:00 P:25 SP:fb
e0c1  90 02      BCC $e0c5   A:40 X:45 Y:00 P:25 SP:fb
e0c3  50 02      BVC $e0c7   A:40 X:45 Y:00 P:25 SP:fb
e0c7  e8         INX         A:40 X:45 Y:00 P:25 SP:fb
e0c8  ee 00 04   INC $0400   A:40 X:46 Y:00 P:25 SP:fb
e0cb  ee 00 04   INC $0400   A:40 X:46 Y:00 P:25 SP:fb
e0ce  d9 00 04   CMP $0400,Y A:40 X:46 Y:00 P:25 SP:fb
e0d1  f0 02      BEQ $e0d5   A:40 X:46 Y:00 P:a4 SP:fb
e0d3  30 02      BMI $e0d7   A:40 X:46 Y:00 P:a4 SP:fb
e0d7  e8         INX         A:40 X:46 Y:00 P:a4 SP:fb
e0d8  a9 00      LDA #$00    A:40 X:47 Y:00 P:24 SP:fb
e0da  8d 00 04   STA $0400   A:00 X:47 Y:00 P:26 SP:fb
e0dd  a9 80      LDA #$80    A:00 X:47 Y:00 P:26 SP:fb
e0df  d9 00 04   CMP $0400,Y A:80 X:47 Y:00 P:a4 SP:fb
e0e2  f0 04      BEQ $e0e8   A:80 X:47 Y:00 P:a5 SP:fb
e0e4  10 02      BPL $e0e8   A:80 X:47 Y:00 P:a5 SP:fb
e0e6  b0 02      BCS $e0ea   A:80 X:47 Y:00 P:a5 SP:fb
e0ea  e8         INX         A:80 X:47 Y:00 P:a5 SP:fb
e0eb  a0 80      LDY #$80    A:80 X:48 Y:00 P:25 SP:fb
e0ed  8c 00 04   STY $0400   A:80 X:48 Y:80 P:a5 SP:fb
e0f0  a0 00      LDY #$00    A:80 X:48 Y:80 P:a5 SP:fb
e0f2  d9 00 04   CMP $0400,Y A:80 X:48 Y:00 P:27 SP:fb
e0f5  d0 04      BNE $e0fb   A:80 X:48 Y:00 P:27 SP:fb
e0f7  30 02      BMI $e0fb   A:80 X:48 Y:00 P:27 SP:fb
e0f9  b0 02      BCS $e0fd   A:80 X:48 Y:00 P:27 SP:fb
e0fd  e8         INX         A:80 X:48 Y:00 P:27 SP:fb
e0fe  ee 00 04   INC $0400   A:80 X:49 Y:00 P:25 SP:fb
e101  d9 00 04   CMP $0400,Y A:80 X:49 Y:00 P:a5 SP:fb
e104  b0 04      BCS $e10a   A:80 X:49 Y:00 P:a4 SP:fb
e106  f0 02      BEQ $e10a   A:80 X:49 Y:00 P:a4 SP:fb
e108  30 02      BMI $e10c   A:80 X:49 Y:00 P:a4 SP:fb
e10c  e8         INX         A:80 X:49 Y:00 P:a4 SP:fb
e10d  ce 00 04   DEC $0400   A:80 X:4a Y:00 P:24 SP:fb
e110  ce 00 04   DEC $0400   A:80 X:4a Y:00 P:a4 SP:fb
e113  d9 00 04   CMP $0400,Y A:80 X:4a Y:00 P:24 SP:fb
e116  90 04      BCC $e11c   A:80 X:4a Y:00 P:25 SP:fb
e118  f0 02      BEQ $e11c   A:80 X:4a Y:00 P:25 SP:fb
e11a  10 02      BPL $e11e   A:80 X:4a Y:00 P:25 SP:fb
e11e  e8         INX         A:80 X:4a Y:00 P:25 SP:fb
e11f  24 01      BIT $01     A:80 X:4b Y:00 P:25 SP:fb
e121  a9 40      LDA #$40    A:80 X:4b Y:00 P:e5 SP:fb
e123  8d 00 04   STA $0400   A:40 X:4b Y:00 P:65 SP:fb
e126  38         SEC         A:40 X:4b Y:00 P:65 SP:fb
e127  f9 00 04   SBC $0400,Y A:40 X:4b Y:00 P:65 SP:fb
e12a  30 0a      BMI $e136   A:00 X:4b Y:00 P:27 SP:fb
e12c  90 08      BCC $e136   A:00 X:4b Y:00 P:27 SP:fb
e12e  d0 06      BNE $e136   A:00 X:4b Y:00 P:27 SP:fb
e130  70 04      BVS $e136   A:00 X:4b Y:00 P:27 SP:fb
e132  c9 00      CMP #$00    A:00 X:4b Y:00 P:27 SP:fb
e134  f0 02      BEQ $e138   A:00 X:4b Y:00 P:27 SP:fb
e138  e8         INX         A:00 X:4b Y:00 P:27 SP:fb
e139  b8         CLV         A:00 X:4c Y:00 P:25 SP:fb
e13a  38         SEC         A:00 X:4c Y:00 P:25 SP:fb
e13b  a9 40      LDA #$40    A:00 X:4c Y:00 P:25 SP:fb
e13d  ce 00 04   DEC $0400   A:40 X:4c Y:00 P:25 SP:fb
e140  f9 00 04   SBC $0400,Y A:40 X:4c Y:00 P:25 SP:fb
e143  f0 0a      BEQ $e14f   A:01 X:4c Y:00 P:25 SP:fb
e145  30 08      BMI $e14f   A:01 X:4c Y:00 P:25 SP:fb
e147  90 06      BCC $e14f   A:01 X:4c Y:00 P:25 SP:fb
e149  70 04      BVS $e14f   A:01 X:4c Y:00 P:25 SP:fb
e14b  c9 01      CMP #$01    A:01 X:4c Y:00 P:25 SP:fb
e14d  f0 02      BEQ $e151   A:01 X:4c Y:00 P:27 SP:fb
e151  e8         INX         A:01 X:4c Y:00 P:27 SP:fb
e152  a9 40      LDA #$40    A:01 X:4d Y:00 P:25 SP:fb
e154  38         SEC         A:40 X:4d Y:00 P:25 SP:fb
e155  24 01      BIT $01     A:40 X:4d Y:00 P:25 SP:fb
e157  ee 00 04   INC $0400   A:40 X:4d Y:00 P:e5 SP:fb
e15a  ee 00 04   INC $0400   A:40 X:4d Y:00 P:65 SP:fb
e15d  f9 00 04   SBC $0400,Y A:40 X:4d Y:00 P:65 SP:fb
e160  b0 0a      BCS $e16c   A:ff X:4d Y:00 P:a4 SP:fb
e162  f0 08      BEQ $e16c   A:ff X:4d Y:00 P:a4 SP:fb
e164  10 06      BPL $e16c   A:ff X:4d Y:00 P:a4 SP:fb
e166  70 04      BVS $e16c   A:ff X:4d Y:00 P:a4 SP:fb
e168  c9 ff      CMP #$ff    A:ff X:4d Y:00 P:a4 SP:fb
e16a  f0 02      BEQ $e16e   A:ff X:4d Y:00 P:27 SP:fb
e16e  e8         INX         A:ff X:4d Y:00 P:27 SP:fb
e16f  18         CLC         A:ff X:4e Y:00 P:25 SP:fb
e170  a9 00      LDA #$00    A:ff X:4e Y:00 P:24 SP:fb
e172  8d 00 04   STA $0400   A:00 X:4e Y:00 P:26 SP:fb
e175  a9 80      LDA #$80    A:00 X:4e Y:00 P:26 SP:fb
e177  f9 00 04   SBC $0400,Y A:80 X:4e Y:00 P:a4 SP:fb
e17a  90 04      BCC $e180   A:7f X:4e Y:00 P:65 SP:fb
e17c  c9 7f      CMP #$7f    A:7f X:4e Y:00 P:65 SP:fb
e17e  f0 02      BEQ $e182   A:7f X:4e Y:00 P:67 SP:fb
e182  e8         INX         A:7f X:4e Y:00 P:67 SP:fb
e183  38         SEC         A:7f X:4f Y:00 P:65 SP:fb
e184  a9 7f      LDA #$7f    A:7f X:4f Y:00 P:65 SP:fb
e186  8d 00 04   STA $0400   A:7f X:4f Y:00 P:65 SP:fb
e189  a9 81      LDA #$81    A:7f X:4f Y:00 P:65 SP:fb
e18b  f9 00 04   SBC $0400,Y A:81 X:4f Y:00 P:e5 SP:fb
e18e  50 06      BVC $e196   A:02 X:4f Y:00 P:65 SP:fb
e190  90 04      BCC $e196   A:02 X:4f Y:00 P:65 SP:fb
e192  c9 02      CMP #$02    A:02 X:4f Y:00 P:65 SP:fb
e194  f0 02      BEQ $e198   A:02 X:4f Y:00 P:67 SP:fb
e198  e8         INX         A:02 X:4f Y:00 P:67 SP:fb
e199  a9 00      LDA #$00    A:02 X:50 Y:00 P:65 SP:fb
e19b  a9 87      LDA #$87    A:00 X:50 Y:00 P:67 SP:fb
e19d  99 00 04   STA $0400,Y A:87 X:50 Y:00 P:e5 SP:fb
e1a0  ad 00 04   LDA $0400   A:87 X:50 Y:00 P:e5 SP:fb
e1a3  c9 87      CMP #$87    A:87 X:50 Y:00 P:e5 SP:fb
e1a5  f0 02      BEQ $e1a9   A:87 X:50 Y:00 P:67 SP:fb
e1a9  60         RTS         A:87 X:50 Y:00 P:67 SP:fb
c629  20 b8 db   JSR $dbb8   A:87 X:50 Y:00 P:67 SP:fd
dbb8  a9 ff      LDA #$ff    A:87 X:50 Y:00 P:67 SP:fb
dbba  85 01      STA $01     A:ff X:50 Y:00 P:e5 SP:fb
dbbc  a9 aa      LDA #$aa    A:ff X:50 Y:00 P:e5 SP:fb
dbbe  85 33      STA $33     A:aa X:50 Y:00 P:e5 SP:fb
dbc0  a9 bb      LDA #$bb    A:aa X:50 Y:00 P:e5 SP:fb
dbc2  85 89      STA $89     A:bb X:50 Y:00 P:e5 SP:fb
dbc4  a2 00      LDX #$00    A:bb X:50 Y:00 P:e5 SP:fb
dbc6  a9 66      LDA #$66    A:bb X:00 Y:00 P:67 SP:fb
dbc8  24 01      BIT $01     A:66 X:00 Y:00 P:65 SP:fb
dbca  38         SEC         A:66 X:00 Y:00 P:e5 SP:fb
dbcb  a0 00      LDY #$00    A:66 X:00 Y:00 P:e5 SP:fb
dbcd  b4 33      LDY $33,X   A:66 X:00 Y:00 P:67 SP:fb
dbcf  10 12      BPL $dbe3   A:66 X:00 Y:aa P:e5 SP:fb
dbd1  f0 10      BEQ $dbe3   A:66 X:00 Y:aa P:e5 SP:fb
dbd3  50 0e      BVC $dbe3   A:66 X:00 Y:aa P:e5 SP:fb
dbd5  90 0c      BCC $dbe3   A:66 X:00 Y:aa P:e5 SP:fb
dbd7  c9 66      CMP #$66    A:66 X:00 Y:aa P:e5 SP:fb
dbd9  d0 08      BNE $dbe3   A:66 X:00 Y:aa P:67 SP:fb
dbdb  e0 00      CPX #$00    A:66 X:00 Y:aa P:67 SP:fb
dbdd  d0 04      BNE $dbe3   A:66 X:00 Y:aa P:67 SP:fb
dbdf  c0 aa      CPY #$aa    A:66 X:00 Y:aa P:67 SP:fb
dbe1  f0 04      BEQ $dbe7   A:66 X:00 Y:aa P:67 SP:fb
dbe7  a2 8a      LDX #$8a    A:66 X:00 Y:aa P:67 SP:fb
dbe9  a9 66      LDA #$66    A:66 X:8a Y:aa P:e5 SP:fb
dbeb  b8         CLV         A:66 X:8a Y:aa P:65 SP:fb
dbec  18         CLC         A:66 X:8a Y:aa P:25 SP:fb
dbed  a0 00      LDY #$00    A:66 X:8a Y:aa P:24 SP:fb
dbef  b4 ff      LDY $ff,X   A:66 X:8a Y:00 P:26 SP:fb
dbf1  10 12      BPL $dc05   A:66 X:8a Y:bb P:a4 SP:fb
dbf3  f0 10      BEQ $dc05   A:66 X:8a Y:bb P:a4 SP:fb
dbf5  70 0e      BVS $dc05   A:66 X:8a Y:bb P:a4 SP:fb
dbf7  b0 0c      BCS $dc05   A:66 X:8a Y:bb P:a4 SP:fb
dbf9  c0 bb      CPY #$bb    A:66 X:8a Y:bb P:a4 SP:fb
dbfb  d0 08      BNE $dc05   A:66 X:8a Y:bb P:27 SP:fb
dbfd  c9 66      CMP #$66    A:66 X:8a Y:bb P:27 SP:fb
dbff  d0 04      BNE $dc05   A:66 X:8a Y:bb P:27 SP:fb
dc01  e0 8a      CPX #$8a    A:66 X:8a Y:bb P:27 SP:fb
dc03  f0 04      BEQ $dc09   A:66 X:8a Y:bb P:27 SP:fb
dc09  24 01      BIT $01     A:66 X:8a Y:bb P:27 SP:fb
dc0b  38         SEC         A:66 X:8a Y:bb P:e5 SP:fb
dc0c  a0 44      LDY #$44    A:66 X:8a Y:bb P:e5 SP:fb
dc0e  a2 00      LDX #$00    A:66 X:8a Y:44 P:65 SP:fb
dc10  94 33      STY $33,X   A:66 X:00 Y:44 P:67 SP:fb
dc12  a5 33      LDA $33     A:66 X:00 Y:44 P:67 SP:fb
dc14  90 18      BCC $dc2e   A:44 X:00 Y:44 P:65 SP:fb
dc16  c9 44      CMP #$44    A:44 X:00 Y:44 P:65 SP:fb
dc18  d0 14      BNE $dc2e   A:44 X:00 Y:44 P:67 SP:fb
dc1a  50 12      BVC $dc2e   A:44 X:00 Y:44 P:67 SP:fb
dc1c  18         CLC         A:44 X:00 Y:44 P:67 SP:fb
dc1d  b8         CLV         A:44 X:00 Y:44 P:66 SP:fb
dc1e  a0 99      LDY #$99    A:44 X:00 Y:44 P:26 SP:fb
dc20  a2 80      LDX #$80    A:44 X:00 Y:99 P:a4 SP:fb
dc22  94 85      STY $85,X   A:44 X:80 Y:99 P:a4 SP:fb
dc24  a5 05      LDA $05     A:44 X:80 Y:99 P:a4 SP:fb
dc26  b0 06      BCS $dc2e   A:99 X:80 Y:99 P:a4 SP:fb
dc28  c9 99      CMP #$99    A:99 X:80 Y:99 P:a4 SP:fb
dc2a  d0 02      BNE $dc2e   A:99 X:80 Y:99 P:27 SP:fb
dc2c  50 04      BVC $dc32   A:99 X:80 Y:99 P:27 SP:fb
dc32  a0 0b      LDY #$0b    A:99 X:80 Y:99 P:27 SP:fb
dc34  a9 aa      LDA #$aa    A:99 X:80 Y:0b P:25 SP:fb
dc36  a2 78      LDX #$78    A:aa X:80 Y:0b P:a5 SP:fb
dc38  85 78      STA $78     A:aa X:78 Y:0b P:25 SP:fb
dc3a  20 b6 f7   JSR $f7b6   A:aa X:78 Y:0b P:25 SP:fb
f7b6  18         CLC         A:aa X:78 Y:0b P:25 SP:f9
f7b7  a9 ff      LDA #$ff    A:aa X:78 Y:0b P:24 SP:f9
f7b9  85 01      STA $01     A:ff X:78 Y:0b P:a4 SP:f9
f7bb  24 01      BIT $01     A:ff X:78 Y:0b P:a4 SP:f9
f7bd  a9 55      LDA #$55    A:ff X:78 Y:0b P:e4 SP:f9
f7bf  60         RTS         A:55 X:78 Y:0b P:64 SP:f9
dc3d  15 00      ORA $00,X   A:55 X:78 Y:0b P:64 SP:fb
dc3f  20 c0 f7   JSR $f7c0   A:ff X:78 Y:0b P:e4 SP:fb
f7c0  b0 09      BCS $f7cb   A:ff X:78 Y:0b P:e4 SP:f9
f7c2  10 07      BPL $f7cb   A:ff X:78 Y:0b P:e4 SP:f9
f7c4  c9 ff      CMP #$ff    A:ff X:78 Y:0b P:e4 SP:f9
f7c6  d0 03      BNE $f7cb   A:ff X:78 Y:0b P:67 SP:f9
f7c8  50 01      BVC $f7cb   A:ff X:78 Y:0b P:67 SP:f9
f7ca  60         RTS         A:ff X:78 Y:0b P:67 SP:f9
dc42  c8         INY         A:ff X:78 Y:0b P:67 SP:fb
dc43  a9 00      LDA #$00    A:ff X:78 Y:0c P:65 SP:fb
dc45  85 78      STA $78     A:00 X:78 Y:0c P:67 SP:fb
dc47  20 ce f7   JSR $f7ce   A:00 X:78 Y:0c P:67 SP:fb
f7ce  38         SEC         A:00 X:78 Y:0c P:67 SP:f9
f7cf  b8         CLV         A:00 X:78 Y:0c P:67 SP:f9
f7d0  a9 00      LDA #$00    A:00 X:78 Y:0c P:27 SP:f9
f7d2  60         RTS         A:00 X:78 Y:0c P:27 SP:f9
dc4a  15 00      ORA $00,X   A:00 X:78 Y:0c P:27 SP:fb
dc4c  20 d3 f7   JSR $f7d3   A:00 X:78 Y:0c P:27 SP:fb
f7d3  d0 07      BNE $f7dc   A:00 X:78 Y:0c P:27 SP:f9
f7d5  70 05      BVS $f7dc   A:00 X:78 Y:0c P:27 SP:f9
f7d7  90 03      BCC $f7dc   A:00 X:78 Y:0c P:27 SP:f9
f7d9  30 01      BMI $f7dc   A:00 X:78 Y:0c P:27 SP:f9
f7db  60         RTS         A:00 X:78 Y:0c P:27 SP:f9
dc4f  c8         INY         A:00 X:78 Y:0c P:27 SP:fb
dc50  a9 aa      LDA #$aa    A:00 X:78 Y:0d P:25 SP:fb
dc52  85 78      STA $78     A:aa X:78 Y:0d P:a5 SP:fb
dc54  20 df f7   JSR $f7df   A:aa X:78 Y:0d P:a5 SP:fb
f7df  18         CLC         A:aa X:78 Y:0d P:a5 SP:f9
f7e0  24 01      BIT $01     A:aa X:78 Y:0d P:a4 SP:f9
f7e2  a9 55      LDA #$55    A:aa X:78 Y:0d P:e4 SP:f9
f7e4  60         RTS         A:55 X:78 Y:0d P:64 SP:f9
dc57  35 00      AND $00,X   A:55 X:78 Y:0d P:64 SP:fb
dc59  20 e5 f7   JSR $f7e5   A:00 X:78 Y:0d P:66 SP:fb
f7e5  d0 07      BNE $f7ee   A:00 X:78 Y:0d P:66 SP:f9
f7e7  50 05      BVC $f7ee   A:00 X:78 Y:0d P:66 SP:f9
f7e9  b0 03      BCS $f7ee   A:00 X:78 Y:0d P:66 SP:f9
f7eb  30 01      BMI $f7ee   A:00 X:78 Y:0d P:66 SP:f9
f7ed  60         RTS         A:00 X:78 Y:0d P:66 SP:f9
dc5c  c8         INY         A:00 X:78 Y:0d P:66 SP:fb
dc5d  a9 ef      LDA #$ef    A:00 X:78 Y:0e P:64 SP:fb
dc5f  85 78      STA $78     A:ef X:78 Y:0e P:e4 SP:fb
dc61  20 f1 f7   JSR $f7f1   A:ef X:78 Y:0e P:e4 SP:fb
f7f1  38         SEC         A:ef X:78 Y:0e P:e4 SP:f9
f7f2  b8         CLV         A:ef X:78 Y:0e P:e5 SP:f9
f7f3  a9 f8      LDA #$f8    A:ef X:78 Y:0e P:a5 SP:f9
f7f5  60         RTS         A:f8 X:78 Y:0e P:a5 SP:f9
dc64  35 00      AND $00,X   A:f8 X:78 Y:0e P:a5 SP:fb
dc66  20 f6 f7   JSR $f7f6   A:e8 X:78 Y:0e P:a5 SP:fb
f7f6  90 09      BCC $f801   A:e8 X:78 Y:0e P:a5 SP:f9
f7f8  10 07      BPL $f801   A:e8 X:78 Y:0e P:a5 SP:f9
f7fa  c9 e8      CMP #$e8    A:e8 X:78 Y:0e P:a5 SP:f9
f7fc  d0 03      BNE $f801   A:e8 X:78 Y:0e P:27 SP:f9
f7fe  70 01      BVS $f801   A:e8 X:78 Y:0e P:27 SP:f9
f800  60         RTS         A:e8 X:78 Y:0e P:27 SP:f9
dc69  c8         INY         A:e8 X:78 Y:0e P:27 SP:fb
dc6a  a9 aa      LDA #$aa    A:e8 X:78 Y:0f P:25 SP:fb
dc6c  85 78      STA $78     A:aa X:78 Y:0f P:a5 SP:fb
dc6e  20 04 f8   JSR $f804   A:aa X:78 Y:0f P:a5 SP:fb
f804  18         CLC         A:aa X:78 Y:0f P:a5 SP:f9
f805  24 01      BIT $01     A:aa X:78 Y:0f P:a4 SP:f9
f807  a9 5f      LDA #$5f    A:aa X:78 Y:0f P:e4 SP:f9
f809  60         RTS         A:5f X:78 Y:0f P:64 SP:f9
dc71  55 00      EOR $00,X   A:5f X:78 Y:0f P:64 SP:fb
dc73  20 0a f8   JSR $f80a   A:f5 X:78 Y:0f P:e4 SP:fb
f80a  b0 09      BCS $f815   A:f5 X:78 Y:0f P:e4 SP:f9
f80c  10 07      BPL $f815   A:f5 X:78 Y:0f P:e4 SP:f9
f80e  c9 f5      CMP #$f5    A:f5 X:78 Y:0f P:e4 SP:f9
f810  d0 03      BNE $f815   A:f5 X:78 Y:0f P:67 SP:f9
f812  50 01      BVC $f815   A:f5 X:78 Y:0f P:67 SP:f9
f814  60         RTS         A:f5 X:78 Y:0f P:67 SP:f9
dc76  c8         INY         A:f5 X:78 Y:0f P:67 SP:fb
dc77  a9 70      LDA #$70    A:f5 X:78 Y:10 P:65 SP:fb
dc79  85 78      STA $78     A:70 X:78 Y:10 P:65 SP:fb
dc7b  20 18 f8   JSR $f818   A:70 X:78 Y:10 P:65 SP:fb
f818  38         SEC         A:70 X:78 Y:10 P:65 SP:f9
f819  b8         CLV         A:70 X:78 Y:10 P:65 SP:f9
f81a  a9 70      LDA #$70    A:70 X:78 Y:10 P:25 SP:f9
f81c  60         RTS         A:70 X:78 Y:10 P:25 SP:f9
dc7e  55 00      EOR $00,X   A:70 X:78 Y:10 P:25 SP:fb
dc80  20 1d f8   JSR $f81d   A:00 X:78 Y:10 P:27 SP:fb
f81d  d0 07      BNE $f826   A:00 X:78 Y:10 P:27 SP:f9
f81f  70 05      BVS $f826   A:00 X:78 Y:10 P:27 SP:f9
f821  90 03      BCC $f826   A:00 X:78 Y:10 P:27 SP:f9
f823  30 01      BMI $f826   A:00 X:78 Y:10 P:27 SP:f9
f825  60         RTS         A:00 X:78 Y:10 P:27 SP:f9
dc83  c8         INY         A:00 X:78 Y:10 P:27 SP:fb
dc84  a9 69      LDA #$69    A:00 X:78 Y:11 P:25 SP:fb
dc86  85 78      STA $78     A:69 X:78 Y:11 P:25 SP:fb
dc88  20 29 f8   JSR $f829   A:69 X:78 Y:11 P:25 SP:fb
f829  18         CLC         A:69 X:78 Y:11 P:25 SP:f9
f82a  24 01      BIT $01     A:69 X:78 Y:11 P:24 SP:f9
f82c  a9 00      LDA #$00    A:69 X:78 Y:11 P:e4 SP:f9
f82e  60         RTS         A:00 X:78 Y:11 P:66 SP:f9
dc8b  75 00      ADC $00,X   A:00 X:78 Y:11 P:66 SP:fb
dc8d  20 2f f8   JSR $f82f   A:69 X:78 Y:11 P:24 SP:fb
f82f  30 09      BMI $f83a   A:69 X:78 Y:11 P:24 SP:f9
f831  b0 07      BCS $f83a   A:69 X:78 Y:11 P:24 SP:f9
f833  c9 69      CMP #$69    A:69 X:78 Y:11 P:24 SP:f9
f835  d0 03      BNE $f83a   A:69 X:78 Y:11 P:27 SP:f9
f837  70 01      BVS $f83a   A:69 X:78 Y:11 P:27 SP:f9
f839  60         RTS         A:69 X:78 Y:11 P:27 SP:f9
dc90  c8         INY         A:69 X:78 Y:11 P:27 SP:fb
dc91  20 3d f8   JSR $f83d   A:69 X:78 Y:12 P:25 SP:fb
f83d  38         SEC         A:69 X:78 Y:12 P:25 SP:f9
f83e  24 01      BIT $01     A:69 X:78 Y:12 P:25 SP:f9
f840  a9 00      LDA #$00    A:69 X:78 Y:12 P:e5 SP:f9
f842  60         RTS         A:00 X:78 Y:12 P:67 SP:f9
dc94  75 00      ADC $00,X   A:00 X:78 Y:12 P:67 SP:fb
dc96  20 43 f8   JSR $f843   A:6a X:78 Y:12 P:24 SP:fb
f843  30 09      BMI $f84e   A:6a X:78 Y:12 P:24 SP:f9
f845  b0 07      BCS $f84e   A:6a X:78 Y:12 P:24 SP:f9
f847  c9 6a      CMP #$6a    A:6a X:78 Y:12 P:24 SP:f9
f849  d0 03      BNE $f84e   A:6a X:78 Y:12 P:27 SP:f9
f84b  70 01      BVS $f84e   A:6a X:78 Y:12 P:27 SP:f9
f84d  60         RTS         A:6a X:78 Y:12 P:27 SP:f9
dc99  c8         INY         A:6a X:78 Y:12 P:27 SP:fb
dc9a  a9 7f      LDA #$7f    A:6a X:78 Y:13 P:25 SP:fb
dc9c  85 78      STA $78     A:7f X:78 Y:13 P:25 SP:fb
dc9e  20 51 f8   JSR $f851   A:7f X:78 Y:13 P:25 SP:fb
f851  38         SEC         A:7f X:78 Y:13 P:25 SP:f9
f852  b8         CLV         A:7f X:78 Y:13 P:25 SP:f9
f853  a9 7f      LDA #$7f    A:7f X:78 Y:13 P:25 SP:f9
f855  60         RTS         A:7f X:78 Y:13 P:25 SP:f9
dca1  75 00      ADC $00,X   A:7f X:78 Y:13 P:25 SP:fb
dca3  20 56 f8   JSR $f856   A:ff X:78 Y:13 P:e4 SP:fb
f856  10 09      BPL $f861   A:ff X:78 Y:13 P:e4 SP:f9
f858  b0 07      BCS $f861   A:ff X:78 Y:13 P:e4 SP:f9
f85a  c9 ff      CMP #$ff    A:ff X:78 Y:13 P:e4 SP:f9
f85c  d0 03      BNE $f861   A:ff X:78 Y:13 P:67 SP:f9
f85e  50 01      BVC $f861   A:ff X:78 Y:13 P:67 SP:f9
f860  60         RTS         A:ff X:78 Y:13 P:67 SP:f9
dca6  c8         INY         A:ff X:78 Y:13 P:67 SP:fb
dca7  a9 80      LDA #$80    A:ff X:78 Y:14 P:65 SP:fb
dca9  85 78      STA $78     A:80 X:78 Y:14 P:e5 SP:fb
dcab  20 64 f8   JSR $f864   A:80 X:78 Y:14 P:e5 SP:fb
f864  18         CLC         A:80 X:78 Y:14 P:e5 SP:f9
f865  24 01      BIT $01     A:80 X:78 Y:14 P:e4 SP:f9
f867  a9 7f      LDA #$7f    A:80 X:78 Y:14 P:e4 SP:f9
f869  60         RTS         A:7f X:78 Y:14 P:64 SP:f9
dcae  75 00      ADC $00,X   A:7f X:78 Y:14 P:64 SP:fb
dcb0  20 6a f8   JSR $f86a   A:ff X:78 Y:14 P:a4 SP:fb
f86a  10 09      BPL $f875   A:ff X:78 Y:14 P:a4 SP:f9
f86c  b0 07      BCS $f875   A:ff X:78 Y:14 P:a4 SP:f9
f86e  c9 ff      CMP #$ff    A:ff X:78 Y:14 P:a4 SP:f9
f870  d0 03      BNE $f875   A:ff X:78 Y:14 P:27 SP:f9
f872  70 01      BVS $f875   A:ff X:78 Y:14 P:27 SP:f9
f874  60         RTS         A:ff X:78 Y:14 P:27 SP:f9
dcb3  c8         INY         A:ff X:78 Y:14 P:27 SP:fb
dcb4  20 78 f8   JSR $f878   A:ff X:78 Y:15 P:25 SP:fb
f878  38         SEC         A:ff X:78 Y:15 P:25 SP:f9
f879  b8         CLV         A:ff X:78 Y:15 P:25 SP:f9
f87a  a9 7f      LDA #$7f    A:ff X:78 Y:15 P:25 SP:f9
f87c  60         RTS         A:7f X:78 Y:15 P:25 SP:f9
dcb7  75 00      ADC $00,X   A:7f X:78 Y:15 P:25 SP:fb
dcb9  20 7d f8   JSR $f87d   A:00 X:78 Y:15 P:27 SP:fb
f87d  d0 07      BNE $f886   A:00 X:78 Y:15 P:27 SP:f9
f87f  30 05      BMI $f886   A:00 X:78 Y:15 P:27 SP:f9
f881  70 03      BVS $f886   A:00 X:78 Y:15 P:27 SP:f9
f883  90 01      BCC $f886   A:00 X:78 Y:15 P:27 SP:f9
f885  60         RTS         A:00 X:78 Y:15 P:27 SP:f9
dcbc  c8         INY         A:00 X:78 Y:15 P:27 SP:fb
dcbd  a9 40      LDA #$40    A:00 X:78 Y:16 P:25 SP:fb
dcbf  85 78      STA $78     A:40 X:78 Y:16 P:25 SP:fb
dcc1  20 89 f8   JSR $f889   A:40 X:78 Y:16 P:25 SP:fb
f889  24 01      BIT $01     A:40 X:78 Y:16 P:25 SP:f9
f88b  a9 40      LDA #$40    A:40 X:78 Y:16 P:e5 SP:f9
f88d  60         RTS         A:40 X:78 Y:16 P:65 SP:f9
dcc4  d5 00      CMP $00,X   A:40 X:78 Y:16 P:65 SP:fb
dcc6  20 8e f8   JSR $f88e   A:40 X:78 Y:16 P:67 SP:fb
f88e  30 07      BMI $f897   A:40 X:78 Y:16 P:67 SP:f9
f890  90 05      BCC $f897   A:40 X:78 Y:16 P:67 SP:f9
f892  d0 03      BNE $f897   A:40 X:78 Y:16 P:67 SP:f9
f894  50 01      BVC $f897   A:40 X:78 Y:16 P:67 SP:f9
f896  60         RTS         A:40 X:78 Y:16 P:67 SP:f9
dcc9  c8         INY         A:40 X:78 Y:16 P:67 SP:fb
dcca  48         PHA         A:40 X:78 Y:17 P:65 SP:fb
dccb  a9 3f      LDA #$3f    A:40 X:78 Y:17 P:65 SP:fa
dccd  85 78      STA $78     A:3f X:78 Y:17 P:65 SP:fa
dccf  68         PLA         A:3f X:78 Y:17 P:65 SP:fa
dcd0  20 9a f8   JSR $f89a   A:40 X:78 Y:17 P:65 SP:fb
f89a  b8         CLV         A:40 X:78 Y:17 P:65 SP:f9
f89b  60         RTS         A:40 X:78 Y:17 P:25 SP:f9
dcd3  d5 00      CMP $00,X   A:40 X:78 Y:17 P:25 SP:fb
dcd5  20 9c f8   JSR $f89c   A:40 X:78 Y:17 P:25 SP:fb
f89c  f0 07      BEQ $f8a5   A:40 X:78 Y:17 P:25 SP:f9
f89e  30 05      BMI $f8a5   A:40 X:78 Y:17 P:25 SP:f9
f8a0  90 03      BCC $f8a5   A:40 X:78 Y:17 P:25 SP:f9
f8a2  70 01      BVS $f8a5   A:40 X:78 Y:17 P:25 SP:f9
f8a4  60         RTS         A:40 X:78 Y:17 P:25 SP:f9
dcd8  c8         INY         A:40 X:78 Y:17 P:25 SP:fb
dcd9  48         PHA         A:40 X:78 Y:18 P:25 SP:fb
dcda  a9 41      LDA #$41    A:40 X:78 Y:18 P:25 SP:fa
dcdc  85 78      STA $78     A:41 X:78 Y:18 P:25 SP:fa
dcde  68         PLA         A:41 X:78 Y:18 P:25 SP:fa
dcdf  d5 00      CMP $00,X   A:40 X:78 Y:18 P:25 SP:fb
dce1  20 a8 f8   JSR $f8a8   A:40 X:78 Y:18 P:a4 SP:fb
f8a8  f0 05      BEQ $f8af   A:40 X:78 Y:18 P:a4 SP:f9
f8aa  10 03      BPL $f8af   A:40 X:78 Y:18 P:a4 SP:f9
f8ac  10 01      BPL $f8af   A:40 X:78 Y:18 P:a4 SP:f9
f8ae  60         RTS         A:40 X:78 Y:18 P:a4 SP:f9
dce4  c8         INY         A:40 X:78 Y:18 P:a4 SP:fb
dce5  48         PHA         A:40 X:78 Y:19 P:24 SP:fb
dce6  a9 00      LDA #$00    A:40 X:78 Y:19 P:24 SP:fa
dce8  85 78      STA $78     A:00 X:78 Y:19 P:26 SP:fa
dcea  68         PLA         A:00 X:78 Y:19 P:26 SP:fa
dceb  20 b2 f8   JSR $f8b2   A:40 X:78 Y:19 P:24 SP:fb
f8b2  a9 80      LDA #$80    A:40 X:78 Y:19 P:24 SP:f9
f8b4  60         RTS         A:80 X:78 Y:19 P:a4 SP:f9
dcee  d5 00      CMP $00,X   A:80 X:78 Y:19 P:a4 SP:fb
dcf0  20 b5 f8   JSR $f8b5   A:80 X:78 Y:19 P:a5 SP:fb
f8b5  f0 05      BEQ $f8bc   A:80 X:78 Y:19 P:a5 SP:f9
f8b7  10 03      BPL $f8bc   A:80 X:78 Y:19 P:a5 SP:f9
f8b9  90 01      BCC $f8bc   A:80 X:78 Y:19 P:a5 SP:f9
f8bb  60         RTS         A:80 X:78 Y:19 P:a5 SP:f9
dcf3  c8         INY         A:80 X:78 Y:19 P:a5 SP:fb
dcf4  48         PHA         A:80 X:78 Y:1a P:25 SP:fb
dcf5  a9 80      LDA #$80    A:80 X:78 Y:1a P:25 SP:fa
dcf7  85 78      STA $78     A:80 X:78 Y:1a P:a5 SP:fa
dcf9  68         PLA         A:80 X:78 Y:1a P:a5 SP:fa
dcfa  d5 00      CMP $00,X   A:80 X:78 Y:1a P:a5 SP:fb
dcfc  20 bf f8   JSR $f8bf   A:80 X:78 Y:1a P:27 SP:fb
f8bf  d0 05      BNE $f8c6   A:80 X:78 Y:1a P:27 SP:f9
f8c1  30 03      BMI $f8c6   A:80 X:78 Y:1a P:27 SP:f9
f8c3  90 01      BCC $f8c6   A:80 X:78 Y:1a P:27 SP:f9
f8c5  60         RTS         A:80 X:78 Y:1a P:27 SP:f9
dcff  c8         INY         A:80 X:78 Y:1a P:27 SP:fb
dd00  48         PHA         A:80 X:78 Y:1b P:25 SP:fb
dd01  a9 81      LDA #$81    A:80 X:78 Y:1b P:25 SP:fa
dd03  85 78      STA $78     A:81 X:78 Y:1b P:a5 SP:fa
dd05  68         PLA         A:81 X:78 Y:1b P:a5 SP:fa
dd06  d5 00      CMP $00,X   A:80 X:78 Y:1b P:a5 SP:fb
dd08  20 c9 f8   JSR $f8c9   A:80 X:78 Y:1b P:a4 SP:fb
f8c9  b0 05      BCS $f8d0   A:80 X:78 Y:1b P:a4 SP:f9
f8cb  f0 03      BEQ $f8d0   A:80 X:78 Y:1b P:a4 SP:f9
f8cd  10 01      BPL $f8d0   A:80 X:78 Y:1b P:a4 SP:f9
f8cf  60         RTS         A:80 X:78 Y:1b P:a4 SP:f9
dd0b  c8         INY         A:80 X:78 Y:1b P:a4 SP:fb
dd0c  48         PHA         A:80 X:78 Y:1c P:24 SP:fb
dd0d  a9 7f      LDA #$7f    A:80 X:78 Y:1c P:24 SP:fa
dd0f  85 78      STA $78     A:7f X:78 Y:1c P:24 SP:fa
dd11  68         PLA         A:7f X:78 Y:1c P:24 SP:fa
dd12  d5 00      CMP $00,X   A:80 X:78 Y:1c P:a4 SP:fb
dd14  20 d3 f8   JSR $f8d3   A:80 X:78 Y:1c P:25 SP:fb
f8d3  90 05      BCC $f8da   A:80 X:78 Y:1c P:25 SP:f9
f8d5  f0 03      BEQ $f8da   A:80 X:78 Y:1c P:25 SP:f9
f8d7  30 01      BMI $f8da   A:80 X:78 Y:1c P:25 SP:f9
f8d9  60         RTS         A:80 X:78 Y:1c P:25 SP:f9
dd17  c8         INY         A:80 X:78 Y:1c P:25 SP:fb
dd18  a9 40      LDA #$40    A:80 X:78 Y:1d P:25 SP:fb
dd1a  85 78      STA $78     A:40 X:78 Y:1d P:25 SP:fb
dd1c  20 31 f9   JSR $f931   A:40 X:78 Y:1d P:25 SP:fb
f931  24 01      BIT $01     A:40 X:78 Y:1d P:25 SP:f9
f933  a9 40      LDA #$40    A:40 X:78 Y:1d P:e5 SP:f9
f935  38         SEC         A:40 X:78 Y:1d P:65 SP:f9
f936  60         RTS         A:40 X:78 Y:1d P:65 SP:f9
dd1f  f5 00      SBC $00,X   A:40 X:78 Y:1d P:65 SP:fb
dd21  20 37 f9   JSR $f937   A:00 X:78 Y:1d P:27 SP:fb
f937  30 0b      BMI $f944   A:00 X:78 Y:1d P:27 SP:f9
f939  90 09      BCC $f944   A:00 X:78 Y:1d P:27 SP:f9
f93b  d0 07      BNE $f944   A:00 X:78 Y:1d P:27 SP:f9
f93d  70 05      BVS $f944   A:00 X:78 Y:1d P:27 SP:f9
f93f  c9 00      CMP #$00    A:00 X:78 Y:1d P:27 SP:f9
f941  d0 01      BNE $f944   A:00 X:78 Y:1d P:27 SP:f9
f943  60         RTS         A:00 X:78 Y:1d P:27 SP:f9
dd24  c8         INY         A:00 X:78 Y:1d P:27 SP:fb
dd25  a9 3f      LDA #$3f    A:00 X:78 Y:1e P:25 SP:fb
dd27  85 78      STA $78     A:3f X:78 Y:1e P:25 SP:fb
dd29  20 47 f9   JSR $f947   A:3f X:78 Y:1e P:25 SP:fb
f947  b8         CLV         A:3f X:78 Y:1e P:25 SP:f9
f948  38         SEC         A:3f X:78 Y:1e P:25 SP:f9
f949  a9 40      LDA #$40    A:3f X:78 Y:1e P:25 SP:f9
f94b  60         RTS         A:40 X:78 Y:1e P:25 SP:f9
dd2c  f5 00      SBC $00,X   A:40 X:78 Y:1e P:25 SP:fb
dd2e  20 4c f9   JSR $f94c   A:01 X:78 Y:1e P:25 SP:fb
f94c  f0 0b      BEQ $f959   A:01 X:78 Y:1e P:25 SP:f9
f94e  30 09      BMI $f959   A:01 X:78 Y:1e P:25 SP:f9
f950  90 07      BCC $f959   A:01 X:78 Y:1e P:25 SP:f9
f952  70 05      BVS $f959   A:01 X:78 Y:1e P:25 SP:f9
f954  c9 01      CMP #$01    A:01 X:78 Y:1e P:25 SP:f9
f956  d0 01      BNE $f959   A:01 X:78 Y:1e P:27 SP:f9
f958  60         RTS         A:01 X:78 Y:1e P:27 SP:f9
dd31  c8         INY         A:01 X:78 Y:1e P:27 SP:fb
dd32  a9 41      LDA #$41    A:01 X:78 Y:1f P:25 SP:fb
dd34  85 78      STA $78     A:41 X:78 Y:1f P:25 SP:fb
dd36  20 5c f9   JSR $f95c   A:41 X:78 Y:1f P:25 SP:fb
f95c  a9 40      LDA #$40    A:41 X:78 Y:1f P:25 SP:f9
f95e  38         SEC         A:40 X:78 Y:1f P:25 SP:f9
f95f  24 01      BIT $01     A:40 X:78 Y:1f P:25 SP:f9
f961  60         RTS         A:40 X:78 Y:1f P:e5 SP:f9
dd39  f5 00      SBC $00,X   A:40 X:78 Y:1f P:e5 SP:fb
dd3b  20 62 f9   JSR $f962   A:ff X:78 Y:1f P:a4 SP:fb
f962  b0 0b      BCS $f96f   A:ff X:78 Y:1f P:a4 SP:f9
f964  f0 09      BEQ $f96f   A:ff X:78 Y:1f P:a4 SP:f9
f966  10 07      BPL $f96f   A:ff X:78 Y:1f P:a4 SP:f9
f968  70 05      BVS $f96f   A:ff X:78 Y:1f P:a4 SP:f9
f96a  c9 ff      CMP #$ff    A:ff X:78 Y:1f P:a4 SP:f9
f96c  d0 01      BNE $f96f   A:ff X:78 Y:1f P:27 SP:f9
f96e  60         RTS         A:ff X:78 Y:1f P:27 SP:f9
dd3e  c8         INY         A:ff X:78 Y:1f P:27 SP:fb
dd3f  a9 00      LDA #$00    A:ff X:78 Y:20 P:25 SP:fb
dd41  85 78      STA $78     A:00 X:78 Y:20 P:27 SP:fb
dd43  20 72 f9   JSR $f972   A:00 X:78 Y:20 P:27 SP:fb
f972  18         CLC         A:00 X:78 Y:20 P:27 SP:f9
f973  a9 80      LDA #$80    A:00 X:78 Y:20 P:26 SP:f9
f975  60         RTS         A:80 X:78 Y:20 P:a4 SP:f9
dd46  f5 00      SBC $00,X   A:80 X:78 Y:20 P:a4 SP:fb
dd48  20 76 f9   JSR $f976   A:7f X:78 Y:20 P:65 SP:fb
f976  90 05      BCC $f97d   A:7f X:78 Y:20 P:65 SP:f9
f978  c9 7f      CMP #$7f    A:7f X:78 Y:20 P:65 SP:f9
f97a  d0 01      BNE $f97d   A:7f X:78 Y:20 P:67 SP:f9
f97c  60         RTS         A:7f X:78 Y:20 P:67 SP:f9
dd4b  c8         INY         A:7f X:78 Y:20 P:67 SP:fb
dd4c  a9 7f      LDA #$7f    A:7f X:78 Y:21 P:65 SP:fb
dd4e  85 78      STA $78     A:7f X:78 Y:21 P:65 SP:fb
dd50  20 80 f9   JSR $f980   A:7f X:78 Y:21 P:65 SP:fb
f980  38         SEC         A:7f X:78 Y:21 P:65 SP:f9
f981  a9 81      LDA #$81    A:7f X:78 Y:21 P:65 SP:f9
f983  60         RTS         A:81 X:78 Y:21 P:e5 SP:f9
dd53  f5 00      SBC $00,X   A:81 X:78 Y:21 P:e5 SP:fb
dd55  20 84 f9   JSR $f984   A:02 X:78 Y:21 P:65 SP:fb
f984  50 07      BVC $f98d   A:02 X:78 Y:21 P:65 SP:f9
f986  90 05      BCC $f98d   A:02 X:78 Y:21 P:65 SP:f9
f988  c9 02      CMP #$02    A:02 X:78 Y:21 P:65 SP:f9
f98a  d0 01      BNE $f98d   A:02 X:78 Y:21 P:67 SP:f9
f98c  60         RTS         A:02 X:78 Y:21 P:67 SP:f9
dd58  a9 aa      LDA #$aa    A:02 X:78 Y:21 P:67 SP:fb
dd5a  85 33      STA $33     A:aa X:78 Y:21 P:e5 SP:fb
dd5c  a9 bb      LDA #$bb    A:aa X:78 Y:21 P:e5 SP:fb
dd5e  85 89      STA $89     A:bb X:78 Y:21 P:e5 SP:fb
dd60  a2 00      LDX #$00    A:bb X:78 Y:21 P:e5 SP:fb
dd62  a0 66      LDY #$66    A:bb X:00 Y:21 P:67 SP:fb
dd64  24 01      BIT $01     A:bb X:00 Y:66 P:65 SP:fb
dd66  38         SEC         A:bb X:00 Y:66 P:e5 SP:fb
dd67  a9 00      LDA #$00    A:bb X:00 Y:66 P:e5 SP:fb
dd69  b5 33      LDA $33,X   A:00 X:00 Y:66 P:67 SP:fb
dd6b  10 12      BPL $dd7f   A:aa X:00 Y:66 P:e5 SP:fb
dd6d  f0 10      BEQ $dd7f   A:aa X:00 Y:66 P:e5 SP:fb
dd6f  50 0e      BVC $dd7f   A:aa X:00 Y:66 P:e5 SP:fb
dd71  90 0c      BCC $dd7f   A:aa X:00 Y:66 P:e5 SP:fb
dd73  c0 66      CPY #$66    A:aa X:00 Y:66 P:e5 SP:fb
dd75  d0 08      BNE $dd7f   A:aa X:00 Y:66 P:67 SP:fb
dd77  e0 00      CPX #$00    A:aa X:00 Y:66 P:67 SP:fb
dd79  d0 04      BNE $dd7f   A:aa X:00 Y:66 P:67 SP:fb
dd7b  c9 aa      CMP #$aa    A:aa X:00 Y:66 P:67 SP:fb
dd7d  f0 04      BEQ $dd83   A:aa X:00 Y:66 P:67 SP:fb
dd83  a2 8a      LDX #$8a    A:aa X:00 Y:66 P:67 SP:fb
dd85  a0 66      LDY #$66    A:aa X:8a Y:66 P:e5 SP:fb
dd87  b8         CLV         A:aa X:8a Y:66 P:65 SP:fb
dd88  18         CLC         A:aa X:8a Y:66 P:25 SP:fb
dd89  a9 00      LDA #$00    A:aa X:8a Y:66 P:24 SP:fb
dd8b  b5 ff      LDA $ff,X   A:00 X:8a Y:66 P:26 SP:fb
dd8d  10 12      BPL $dda1   A:bb X:8a Y:66 P:a4 SP:fb
dd8f  f0 10      BEQ $dda1   A:bb X:8a Y:66 P:a4 SP:fb
dd91  70 0e      BVS $dda1   A:bb X:8a Y:66 P:a4 SP:fb
dd93  b0 0c      BCS $dda1   A:bb X:8a Y:66 P:a4 SP:fb
dd95  c9 bb      CMP #$bb    A:bb X:8a Y:66 P:a4 SP:fb
dd97  d0 08      BNE $dda1   A:bb X:8a Y:66 P:27 SP:fb
dd99  c0 66      CPY #$66    A:bb X:8a Y:66 P:27 SP:fb
dd9b  d0 04      BNE $dda1   A:bb X:8a Y:66 P:27 SP:fb
dd9d  e0 8a      CPX #$8a    A:bb X:8a Y:66 P:27 SP:fb
dd9f  f0 04      BEQ $dda5   A:bb X:8a Y:66 P:27 SP:fb
dda5  24 01      BIT $01     A:bb X:8a Y:66 P:27 SP:fb
dda7  38         SEC         A:bb X:8a Y:66 P:e5 SP:fb
dda8  a9 44      LDA #$44    A:bb X:8a Y:66 P:e5 SP:fb
ddaa  a2 00      LDX #$00    A:44 X:8a Y:66 P:65 SP:fb
ddac  95 33      STA $33,X   A:44 X:00 Y:66 P:67 SP:fb
ddae  a5 33      LDA $33     A:44 X:00 Y:66 P:67 SP:fb
ddb0  90 18      BCC $ddca   A:44 X:00 Y:66 P:65 SP:fb
ddb2  c9 44      CMP #$44    A:44 X:00 Y:66 P:65 SP:fb
ddb4  d0 14      BNE $ddca   A:44 X:00 Y:66 P:67 SP:fb
ddb6  50 12      BVC $ddca   A:44 X:00 Y:66 P:67 SP:fb
ddb8  18         CLC         A:44 X:00 Y:66 P:67 SP:fb
ddb9  b8         CLV         A:44 X:00 Y:66 P:66 SP:fb
ddba  a9 99      LDA #$99    A:44 X:00 Y:66 P:26 SP:fb
ddbc  a2 80      LDX #$80    A:99 X:00 Y:66 P:a4 SP:fb
ddbe  95 85      STA $85,X   A:99 X:80 Y:66 P:a4 SP:fb
ddc0  a5 05      LDA $05     A:99 X:80 Y:66 P:a4 SP:fb
ddc2  b0 06      BCS $ddca   A:99 X:80 Y:66 P:a4 SP:fb
ddc4  c9 99      CMP #$99    A:99 X:80 Y:66 P:a4 SP:fb
ddc6  d0 02      BNE $ddca   A:99 X:80 Y:66 P:27 SP:fb
ddc8  50 04      BVC $ddce   A:99 X:80 Y:66 P:27 SP:fb
ddce  a0 25      LDY #$25    A:99 X:80 Y:66 P:27 SP:fb
ddd0  a2 78      LDX #$78    A:99 X:80 Y:25 P:25 SP:fb
ddd2  20 90 f9   JSR $f990   A:99 X:78 Y:25 P:25 SP:fb
f990  a2 55      LDX #$55    A:99 X:78 Y:25 P:25 SP:f9
f992  a9 ff      LDA #$ff    A:99 X:55 Y:25 P:25 SP:f9
f994  85 01      STA $01     A:ff X:55 Y:25 P:a5 SP:f9
f996  ea         NOP         A:ff X:55 Y:25 P:a5 SP:f9
f997  24 01      BIT $01     A:ff X:55 Y:25 P:a5 SP:f9
f999  38         SEC         A:ff X:55 Y:25 P:e5 SP:f9
f99a  a9 01      LDA #$01    A:ff X:55 Y:25 P:e5 SP:f9
f99c  60         RTS         A:01 X:55 Y:25 P:65 SP:f9
ddd5  95 00      STA $00,X   A:01 X:55 Y:25 P:65 SP:fb
ddd7  56 00      LSR $00,X   A:01 X:55 Y:25 P:65 SP:fb
ddd9  b5 00      LDA $00,X   A:01 X:55 Y:25 P:67 SP:fb
dddb  20 9d f9   JSR $f99d   A:00 X:55 Y:25 P:67 SP:fb
f99d  90 1b      BCC $f9ba   A:00 X:55 Y:25 P:67 SP:f9
f99f  d0 19      BNE $f9ba   A:00 X:55 Y:25 P:67 SP:f9
f9a1  30 17      BMI $f9ba   A:00 X:55 Y:25 P:67 SP:f9
f9a3  50 15      BVC $f9ba   A:00 X:55 Y:25 P:67 SP:f9
f9a5  c9 00      CMP #$00    A:00 X:55 Y:25 P:67 SP:f9
f9a7  d0 11      BNE $f9ba   A:00 X:55 Y:25 P:67 SP:f9
f9a9  b8         CLV         A:00 X:55 Y:25 P:67 SP:f9
f9aa  a9 aa      LDA #$aa    A:00 X:55 Y:25 P:27 SP:f9
f9ac  60         RTS         A:aa X:55 Y:25 P:a5 SP:f9
ddde  c8         INY         A:aa X:55 Y:25 P:a5 SP:fb
dddf  95 00      STA $00,X   A:aa X:55 Y:26 P:25 SP:fb
dde1  56 00      LSR $00,X   A:aa X:55 Y:26 P:25 SP:fb
dde3  b5 00      LDA $00,X   A:aa X:55 Y:26 P:24 SP:fb
dde5  20 ad f9   JSR $f9ad   A:55 X:55 Y:26 P:24 SP:fb
f9ad  b0 0b      BCS $f9ba   A:55 X:55 Y:26 P:24 SP:f9
f9af  f0 09      BEQ $f9ba   A:55 X:55 Y:26 P:24 SP:f9
f9b1  30 07      BMI $f9ba   A:55 X:55 Y:26 P:24 SP:f9
f9b3  70 05      BVS $f9ba   A:55 X:55 Y:26 P:24 SP:f9
f9b5  c9 55      CMP #$55    A:55 X:55 Y:26 P:24 SP:f9
f9b7  d0 01      BNE $f9ba   A:55 X:55 Y:26 P:27 SP:f9
f9b9  60         RTS         A:55 X:55 Y:26 P:27 SP:f9
dde8  c8         INY         A:55 X:55 Y:26 P:27 SP:fb
dde9  20 bd f9   JSR $f9bd   A:55 X:55 Y:27 P:25 SP:fb
f9bd  24 01      BIT $01     A:55 X:55 Y:27 P:25 SP:f9
f9bf  38         SEC         A:55 X:55 Y:27 P:e5 SP:f9
f9c0  a9 80      LDA #$80    A:55 X:55 Y:27 P:e5 SP:f9
f9c2  60         RTS         A:80 X:55 Y:27 P:e5 SP:f9
ddec  95 00      STA $00,X   A:80 X:55 Y:27 P:e5 SP:fb
ddee  16 00      ASL $00,X   A:80 X:55 Y:27 P:e5 SP:fb
ddf0  b5 00      LDA $00,X   A:80 X:55 Y:27 P:67 SP:fb
ddf2  20 c3 f9   JSR $f9c3   A:00 X:55 Y:27 P:67 SP:fb
f9c3  90 1c      BCC $f9e1   A:00 X:55 Y:27 P:67 SP:f9
f9c5  d0 1a      BNE $f9e1   A:00 X:55 Y:27 P:67 SP:f9
f9c7  30 18      BMI $f9e1   A:00 X:55 Y:27 P:67 SP:f9
f9c9  50 16      BVC $f9e1   A:00 X:55 Y:27 P:67 SP:f9
f9cb  c9 00      CMP #$00    A:00 X:55 Y:27 P:67 SP:f9
f9cd  d0 12      BNE $f9e1   A:00 X:55 Y:27 P:67 SP:f9
f9cf  b8         CLV         A:00 X:55 Y:27 P:67 SP:f9
f9d0  a9 55      LDA #$55    A:00 X:55 Y:27 P:27 SP:f9
f9d2  38         SEC         A:55 X:55 Y:27 P:25 SP:f9
f9d3  60         RTS         A:55 X:55 Y:27 P:25 SP:f9
ddf5  c8         INY         A:55 X:55 Y:27 P:25 SP:fb
ddf6  95 00      STA $00,X   A:55 X:55 Y:28 P:25 SP:fb
ddf8  16 00      ASL $00,X   A:55 X:55 Y:28 P:25 SP:fb
ddfa  b5 00      LDA $00,X   A:55 X:55 Y:28 P:a4 SP:fb
ddfc  20 d4 f9   JSR $f9d4   A:aa X:55 Y:28 P:a4 SP:fb
f9d4  b0 0b      BCS $f9e1   A:aa X:55 Y:28 P:a4 SP:f9
f9d6  f0 09      BEQ $f9e1   A:aa X:55 Y:28 P:a4 SP:f9
f9d8  10 07      BPL $f9e1   A:aa X:55 Y:28 P:a4 SP:f9
f9da  70 05      BVS $f9e1   A:aa X:55 Y:28 P:a4 SP:f9
f9dc  c9 aa      CMP #$aa    A:aa X:55 Y:28 P:a4 SP:f9
f9de  d0 01      BNE $f9e1   A:aa X:55 Y:28 P:27 SP:f9
f9e0  60         RTS         A:aa X:55 Y:28 P:27 SP:f9
ddff  c8         INY         A:aa X:55 Y:28 P:27 SP:fb
de00  20 e4 f9   JSR $f9e4   A:aa X:55 Y:29 P:25 SP:fb
f9e4  24 01      BIT $01     A:aa X:55 Y:29 P:25 SP:f9
f9e6  38         SEC         A:aa X:55 Y:29 P:e5 SP:f9
f9e7  a9 01      LDA #$01    A:aa X:55 Y:29 P:e5 SP:f9
f9e9  60         RTS         A:01 X:55 Y:29 P:65 SP:f9
de03  95 00      STA $00,X   A:01 X:55 Y:29 P:65 SP:fb
de05  76 00      ROR $00,X   A:01 X:55 Y:29 P:65 SP:fb
de07  b5 00      LDA $00,X   A:01 X:55 Y:29 P:e5 SP:fb
de09  20 ea f9   JSR $f9ea   A:80 X:55 Y:29 P:e5 SP:fb
f9ea  90 1c      BCC $fa08   A:80 X:55 Y:29 P:e5 SP:f9
f9ec  f0 1a      BEQ $fa08   A:80 X:55 Y:29 P:e5 SP:f9
f9ee  10 18      BPL $fa08   A:80 X:55 Y:29 P:e5 SP:f9
f9f0  50 16      BVC $fa08   A:80 X:55 Y:29 P:e5 SP:f9
f9f2  c9 80      CMP #$80    A:80 X:55 Y:29 P:e5 SP:f9
f9f4  d0 12      BNE $fa08   A:80 X:55 Y:29 P:67 SP:f9
f9f6  b8         CLV         A:80 X:55 Y:29 P:67 SP:f9
f9f7  18         CLC         A:80 X:55 Y:29 P:27 SP:f9
f9f8  a9 55      LDA #$55    A:80 X:55 Y:29 P:26 SP:f9
f9fa  60         RTS         A:55 X:55 Y:29 P:24 SP:f9
de0c  c8         INY         A:55 X:55 Y:29 P:24 SP:fb
de0d  95 00      STA $00,X   A:55 X:55 Y:2a P:24 SP:fb
de0f  76 00      ROR $00,X   A:55 X:55 Y:2a P:24 SP:fb
de11  b5 00      LDA $00,X   A:55 X:55 Y:2a P:25 SP:fb
de13  20 fb f9   JSR $f9fb   A:2a X:55 Y:2a P:25 SP:fb
f9fb  90 0b      BCC $fa08   A:2a X:55 Y:2a P:25 SP:f9
f9fd  f0 09      BEQ $fa08   A:2a X:55 Y:2a P:25 SP:f9
f9ff  30 07      BMI $fa08   A:2a X:55 Y:2a P:25 SP:f9
fa01  70 05      BVS $fa08   A:2a X:55 Y:2a P:25 SP:f9
fa03  c9 2a      CMP #$2a    A:2a X:55 Y:2a P:25 SP:f9
fa05  d0 01      BNE $fa08   A:2a X:55 Y:2a P:27 SP:f9
fa07  60         RTS         A:2a X:55 Y:2a P:27 SP:f9
de16  c8         INY         A:2a X:55 Y:2a P:27 SP:fb
de17  20 0a fa   JSR $fa0a   A:2a X:55 Y:2b P:25 SP:fb
fa0a  24 01      BIT $01     A:2a X:55 Y:2b P:25 SP:f9
fa0c  38         SEC         A:2a X:55 Y:2b P:e5 SP:f9
fa0d  a9 80      LDA #$80    A:2a X:55 Y:2b P:e5 SP:f9
fa0f  60         RTS         A:80 X:55 Y:2b P:e5 SP:f9
de1a  95 00      STA $00,X   A:80 X:55 Y:2b P:e5 SP:fb
de1c  36 00      ROL $00,X   A:80 X:55 Y:2b P:e5 SP:fb
de1e  b5 00      LDA $00,X   A:80 X:55 Y:2b P:65 SP:fb
de20  20 10 fa   JSR $fa10   A:01 X:55 Y:2b P:65 SP:fb
fa10  90 1c      BCC $fa2e   A:01 X:55 Y:2b P:65 SP:f9
fa12  f0 1a      BEQ $fa2e   A:01 X:55 Y:2b P:65 SP:f9
fa14  30 18      BMI $fa2e   A:01 X:55 Y:2b P:65 SP:f9
fa16  50 16      BVC $fa2e   A:01 X:55 Y:2b P:65 SP:f9
fa18  c9 01      CMP #$01    A:01 X:55 Y:2b P:65 SP:f9
fa1a  d0 12      BNE $fa2e   A:01 X:55 Y:2b P:67 SP:f9
fa1c  b8         CLV         A:01 X:55 Y:2b P:67 SP:f9
fa1d  18         CLC         A:01 X:55 Y:2b P:27 SP:f9
fa1e  a9 55      LDA #$55    A:01 X:55 Y:2b P:26 SP:f9
fa20  60         RTS         A:55 X:55 Y:2b P:24 SP:f9
de23  c8         INY         A:55 X:55 Y:2b P:24 SP:fb
de24  95 00      STA $00,X   A:55 X:55 Y:2c P:24 SP:fb
de26  36 00      ROL $00,X   A:55 X:55 Y:2c P:24 SP:fb
de28  b5 00      LDA $00,X   A:55 X:55 Y:2c P:a4 SP:fb
de2a  20 21 fa   JSR $fa21   A:aa X:55 Y:2c P:a4 SP:fb
fa21  b0 0b      BCS $fa2e   A:aa X:55 Y:2c P:a4 SP:f9
fa23  f0 09      BEQ $fa2e   A:aa X:55 Y:2c P:a4 SP:f9
fa25  10 07      BPL $fa2e   A:aa X:55 Y:2c P:a4 SP:f9
fa27  70 05      BVS $fa2e   A:aa X:55 Y:2c P:a4 SP:f9
fa29  c9 aa      CMP #$aa    A:aa X:55 Y:2c P:a4 SP:f9
fa2b  d0 01      BNE $fa2e   A:aa X:55 Y:2c P:27 SP:f9
fa2d  60         RTS         A:aa X:55 Y:2c P:27 SP:f9
de2d  a9 ff      LDA #$ff    A:aa X:55 Y:2c P:27 SP:fb
de2f  95 00      STA $00,X   A:ff X:55 Y:2c P:a5 SP:fb
de31  85 01      STA $01     A:ff X:55 Y:2c P:a5 SP:fb
de33  24 01      BIT $01     A:ff X:55 Y:2c P:a5 SP:fb
de35  38         SEC         A:ff X:55 Y:2c P:e5 SP:fb
de36  f6 00      INC $00,X   A:ff X:55 Y:2c P:e5 SP:fb
de38  d0 0c      BNE $de46   A:ff X:55 Y:2c P:67 SP:fb
de3a  30 0a      BMI $de46   A:ff X:55 Y:2c P:67 SP:fb
de3c  50 08      BVC $de46   A:ff X:55 Y:2c P:67 SP:fb
de3e  90 06      BCC $de46   A:ff X:55 Y:2c P:67 SP:fb
de40  b5 00      LDA $00,X   A:ff X:55 Y:2c P:67 SP:fb
de42  c9 00      CMP #$00    A:00 X:55 Y:2c P:67 SP:fb
de44  f0 04      BEQ $de4a   A:00 X:55 Y:2c P:67 SP:fb
de4a  a9 7f      LDA #$7f    A:00 X:55 Y:2c P:67 SP:fb
de4c  95 00      STA $00,X   A:7f X:55 Y:2c P:65 SP:fb
de4e  b8         CLV         A:7f X:55 Y:2c P:65 SP:fb
de4f  18         CLC         A:7f X:55 Y:2c P:25 SP:fb
de50  f6 00      INC $00,X   A:7f X:55 Y:2c P:24 SP:fb
de52  f0 0c      BEQ $de60   A:7f X:55 Y:2c P:a4 SP:fb
de54  10 0a      BPL $de60   A:7f X:55 Y:2c P:a4 SP:fb
de56  70 08      BVS $de60   A:7f X:55 Y:2c P:a4 SP:fb
de58  b0 06      BCS $de60   A:7f X:55 Y:2c P:a4 SP:fb
de5a  b5 00      LDA $00,X   A:7f X:55 Y:2c P:a4 SP:fb
de5c  c9 80      CMP #$80    A:80 X:55 Y:2c P:a4 SP:fb
de5e  f0 04      BEQ $de64   A:80 X:55 Y:2c P:27 SP:fb
de64  a9 00      LDA #$00    A:80 X:55 Y:2c P:27 SP:fb
de66  95 00      STA $00,X   A:00 X:55 Y:2c P:27 SP:fb
de68  24 01      BIT $01     A:00 X:55 Y:2c P:27 SP:fb
de6a  38         SEC         A:00 X:55 Y:2c P:e7 SP:fb
de6b  d6 00      DEC $00,X   A:00 X:55 Y:2c P:e7 SP:fb
de6d  f0 0c      BEQ $de7b   A:00 X:55 Y:2c P:e5 SP:fb
de6f  10 0a      BPL $de7b   A:00 X:55 Y:2c P:e5 SP:fb
de71  50 08      BVC $de7b   A:00 X:55 Y:2c P:e5 SP:fb
de73  90 06      BCC $de7b   A:00 X:55 Y:2c P:e5 SP:fb
de75  b5 00      LDA $00,X   A:00 X:55 Y:2c P:e5 SP:fb
de77  c9 ff      CMP #$ff    A:ff X:55 Y:2c P:e5 SP:fb
de79  f0 04      BEQ $de7f   A:ff X:55 Y:2c P:67 SP:fb
de7f  a9 80      LDA #$80    A:ff X:55 Y:2c P:67 SP:fb
de81  95 00      STA $00,X   A:80 X:55 Y:2c P:e5 SP:fb
de83  b8         CLV         A:80 X:55 Y:2c P:e5 SP:fb
de84  18         CLC         A:80 X:55 Y:2c P:a5 SP:fb
de85  d6 00      DEC $00,X   A:80 X:55 Y:2c P:a4 SP:fb
de87  f0 0c      BEQ $de95   A:80 X:55 Y:2c P:24 SP:fb
de89  30 0a      BMI $de95   A:80 X:55 Y:2c P:24 SP:fb
de8b  70 08      BVS $de95   A:80 X:55 Y:2c P:24 SP:fb
de8d  b0 06      BCS $de95   A:80 X:55 Y:2c P:24 SP:fb
de8f  b5 00      LDA $00,X   A:80 X:55 Y:2c P:24 SP:fb
de91  c9 7f      CMP #$7f    A:7f X:55 Y:2c P:24 SP:fb
de93  f0 04      BEQ $de99   A:7f X:55 Y:2c P:27 SP:fb
de99  a9 01      LDA #$01    A:7f X:55 Y:2c P:27 SP:fb
de9b  95 00      STA $00,X   A:01 X:55 Y:2c P:25 SP:fb
de9d  d6 00      DEC $00,X   A:01 X:55 Y:2c P:25 SP:fb
de9f  f0 04      BEQ $dea5   A:01 X:55 Y:2c P:27 SP:fb
dea5  a9 33      LDA #$33    A:01 X:55 Y:2c P:27 SP:fb
dea7  85 78      STA $78     A:33 X:55 Y:2c P:25 SP:fb
dea9  a9 44      LDA #$44    A:33 X:55 Y:2c P:25 SP:fb
deab  a0 78      LDY #$78    A:44 X:55 Y:2c P:25 SP:fb
dead  a2 00      LDX #$00    A:44 X:55 Y:78 P:25 SP:fb
deaf  38         SEC         A:44 X:00 Y:78 P:27 SP:fb
deb0  24 01      BIT $01     A:44 X:00 Y:78 P:27 SP:fb
deb2  b6 00      LDX $00,Y   A:44 X:00 Y:78 P:e5 SP:fb
deb4  90 12      BCC $dec8   A:44 X:33 Y:78 P:65 SP:fb
deb6  50 10      BVC $dec8   A:44 X:33 Y:78 P:65 SP:fb
deb8  30 0e      BMI $dec8   A:44 X:33 Y:78 P:65 SP:fb
deba  f0 0c      BEQ $dec8   A:44 X:33 Y:78 P:65 SP:fb
debc  e0 33      CPX #$33    A:44 X:33 Y:78 P:65 SP:fb
debe  d0 08      BNE $dec8   A:44 X:33 Y:78 P:67 SP:fb
dec0  c0 78      CPY #$78    A:44 X:33 Y:78 P:67 SP:fb
dec2  d0 04      BNE $dec8   A:44 X:33 Y:78 P:67 SP:fb
dec4  c9 44      CMP #$44    A:44 X:33 Y:78 P:67 SP:fb
dec6  f0 04      BEQ $decc   A:44 X:33 Y:78 P:67 SP:fb
decc  a9 97      LDA #$97    A:44 X:33 Y:78 P:67 SP:fb
dece  85 7f      STA $7f     A:97 X:33 Y:78 P:e5 SP:fb
ded0  a9 47      LDA #$47    A:97 X:33 Y:78 P:e5 SP:fb
ded2  a0 ff      LDY #$ff    A:47 X:33 Y:78 P:65 SP:fb
ded4  a2 00      LDX #$00    A:47 X:33 Y:ff P:e5 SP:fb
ded6  18         CLC         A:47 X:00 Y:ff P:67 SP:fb
ded7  b8         CLV         A:47 X:00 Y:ff P:66 SP:fb
ded8  b6 80      LDX $80,Y   A:47 X:00 Y:ff P:26 SP:fb
deda  b0 12      BCS $deee   A:47 X:97 Y:ff P:a4 SP:fb
dedc  70 10      BVS $deee   A:47 X:97 Y:ff P:a4 SP:fb
dede  10 0e      BPL $deee   A:47 X:97 Y:ff P:a4 SP:fb
dee0  f0 0c      BEQ $deee   A:47 X:97 Y:ff P:a4 SP:fb
dee2  e0 97      CPX #$97    A:47 X:97 Y:ff P:a4 SP:fb
dee4  d0 08      BNE $deee   A:47 X:97 Y:ff P:27 SP:fb
dee6  c0 ff      CPY #$ff    A:47 X:97 Y:ff P:27 SP:fb
dee8  d0 04      BNE $deee   A:47 X:97 Y:ff P:27 SP:fb
deea  c9 47      CMP #$47    A:47 X:97 Y:ff P:27 SP:fb
deec  f0 04      BEQ $def2   A:47 X:97 Y:ff P:27 SP:fb
def2  a9 00      LDA #$00    A:47 X:97 Y:ff P:27 SP:fb
def4  85 7f      STA $7f     A:00 X:97 Y:ff P:27 SP:fb
def6  a9 47      LDA #$47    A:00 X:97 Y:ff P:27 SP:fb
def8  a0 ff      LDY #$ff    A:47 X:97 Y:ff P:25 SP:fb
defa  a2 69      LDX #$69    A:47 X:97 Y:ff P:a5 SP:fb
defc  18         CLC         A:47 X:69 Y:ff P:25 SP:fb
defd  b8         CLV         A:47 X:69 Y:ff P:24 SP:fb
defe  96 80      STX $80,Y   A:47 X:69 Y:ff P:24 SP:fb
df00  b0 18      BCS $df1a   A:47 X:69 Y:ff P:24 SP:fb
df02  70 16      BVS $df1a   A:47 X:69 Y:ff P:24 SP:fb
df04  30 14      BMI $df1a   A:47 X:69 Y:ff P:24 SP:fb
df06  f0 12      BEQ $df1a   A:47 X:69 Y:ff P:24 SP:fb
df08  e0 69      CPX #$69    A:47 X:69 Y:ff P:24 SP:fb
df0a  d0 0e      BNE $df1a   A:47 X:69 Y:ff P:27 SP:fb
df0c  c0 ff      CPY #$ff    A:47 X:69 Y:ff P:27 SP:fb
df0e  d0 0a      BNE $df1a   A:47 X:69 Y:ff P:27 SP:fb
df10  c9 47      CMP #$47    A:47 X:69 Y:ff P:27 SP:fb
df12  d0 06      BNE $df1a   A:47 X:69 Y:ff P:27 SP:fb
df14  a5 7f      LDA $7f     A:47 X:69 Y:ff P:27 SP:fb
df16  c9 69      CMP #$69    A:69 X:69 Y:ff P:25 SP:fb
df18  f0 04      BEQ $df1e   A:69 X:69 Y:ff P:27 SP:fb
df1e  a9 f5      LDA #$f5    A:69 X:69 Y:ff P:27 SP:fb
df20  85 4f      STA $4f     A:f5 X:69 Y:ff P:a5 SP:fb
df22  a9 47      LDA #$47    A:f5 X:69 Y:ff P:a5 SP:fb
df24  a0 4f      LDY #$4f    A:47 X:69 Y:ff P:25 SP:fb
df26  24 01      BIT $01     A:47 X:69 Y:4f P:25 SP:fb
df28  a2 00      LDX #$00    A:47 X:69 Y:4f P:e5 SP:fb
df2a  38         SEC         A:47 X:00 Y:4f P:67 SP:fb
df2b  96 00      STX $00,Y   A:47 X:00 Y:4f P:67 SP:fb
df2d  90 16      BCC $df45   A:47 X:00 Y:4f P:67 SP:fb
df2f  50 14      BVC $df45   A:47 X:00 Y:4f P:67 SP:fb
df31  30 12      BMI $df45   A:47 X:00 Y:4f P:67 SP:fb
df33  d0 10      BNE $df45   A:47 X:00 Y:4f P:67 SP:fb
df35  e0 00      CPX #$00    A:47 X:00 Y:4f P:67 SP:fb
df37  d0 0c      BNE $df45   A:47 X:00 Y:4f P:67 SP:fb
df39  c0 4f      CPY #$4f    A:47 X:00 Y:4f P:67 SP:fb
df3b  d0 08      BNE $df45   A:47 X:00 Y:4f P:67 SP:fb
df3d  c9 47      CMP #$47    A:47 X:00 Y:4f P:67 SP:fb
df3f  d0 04      BNE $df45   A:47 X:00 Y:4f P:67 SP:fb
df41  a5 4f      LDA $4f     A:47 X:00 Y:4f P:67 SP:fb
df43  f0 04      BEQ $df49   A:00 X:00 Y:4f P:67 SP:fb
df49  60         RTS         A:00 X:00 Y:4f P:67 SP:fb
c62c  20 aa e1   JSR $e1aa   A:00 X:00 Y:4f P:67 SP:fd
e1aa  a9 ff      LDA #$ff    A:00 X:00 Y:4f P:67 SP:fb
e1ac  85 01      STA $01     A:ff X:00 Y:4f P:e5 SP:fb
e1ae  a9 aa      LDA #$aa    A:ff X:00 Y:4f P:e5 SP:fb
e1b0  8d 33 06   STA $0633   A:aa X:00 Y:4f P:e5 SP:fb
e1b3  a9 bb      LDA #$bb    A:aa X:00 Y:4f P:e5 SP:fb
e1b5  8d 89 06   STA $0689   A:bb X:00 Y:4f P:e5 SP:fb
e1b8  a2 00      LDX #$00    A:bb X:00 Y:4f P:e5 SP:fb
e1ba  a9 66      LDA #$66    A:bb X:00 Y:4f P:67 SP:fb
e1bc  24 01      BIT $01     A:66 X:00 Y:4f P:65 SP:fb
e1be  38         SEC         A:66 X:00 Y:4f P:e5 SP:fb
e1bf  a0 00      LDY #$00    A:66 X:00 Y:4f P:e5 SP:fb
e1c1  bc 33 06   LDY $0633,X A:66 X:00 Y:00 P:67 SP:fb
e1c4  10 12      BPL $e1d8   A:66 X:00 Y:aa P:e5 SP:fb
e1c6  f0 10      BEQ $e1d8   A:66 X:00 Y:aa P:e5 SP:fb
e1c8  50 0e      BVC $e1d8   A:66 X:00 Y:aa P:e5 SP:fb
e1ca  90 0c      BCC $e1d8   A:66 X:00 Y:aa P:e5 SP:fb
e1cc  c9 66      CMP #$66    A:66 X:00 Y:aa P:e5 SP:fb
e1ce  d0 08      BNE $e1d8   A:66 X:00 Y:aa P:67 SP:fb
e1d0  e0 00      CPX #$00    A:66 X:00 Y:aa P:67 SP:fb
e1d2  d0 04      BNE $e1d8   A:66 X:00 Y:aa P:67 SP:fb
e1d4  c0 aa      CPY #$aa    A:66 X:00 Y:aa P:67 SP:fb
e1d6  f0 04      BEQ $e1dc   A:66 X:00 Y:aa P:67 SP:fb
e1dc  a2 8a      LDX #$8a    A:66 X:00 Y:aa P:67 SP:fb
e1de  a9 66      LDA #$66    A:66 X:8a Y:aa P:e5 SP:fb
e1e0  b8         CLV         A:66 X:8a Y:aa P:65 SP:fb
e1e1  18         CLC         A:66 X:8a Y:aa P:25 SP:fb
e1e2  a0 00      LDY #$00    A:66 X:8a Y:aa P:24 SP:fb
e1e4  bc ff 05   LDY $05ff,X A:66 X:8a Y:00 P:26 SP:fb
e1e7  10 12      BPL $e1fb   A:66 X:8a Y:bb P:a4 SP:fb
e1e9  f0 10      BEQ $e1fb   A:66 X:8a Y:bb P:a4 SP:fb
e1eb  70 0e      BVS $e1fb   A:66 X:8a Y:bb P:a4 SP:fb
e1ed  b0 0c      BCS $e1fb   A:66 X:8a Y:bb P:a4 SP:fb
e1ef  c0 bb      CPY #$bb    A:66 X:8a Y:bb P:a4 SP:fb
e1f1  d0 08      BNE $e1fb   A:66 X:8a Y:bb P:27 SP:fb
e1f3  c9 66      CMP #$66    A:66 X:8a Y:bb P:27 SP:fb
e1f5  d0 04      BNE $e1fb   A:66 X:8a Y:bb P:27 SP:fb
e1f7  e0 8a      CPX #$8a    A:66 X:8a Y:bb P:27 SP:fb
e1f9  f0 04      BEQ $e1ff   A:66 X:8a Y:bb P:27 SP:fb
e1ff  a0 53      LDY #$53    A:66 X:8a Y:bb P:27 SP:fb
e201  a9 aa      LDA #$aa    A:66 X:8a Y:53 P:25 SP:fb
e203  a2 78      LDX #$78    A:aa X:8a Y:53 P:a5 SP:fb
e205  8d 78 06   STA $0678   A:aa X:78 Y:53 P:25 SP:fb
e208  20 b6 f7   JSR $f7b6   A:aa X:78 Y:53 P:25 SP:fb
f7b6  18         CLC         A:aa X:78 Y:53 P:25 SP:f9
f7b7  a9 ff      LDA #$ff    A:aa X:78 Y:53 P:24 SP:f9
f7b9  85 01      STA $01     A:ff X:78 Y:53 P:a4 SP:f9
f7bb  24 01      BIT $01     A:ff X:78 Y:53 P:a4 SP:f9
f7bd  a9 55      LDA #$55    A:ff X:78 Y:53 P:e4 SP:f9
f7bf  60         RTS         A:55 X:78 Y:53 P:64 SP:f9
e20b  1d 00 06   ORA $0600,X A:55 X:78 Y:53 P:64 SP:fb
e20e  20 c0 f7   JSR $f7c0   A:ff X:78 Y:53 P:e4 SP:fb
f7c0  b0 09      BCS $f7cb   A:ff X:78 Y:53 P:e4 SP:f9
f7c2  10 07      BPL $f7cb   A:ff X:78 Y:53 P:e4 SP:f9
f7c4  c9 ff      CMP #$ff    A:ff X:78 Y:53 P:e4 SP:f9
f7c6  d0 03      BNE $f7cb   A:ff X:78 Y:53 P:67 SP:f9
f7c8  50 01      BVC $f7cb   A:ff X:78 Y:53 P:67 SP:f9
f7ca  60         RTS         A:ff X:78 Y:53 P:67 SP:f9
e211  c8         INY         A:ff X:78 Y:53 P:67 SP:fb
e212  a9 00      LDA #$00    A:ff X:78 Y:54 P:65 SP:fb
e214  8d 78 06   STA $0678   A:00 X:78 Y:54 P:67 SP:fb
e217  20 ce f7   JSR $f7ce   A:00 X:78 Y:54 P:67 SP:fb
f7ce  38         SEC         A:00 X:78 Y:54 P:67 SP:f9
f7cf  b8         CLV         A:00 X:78 Y:54 P:67 SP:f9
f7d0  a9 00      LDA #$00    A:00 X:78 Y:54 P:27 SP:f9
f7d2  60         RTS         A:00 X:78 Y:54 P:27 SP:f9
e21a  1d 00 06   ORA $0600,X A:00 X:78 Y:54 P:27 SP:fb
e21d  20 d3 f7   JSR $f7d3   A:00 X:78 Y:54 P:27 SP:fb
f7d3  d0 07      BNE $f7dc   A:00 X:78 Y:54 P:27 SP:f9
f7d5  70 05      BVS $f7dc   A:00 X:78 Y:54 P:27 SP:f9
f7d7  90 03      BCC $f7dc   A:00 X:78 Y:54 P:27 SP:f9
f7d9  30 01      BMI $f7dc   A:00 X:78 Y:54 P:27 SP:f9
f7db  60         RTS         A:00 X:78 Y:54 P:27 SP:f9
e220  c8         INY         A:00 X:78 Y:54 P:27 SP:fb
e221  a9 aa      LDA #$aa    A:00 X:78 Y:55 P:25 SP:fb
e223  8d 78 06   STA $0678   A:aa X:78 Y:55 P:a5 SP:fb
e226  20 df f7   JSR $f7df   A:aa X:78 Y:55 P:a5 SP:fb
f7df  18         CLC         A:aa X:78 Y:55 P:a5 SP:f9
f7e0  24 01      BIT $01     A:aa X:78 Y:55 P:a4 SP:f9
f7e2  a9 55      LDA #$55    A:aa X:78 Y:55 P:e4 SP:f9
f7e4  60         RTS         A:55 X:78 Y:55 P:64 SP:f9
e229  3d 00 06   AND $0600,X A:55 X:78 Y:55 P:64 SP:fb
e22c  20 e5 f7   JSR $f7e5   A:00 X:78 Y:55 P:66 SP:fb
f7e5  d0 07      BNE $f7ee   A:00 X:78 Y:55 P:66 SP:f9
f7e7  50 05      BVC $f7ee   A:00 X:78 Y:55 P:66 SP:f9
f7e9  b0 03      BCS $f7ee   A:00 X:78 Y:55 P:66 SP:f9
f7eb  30 01      BMI $f7ee   A:00 X:78 Y:55 P:66 SP:f9
f7ed  60         RTS         A:00 X:78 Y:55 P:66 SP:f9
e22f  c8         INY         A:00 X:78 Y:55 P:66 SP:fb
e230  a9 ef      LDA #$ef    A:00 X:78 Y:56 P:64 SP:fb
e232  8d 78 06   STA $0678   A:ef X:78 Y:56 P:e4 SP:fb
e235  20 f1 f7   JSR $f7f1   A:ef X:78 Y:56 P:e4 SP:fb
f7f1  38         SEC         A:ef X:78 Y:56 P:e4 SP:f9
f7f2  b8         CLV         A:ef X:78 Y:56 P:e5 SP:f9
f7f3  a9 f8      LDA #$f8    A:ef X:78 Y:56 P:a5 SP:f9
f7f5  60         RTS         A:f8 X:78 Y:56 P:a5 SP:f9
e238  3d 00 06   AND $0600,X A:f8 X:78 Y:56 P:a5 SP:fb
e23b  20 f6 f7   JSR $f7f6   A:e8 X:78 Y:56 P:a5 SP:fb
f7f6  90 09      BCC $f801   A:e8 X:78 Y:56 P:a5 SP:f9
f7f8  10 07      BPL $f801   A:e8 X:78 Y:56 P:a5 SP:f9
f7fa  c9 e8      CMP #$e8    A:e8 X:78 Y:56 P:a5 SP:f9
f7fc  d0 03      BNE $f801   A:e8 X:78 Y:56 P:27 SP:f9
f7fe  70 01      BVS $f801   A:e8 X:78 Y:56 P:27 SP:f9
f800  60         RTS         A:e8 X:78 Y:56 P:27 SP:f9
e23e  c8         INY         A:e8 X:78 Y:56 P:27 SP:fb
e23f  a9 aa      LDA #$aa    A:e8 X:78 Y:57 P:25 SP:fb
e241  8d 78 06   STA $0678   A:aa X:78 Y:57 P:a5 SP:fb
e244  20 04 f8   JSR $f804   A:aa X:78 Y:57 P:a5 SP:fb
f804  18         CLC         A:aa X:78 Y:57 P:a5 SP:f9
f805  24 01      BIT $01     A:aa X:78 Y:57 P:a4 SP:f9
f807  a9 5f      LDA #$5f    A:aa X:78 Y:57 P:e4 SP:f9
f809  60         RTS         A:5f X:78 Y:57 P:64 SP:f9
e247  5d 00 06   EOR $0600,X A:5f X:78 Y:57 P:64 SP:fb
e24a  20 0a f8   JSR $f80a   A:f5 X:78 Y:57 P:e4 SP:fb
f80a  b0 09      BCS $f815   A:f5 X:78 Y:57 P:e4 SP:f9
f80c  10 07      BPL $f815   A:f5 X:78 Y:57 P:e4 SP:f9
f80e  c9 f5      CMP #$f5    A:f5 X:78 Y:57 P:e4 SP:f9
f810  d0 03      BNE $f815   A:f5 X:78 Y:57 P:67 SP:f9
f812  50 01      BVC $f815   A:f5 X:78 Y:57 P:67 SP:f9
f814  60         RTS         A:f5 X:78 Y:57 P:67 SP:f9
e24d  c8         INY         A:f5 X:78 Y:57 P:67 SP:fb
e24e  a9 70      LDA #$70    A:f5 X:78 Y:58 P:65 SP:fb
e250  8d 78 06   STA $0678   A:70 X:78 Y:58 P:65 SP:fb
e253  20 18 f8   JSR $f818   A:70 X:78 Y:58 P:65 SP:fb
f818  38         SEC         A:70 X:78 Y:58 P:65 SP:f9
f819  b8         CLV         A:70 X:78 Y:58 P:65 SP:f9
f81a  a9 70      LDA #$70    A:70 X:78 Y:58 P:25 SP:f9
f81c  60         RTS         A:70 X:78 Y:58 P:25 SP:f9
e256  5d 00 06   EOR $0600,X A:70 X:78 Y:58 P:25 SP:fb
e259  20 1d f8   JSR $f81d   A:00 X:78 Y:58 P:27 SP:fb
f81d  d0 07      BNE $f826   A:00 X:78 Y:58 P:27 SP:f9
f81f  70 05      BVS $f826   A:00 X:78 Y:58 P:27 SP:f9
f821  90 03      BCC $f826   A:00 X:78 Y:58 P:27 SP:f9
f823  30 01      BMI $f826   A:00 X:78 Y:58 P:27 SP:f9
f825  60         RTS         A:00 X:78 Y:58 P:27 SP:f9
e25c  c8         INY         A:00 X:78 Y:58 P:27 SP:fb
e25d  a9 69      LDA #$69    A:00 X:78 Y:59 P:25 SP:fb
e25f  8d 78 06   STA $0678   A:69 X:78 Y:59 P:25 SP:fb
e262  20 29 f8   JSR $f829   A:69 X:78 Y:59 P:25 SP:fb
f829  18         CLC         A:69 X:78 Y:59 P:25 SP:f9
f82a  24 01      BIT $01     A:69 X:78 Y:59 P:24 SP:f9
f82c  a9 00      LDA #$00    A:69 X:78 Y:59 P:e4 SP:f9
f82e  60         RTS         A:00 X:78 Y:59 P:66 SP:f9
e265  7d 00 06   ADC $0600,X A:00 X:78 Y:59 P:66 SP:fb
e268  20 2f f8   JSR $f82f   A:69 X:78 Y:59 P:24 SP:fb
f82f  30 09      BMI $f83a   A:69 X:78 Y:59 P:24 SP:f9
f831  b0 07      BCS $f83a   A:69 X:78 Y:59 P:24 SP:f9
f833  c9 69      CMP #$69    A:69 X:78 Y:59 P:24 SP:f9
f835  d0 03      BNE $f83a   A:69 X:78 Y:59 P:27 SP:f9
f837  70 01      BVS $f83a   A:69 X:78 Y:59 P:27 SP:f9
f839  60         RTS         A:69 X:78 Y:59 P:27 SP:f9
e26b  c8         INY         A:69 X:78 Y:59 P:27 SP:fb
e26c  20 3d f8   JSR $f83d   A:69 X:78 Y:5a P:25 SP:fb
f83d  38         SEC         A:69 X:78 Y:5a P:25 SP:f9
f83e  24 01      BIT $01     A:69 X:78 Y:5a P:25 SP:f9
f840  a9 00      LDA #$00    A:69 X:78 Y:5a P:e5 SP:f9
f842  60         RTS         A:00 X:78 Y:5a P:67 SP:f9
e26f  7d 00 06   ADC $0600,X A:00 X:78 Y:5a P:67 SP:fb
e272  20 43 f8   JSR $f843   A:6a X:78 Y:5a P:24 SP:fb
f843  30 09      BMI $f84e   A:6a X:78 Y:5a P:24 SP:f9
f845  b0 07      BCS $f84e   A:6a X:78 Y:5a P:24 SP:f9
f847  c9 6a      CMP #$6a    A:6a X:78 Y:5a P:24 SP:f9
f849  d0 03      BNE $f84e   A:6a X:78 Y:5a P:27 SP:f9
f84b  70 01      BVS $f84e   A:6a X:78 Y:5a P:27 SP:f9
f84d  60         RTS         A:6a X:78 Y:5a P:27 SP:f9
e275  c8         INY         A:6a X:78 Y:5a P:27 SP:fb
e276  a9 7f      LDA #$7f    A:6a X:78 Y:5b P:25 SP:fb
e278  8d 78 06   STA $0678   A:7f X:78 Y:5b P:25 SP:fb
e27b  20 51 f8   JSR $f851   A:7f X:78 Y:5b P:25 SP:fb
f851  38         SEC         A:7f X:78 Y:5b P:25 SP:f9
f852  b8         CLV         A:7f X:78 Y:5b P:25 SP:f9
f853  a9 7f      LDA #$7f    A:7f X:78 Y:5b P:25 SP:f9
f855  60         RTS         A:7f X:78 Y:5b P:25 SP:f9
e27e  7d 00 06   ADC $0600,X A:7f X:78 Y:5b P:25 SP:fb
e281  20 56 f8   JSR $f856   A:ff X:78 Y:5b P:e4 SP:fb
f856  10 09      BPL $f861   A:ff X:78 Y:5b P:e4 SP:f9
f858  b0 07      BCS $f861   A:ff X:78 Y:5b P:e4 SP:f9
f85a  c9 ff      CMP #$ff    A:ff X:78 Y:5b P:e4 SP:f9
f85c  d0 03      BNE $f861   A:ff X:78 Y:5b P:67 SP:f9
f85e  50 01      BVC $f861   A:ff X:78 Y:5b P:67 SP:f9
f860  60         RTS         A:ff X:78 Y:5b P:67 SP:f9
e284  c8         INY         A:ff X:78 Y:5b P:67 SP:fb
e285  a9 80      LDA #$80    A:ff X:78 Y:5c P:65 SP:fb
e287  8d 78 06   STA $0678   A:80 X:78 Y:5c P:e5 SP:fb
e28a  20 64 f8   JSR $f864   A:80 X:78 Y:5c P:e5 SP:fb
f864  18         CLC         A:80 X:78 Y:5c P:e5 SP:f9
f865  24 01      BIT $01     A:80 X:78 Y:5c P:e4 SP:f9
f867  a9 7f      LDA #$7f    A:80 X:78 Y:5c P:e4 SP:f9
f869  60         RTS         A:7f X:78 Y:5c P:64 SP:f9
e28d  7d 00 06   ADC $0600,X A:7f X:78 Y:5c P:64 SP:fb
e290  20 6a f8   JSR $f86a   A:ff X:78 Y:5c P:a4 SP:fb
f86a  10 09      BPL $f875   A:ff X:78 Y:5c P:a4 SP:f9
f86c  b0 07      BCS $f875   A:ff X:78 Y:5c P:a4 SP:f9
f86e  c9 ff      CMP #$ff    A:ff X:78 Y:5c P:a4 SP:f9
f870  d0 03      BNE $f875   A:ff X:78 Y:5c P:27 SP:f9
f872  70 01      BVS $f875   A:ff X:78 Y:5c P:27 SP:f9
f874  60         RTS         A:ff X:78 Y:5c P:27 SP:f9
e293  c8         INY         A:ff X:78 Y:5c P:27 SP:fb
e294  20 78 f8   JSR $f878   A:ff X:78 Y:5d P:25 SP:fb
f878  38         SEC         A:ff X:78 Y:5d P:25 SP:f9
f879  b8         CLV         A:ff X:78 Y:5d P:25 SP:f9
f87a  a9 7f      LDA #$7f    A:ff X:78 Y:5d P:25 SP:f9
f87c  60         RTS         A:7f X:78 Y:5d P:25 SP:f9
e297  7d 00 06   ADC $0600,X A:7f X:78 Y:5d P:25 SP:fb
e29a  20 7d f8   JSR $f87d   A:00 X:78 Y:5d P:27 SP:fb
f87d  d0 07      BNE $f886   A:00 X:78 Y:5d P:27 SP:f9
f87f  30 05      BMI $f886   A:00 X:78 Y:5d P:27 SP:f9
f881  70 03      BVS $f886   A:00 X:78 Y:5d P:27 SP:f9
f883  90 01      BCC $f886   A:00 X:78 Y:5d P:27 SP:f9
f885  60         RTS         A:00 X:78 Y:5d P:27 SP:f9
e29d  c8         INY         A:00 X:78 Y:5d P:27 SP:fb
e29e  a9 40      LDA #$40    A:00 X:78 Y:5e P:25 SP:fb
e2a0  8d 78 06   STA $0678   A:40 X:78 Y:5e P:25 SP:fb
e2a3  20 89 f8   JSR $f889   A:40 X:78 Y:5e P:25 SP:fb
f889  24 01      BIT $01     A:40 X:78 Y:5e P:25 SP:f9
f88b  a9 40      LDA #$40    A:40 X:78 Y:5e P:e5 SP:f9
f88d  60         RTS         A:40 X:78 Y:5e P:65 SP:f9
e2a6  dd 00 06   CMP $0600,X A:40 X:78 Y:5e P:65 SP:fb
e2a9  20 8e f8   JSR $f88e   A:40 X:78 Y:5e P:67 SP:fb
f88e  30 07      BMI $f897   A:40 X:78 Y:5e P:67 SP:f9
f890  90 05      BCC $f897   A:40 X:78 Y:5e P:67 SP:f9
f892  d0 03      BNE $f897   A:40 X:78 Y:5e P:67 SP:f9
f894  50 01      BVC $f897   A:40 X:78 Y:5e P:67 SP:f9
f896  60         RTS         A:40 X:78 Y:5e P:67 SP:f9
e2ac  c8         INY         A:40 X:78 Y:5e P:67 SP:fb
e2ad  48         PHA         A:40 X:78 Y:5f P:65 SP:fb
e2ae  a9 3f      LDA #$3f    A:40 X:78 Y:5f P:65 SP:fa
e2b0  8d 78 06   STA $0678   A:3f X:78 Y:5f P:65 SP:fa
e2b3  68         PLA         A:3f X:78 Y:5f P:65 SP:fa
e2b4  20 9a f8   JSR $f89a   A:40 X:78 Y:5f P:65 SP:fb
f89a  b8         CLV         A:40 X:78 Y:5f P:65 SP:f9
f89b  60         RTS         A:40 X:78 Y:5f P:25 SP:f9
e2b7  dd 00 06   CMP $0600,X A:40 X:78 Y:5f P:25 SP:fb
e2ba  20 9c f8   JSR $f89c   A:40 X:78 Y:5f P:25 SP:fb
f89c  f0 07      BEQ $f8a5   A:40 X:78 Y:5f P:25 SP:f9
f89e  30 05      BMI $f8a5   A:40 X:78 Y:5f P:25 SP:f9
f8a0  90 03      BCC $f8a5   A:40 X:78 Y:5f P:25 SP:f9
f8a2  70 01      BVS $f8a5   A:40 X:78 Y:5f P:25 SP:f9
f8a4  60         RTS         A:40 X:78 Y:5f P:25 SP:f9
e2bd  c8         INY         A:40 X:78 Y:5f P:25 SP:fb
e2be  48         PHA         A:40 X:78 Y:60 P:25 SP:fb
e2bf  a9 41      LDA #$41    A:40 X:78 Y:60 P:25 SP:fa
e2c1  8d 78 06   STA $0678   A:41 X:78 Y:60 P:25 SP:fa
e2c4  68         PLA         A:41 X:78 Y:60 P:25 SP:fa
e2c5  dd 00 06   CMP $0600,X A:40 X:78 Y:60 P:25 SP:fb
e2c8  20 a8 f8   JSR $f8a8   A:40 X:78 Y:60 P:a4 SP:fb
f8a8  f0 05      BEQ $f8af   A:40 X:78 Y:60 P:a4 SP:f9
f8aa  10 03      BPL $f8af   A:40 X:78 Y:60 P:a4 SP:f9
f8ac  10 01      BPL $f8af   A:40 X:78 Y:60 P:a4 SP:f9
f8ae  60         RTS         A:40 X:78 Y:60 P:a4 SP:f9
e2cb  c8         INY         A:40 X:78 Y:60 P:a4 SP:fb
e2cc  48         PHA         A:40 X:78 Y:61 P:24 SP:fb
e2cd  a9 00      LDA #$00    A:40 X:78 Y:61 P:24 SP:fa
e2cf  8d 78 06   STA $0678   A:00 X:78 Y:61 P:26 SP:fa
e2d2  68         PLA         A:00 X:78 Y:61 P:26 SP:fa
e2d3  20 b2 f8   JSR $f8b2   A:40 X:78 Y:61 P:24 SP:fb
f8b2  a9 80      LDA #$80    A:40 X:78 Y:61 P:24 SP:f9
f8b4  60         RTS         A:80 X:78 Y:61 P:a4 SP:f9
e2d6  dd 00 06   CMP $0600,X A:80 X:78 Y:61 P:a4 SP:fb
e2d9  20 b5 f8   JSR $f8b5   A:80 X:78 Y:61 P:a5 SP:fb
f8b5  f0 05      BEQ $f8bc   A:80 X:78 Y:61 P:a5 SP:f9
f8b7  10 03      BPL $f8bc   A:80 X:78 Y:61 P:a5 SP:f9
f8b9  90 01      BCC $f8bc   A:80 X:78 Y:61 P:a5 SP:f9
f8bb  60         RTS         A:80 X:78 Y:61 P:a5 SP:f9
e2dc  c8         INY         A:80 X:78 Y:61 P:a5 SP:fb
e2dd  48         PHA         A:80 X:78 Y:62 P:25 SP:fb
e2de  a9 80      LDA #$80    A:80 X:78 Y:62 P:25 SP:fa
e2e0  8d 78 06   STA $0678   A:80 X:78 Y:62 P:a5 SP:fa
e2e3  68         PLA         A:80 X:78 Y:62 P:a5 SP:fa
e2e4  dd 00 06   CMP $0600,X A:80 X:78 Y:62 P:a5 SP:fb
e2e7  20 bf f8   JSR $f8bf   A:80 X:78 Y:62 P:27 SP:fb
f8bf  d0 05      BNE $f8c6   A:80 X:78 Y:62 P:27 SP:f9
f8c1  30 03      BMI $f8c6   A:80 X:78 Y:62 P:27 SP:f9
f8c3  90 01      BCC $f8c6   A:80 X:78 Y:62 P:27 SP:f9
f8c5  60         RTS         A:80 X:78 Y:62 P:27 SP:f9
e2ea  c8         INY         A:80 X:78 Y:62 P:27 SP:fb
e2eb  48         PHA         A:80 X:78 Y:63 P:25 SP:fb
e2ec  a9 81      LDA #$81    A:80 X:78 Y:63 P:25 SP:fa
e2ee  8d 78 06   STA $0678   A:81 X:78 Y:63 P:a5 SP:fa
e2f1  68         PLA         A:81 X:78 Y:63 P:a5 SP:fa
e2f2  dd 00 06   CMP $0600,X A:80 X:78 Y:63 P:a5 SP:fb
e2f5  20 c9 f8   JSR $f8c9   A:80 X:78 Y:63 P:a4 SP:fb
f8c9  b0 05      BCS $f8d0   A:80 X:78 Y:63 P:a4 SP:f9
f8cb  f0 03      BEQ $f8d0   A:80 X:78 Y:63 P:a4 SP:f9
f8cd  10 01      BPL $f8d0   A:80 X:78 Y:63 P:a4 SP:f9
f8cf  60         RTS         A:80 X:78 Y:63 P:a4 SP:f9
e2f8  c8         INY         A:80 X:78 Y:63 P:a4 SP:fb
e2f9  48         PHA         A:80 X:78 Y:64 P:24 SP:fb
e2fa  a9 7f      LDA #$7f    A:80 X:78 Y:64 P:24 SP:fa
e2fc  8d 78 06   STA $0678   A:7f X:78 Y:64 P:24 SP:fa
e2ff  68         PLA         A:7f X:78 Y:64 P:24 SP:fa
e300  dd 00 06   CMP $0600,X A:80 X:78 Y:64 P:a4 SP:fb
e303  20 d3 f8   JSR $f8d3   A:80 X:78 Y:64 P:25 SP:fb
f8d3  90 05      BCC $f8da   A:80 X:78 Y:64 P:25 SP:f9
f8d5  f0 03      BEQ $f8da   A:80 X:78 Y:64 P:25 SP:f9
f8d7  30 01      BMI $f8da   A:80 X:78 Y:64 P:25 SP:f9
f8d9  60         RTS         A:80 X:78 Y:64 P:25 SP:f9
e306  c8         INY         A:80 X:78 Y:64 P:25 SP:fb
e307  a9 40      LDA #$40    A:80 X:78 Y:65 P:25 SP:fb
e309  8d 78 06   STA $0678   A:40 X:78 Y:65 P:25 SP:fb
e30c  20 31 f9   JSR $f931   A:40 X:78 Y:65 P:25 SP:fb
f931  24 01      BIT $01     A:40 X:78 Y:65 P:25 SP:f9
f933  a9 40      LDA #$40    A:40 X:78 Y:65 P:e5 SP:f9
f935  38         SEC         A:40 X:78 Y:65 P:65 SP:f9
f936  60         RTS         A:40 X:78 Y:65 P:65 SP:f9
e30f  fd 00 06   SBC $0600,X A:40 X:78 Y:65 P:65 SP:fb
e312  20 37 f9   JSR $f937   A:00 X:78 Y:65 P:27 SP:fb
f937  30 0b      BMI $f944   A:00 X:78 Y:65 P:27 SP:f9
f939  90 09      BCC $f944   A:00 X:78 Y:65 P:27 SP:f9
f93b  d0 07      BNE $f944   A:00 X:78 Y:65 P:27 SP:f9
f93d  70 05      BVS $f944   A:00 X:78 Y:65 P:27 SP:f9
f93f  c9 00      CMP #$00    A:00 X:78 Y:65 P:27 SP:f9
f941  d0 01      BNE $f944   A:00 X:78 Y:65 P:27 SP:f9
f943  60         RTS         A:00 X:78 Y:65 P:27 SP:f9
e315  c8         INY         A:00 X:78 Y:65 P:27 SP:fb
e316  a9 3f      LDA #$3f    A:00 X:78 Y:66 P:25 SP:fb
e318  8d 78 06   STA $0678   A:3f X:78 Y:66 P:25 SP:fb
e31b  20 47 f9   JSR $f947   A:3f X:78 Y:66 P:25 SP:fb
f947  b8         CLV         A:3f X:78 Y:66 P:25 SP:f9
f948  38         SEC         A:3f X:78 Y:66 P:25 SP:f9
f949  a9 40      LDA #$40    A:3f X:78 Y:66 P:25 SP:f9
f94b  60         RTS         A:40 X:78 Y:66 P:25 SP:f9
e31e  fd 00 06   SBC $0600,X A:40 X:78 Y:66 P:25 SP:fb
e321  20 4c f9   JSR $f94c   A:01 X:78 Y:66 P:25 SP:fb
f94c  f0 0b      BEQ $f959   A:01 X:78 Y:66 P:25 SP:f9
f94e  30 09      BMI $f959   A:01 X:78 Y:66 P:25 SP:f9
f950  90 07      BCC $f959   A:01 X:78 Y:66 P:25 SP:f9
f952  70 05      BVS $f959   A:01 X:78 Y:66 P:25 SP:f9
f954  c9 01      CMP #$01    A:01 X:78 Y:66 P:25 SP:f9
f956  d0 01      BNE $f959   A:01 X:78 Y:66 P:27 SP:f9
f958  60         RTS         A:01 X:78 Y:66 P:27 SP:f9
e324  c8         INY         A:01 X:78 Y:66 P:27 SP:fb
e325  a9 41      LDA #$41    A:01 X:78 Y:67 P:25 SP:fb
e327  8d 78 06   STA $0678   A:41 X:78 Y:67 P:25 SP:fb
e32a  20 5c f9   JSR $f95c   A:41 X:78 Y:67 P:25 SP:fb
f95c  a9 40      LDA #$40    A:41 X:78 Y:67 P:25 SP:f9
f95e  38         SEC         A:40 X:78 Y:67 P:25 SP:f9
f95f  24 01      BIT $01     A:40 X:78 Y:67 P:25 SP:f9
f961  60         RTS         A:40 X:78 Y:67 P:e5 SP:f9
e32d  fd 00 06   SBC $0600,X A:40 X:78 Y:67 P:e5 SP:fb
e330  20 62 f9   JSR $f962   A:ff X:78 Y:67 P:a4 SP:fb
f962  b0 0b      BCS $f96f   A:ff X:78 Y:67 P:a4 SP:f9
f964  f0 09      BEQ $f96f   A:ff X:78 Y:67 P:a4 SP:f9
f966  10 07      BPL $f96f   A:ff X:78 Y:67 P:a4 SP:f9
f968  70 05      BVS $f96f   A:ff X:78 Y:67 P:a4 SP:f9
f96a  c9 ff      CMP #$ff    A:ff X:78 Y:67 P:a4 SP:f9
f96c  d0 01      BNE $f96f   A:ff X:78 Y:67 P:27 SP:f9
f96e  60         RTS         A:ff X:78 Y:67 P:27 SP:f9
e333  c8         INY         A:ff X:78 Y:67 P:27 SP:fb
e334  a9 00      LDA #$00    A:ff X:78 Y:68 P:25 SP:fb
e336  8d 78 06   STA $0678   A:00 X:78 Y:68 P:27 SP:fb
e339  20 72 f9   JSR $f972   A:00 X:78 Y:68 P:27 SP:fb
f972  18         CLC         A:00 X:78 Y:68 P:27 SP:f9
f973  a9 80      LDA #$80    A:00 X:78 Y:68 P:26 SP:f9
f975  60         RTS         A:80 X:78 Y:68 P:a4 SP:f9
e33c  fd 00 06   SBC $0600,X A:80 X:78 Y:68 P:a4 SP:fb
e33f  20 76 f9   JSR $f976   A:7f X:78 Y:68 P:65 SP:fb
f976  90 05      BCC $f97d   A:7f X:78 Y:68 P:65 SP:f9
f978  c9 7f      CMP #$7f    A:7f X:78 Y:68 P:65 SP:f9
f97a  d0 01      BNE $f97d   A:7f X:78 Y:68 P:67 SP:f9
f97c  60         RTS         A:7f X:78 Y:68 P:67 SP:f9
e342  c8         INY         A:7f X:78 Y:68 P:67 SP:fb
e343  a9 7f      LDA #$7f    A:7f X:78 Y:69 P:65 SP:fb
e345  8d 78 06   STA $0678   A:7f X:78 Y:69 P:65 SP:fb
e348  20 80 f9   JSR $f980   A:7f X:78 Y:69 P:65 SP:fb
f980  38         SEC         A:7f X:78 Y:69 P:65 SP:f9
f981  a9 81      LDA #$81    A:7f X:78 Y:69 P:65 SP:f9
f983  60         RTS         A:81 X:78 Y:69 P:e5 SP:f9
e34b  fd 00 06   SBC $0600,X A:81 X:78 Y:69 P:e5 SP:fb
e34e  20 84 f9   JSR $f984   A:02 X:78 Y:69 P:65 SP:fb
f984  50 07      BVC $f98d   A:02 X:78 Y:69 P:65 SP:f9
f986  90 05      BCC $f98d   A:02 X:78 Y:69 P:65 SP:f9
f988  c9 02      CMP #$02    A:02 X:78 Y:69 P:65 SP:f9
f98a  d0 01      BNE $f98d   A:02 X:78 Y:69 P:67 SP:f9
f98c  60         RTS         A:02 X:78 Y:69 P:67 SP:f9
e351  a9 aa      LDA #$aa    A:02 X:78 Y:69 P:67 SP:fb
e353  8d 33 06   STA $0633   A:aa X:78 Y:69 P:e5 SP:fb
e356  a9 bb      LDA #$bb    A:aa X:78 Y:69 P:e5 SP:fb
e358  8d 89 06   STA $0689   A:bb X:78 Y:69 P:e5 SP:fb
e35b  a2 00      LDX #$00    A:bb X:78 Y:69 P:e5 SP:fb
e35d  a0 66      LDY #$66    A:bb X:00 Y:69 P:67 SP:fb
e35f  24 01      BIT $01     A:bb X:00 Y:66 P:65 SP:fb
e361  38         SEC         A:bb X:00 Y:66 P:e5 SP:fb
e362  a9 00      LDA #$00    A:bb X:00 Y:66 P:e5 SP:fb
e364  bd 33 06   LDA $0633,X A:00 X:00 Y:66 P:67 SP:fb
e367  10 12      BPL $e37b   A:aa X:00 Y:66 P:e5 SP:fb
e369  f0 10      BEQ $e37b   A:aa X:00 Y:66 P:e5 SP:fb
e36b  50 0e      BVC $e37b   A:aa X:00 Y:66 P:e5 SP:fb
e36d  90 0c      BCC $e37b   A:aa X:00 Y:66 P:e5 SP:fb
e36f  c0 66      CPY #$66    A:aa X:00 Y:66 P:e5 SP:fb
e371  d0 08      BNE $e37b   A:aa X:00 Y:66 P:67 SP:fb
e373  e0 00      CPX #$00    A:aa X:00 Y:66 P:67 SP:fb
e375  d0 04      BNE $e37b   A:aa X:00 Y:66 P:67 SP:fb
e377  c9 aa      CMP #$aa    A:aa X:00 Y:66 P:67 SP:fb
e379  f0 04      BEQ $e37f   A:aa X:00 Y:66 P:67 SP:fb
e37f  a2 8a      LDX #$8a    A:aa X:00 Y:66 P:67 SP:fb
e381  a0 66      LDY #$66    A:aa X:8a Y:66 P:e5 SP:fb
e383  b8         CLV         A:aa X:8a Y:66 P:65 SP:fb
e384  18         CLC         A:aa X:8a Y:66 P:25 SP:fb
e385  a9 00      LDA #$00    A:aa X:8a Y:66 P:24 SP:fb
e387  bd ff 05   LDA $05ff,X A:00 X:8a Y:66 P:26 SP:fb
e38a  10 12      BPL $e39e   A:bb X:8a Y:66 P:a4 SP:fb
e38c  f0 10      BEQ $e39e   A:bb X:8a Y:66 P:a4 SP:fb
e38e  70 0e      BVS $e39e   A:bb X:8a Y:66 P:a4 SP:fb
e390  b0 0c      BCS $e39e   A:bb X:8a Y:66 P:a4 SP:fb
e392  c9 bb      CMP #$bb    A:bb X:8a Y:66 P:a4 SP:fb
e394  d0 08      BNE $e39e   A:bb X:8a Y:66 P:27 SP:fb
e396  c0 66      CPY #$66    A:bb X:8a Y:66 P:27 SP:fb
e398  d0 04      BNE $e39e   A:bb X:8a Y:66 P:27 SP:fb
e39a  e0 8a      CPX #$8a    A:bb X:8a Y:66 P:27 SP:fb
e39c  f0 04      BEQ $e3a2   A:bb X:8a Y:66 P:27 SP:fb
e3a2  24 01      BIT $01     A:bb X:8a Y:66 P:27 SP:fb
e3a4  38         SEC         A:bb X:8a Y:66 P:e5 SP:fb
e3a5  a9 44      LDA #$44    A:bb X:8a Y:66 P:e5 SP:fb
e3a7  a2 00      LDX #$00    A:44 X:8a Y:66 P:65 SP:fb
e3a9  9d 33 06   STA $0633,X A:44 X:00 Y:66 P:67 SP:fb
e3ac  ad 33 06   LDA $0633   A:44 X:00 Y:66 P:67 SP:fb
e3af  90 1a      BCC $e3cb   A:44 X:00 Y:66 P:65 SP:fb
e3b1  c9 44      CMP #$44    A:44 X:00 Y:66 P:65 SP:fb
e3b3  d0 16      BNE $e3cb   A:44 X:00 Y:66 P:67 SP:fb
e3b5  50 14      BVC $e3cb   A:44 X:00 Y:66 P:67 SP:fb
e3b7  18         CLC         A:44 X:00 Y:66 P:67 SP:fb
e3b8  b8         CLV         A:44 X:00 Y:66 P:66 SP:fb
e3b9  a9 99      LDA #$99    A:44 X:00 Y:66 P:26 SP:fb
e3bb  a2 80      LDX #$80    A:99 X:00 Y:66 P:a4 SP:fb
e3bd  9d 85 05   STA $0585,X A:99 X:80 Y:66 P:a4 SP:fb
e3c0  ad 05 06   LDA $0605   A:99 X:80 Y:66 P:a4 SP:fb
e3c3  b0 06      BCS $e3cb   A:99 X:80 Y:66 P:a4 SP:fb
e3c5  c9 99      CMP #$99    A:99 X:80 Y:66 P:a4 SP:fb
e3c7  d0 02      BNE $e3cb   A:99 X:80 Y:66 P:27 SP:fb
e3c9  50 04      BVC $e3cf   A:99 X:80 Y:66 P:27 SP:fb
e3cf  a0 6d      LDY #$6d    A:99 X:80 Y:66 P:27 SP:fb
e3d1  a2 6d      LDX #$6d    A:99 X:80 Y:6d P:25 SP:fb
e3d3  20 90 f9   JSR $f990   A:99 X:6d Y:6d P:25 SP:fb
f990  a2 55      LDX #$55    A:99 X:6d Y:6d P:25 SP:f9
f992  a9 ff      LDA #$ff    A:99 X:55 Y:6d P:25 SP:f9
f994  85 01      STA $01     A:ff X:55 Y:6d P:a5 SP:f9
f996  ea         NOP         A:ff X:55 Y:6d P:a5 SP:f9
f997  24 01      BIT $01     A:ff X:55 Y:6d P:a5 SP:f9
f999  38         SEC         A:ff X:55 Y:6d P:e5 SP:f9
f99a  a9 01      LDA #$01    A:ff X:55 Y:6d P:e5 SP:f9
f99c  60         RTS         A:01 X:55 Y:6d P:65 SP:f9
e3d6  9d 00 06   STA $0600,X A:01 X:55 Y:6d P:65 SP:fb
e3d9  5e 00 06   LSR $0600,X A:01 X:55 Y:6d P:65 SP:fb
e3dc  bd 00 06   LDA $0600,X A:01 X:55 Y:6d P:67 SP:fb
e3df  20 9d f9   JSR $f99d   A:00 X:55 Y:6d P:67 SP:fb
f99d  90 1b      BCC $f9ba   A:00 X:55 Y:6d P:67 SP:f9
f99f  d0 19      BNE $f9ba   A:00 X:55 Y:6d P:67 SP:f9
f9a1  30 17      BMI $f9ba   A:00 X:55 Y:6d P:67 SP:f9
f9a3  50 15      BVC $f9ba   A:00 X:55 Y:6d P:67 SP:f9
f9a5  c9 00      CMP #$00    A:00 X:55 Y:6d P:67 SP:f9
f9a7  d0 11      BNE $f9ba   A:00 X:55 Y:6d P:67 SP:f9
f9a9  b8         CLV         A:00 X:55 Y:6d P:67 SP:f9
f9aa  a9 aa      LDA #$aa    A:00 X:55 Y:6d P:27 SP:f9
f9ac  60         RTS         A:aa X:55 Y:6d P:a5 SP:f9
e3e2  c8         INY         A:aa X:55 Y:6d P:a5 SP:fb
e3e3  9d 00 06   STA $0600,X A:aa X:55 Y:6e P:25 SP:fb
e3e6  5e 00 06   LSR $0600,X A:aa X:55 Y:6e P:25 SP:fb
e3e9  bd 00 06   LDA $0600,X A:aa X:55 Y:6e P:24 SP:fb
e3ec  20 ad f9   JSR $f9ad   A:55 X:55 Y:6e P:24 SP:fb
f9ad  b0 0b      BCS $f9ba   A:55 X:55 Y:6e P:24 SP:f9
f9af  f0 09      BEQ $f9ba   A:55 X:55 Y:6e P:24 SP:f9
f9b1  30 07      BMI $f9ba   A:55 X:55 Y:6e P:24 SP:f9
f9b3  70 05      BVS $f9ba   A:55 X:55 Y:6e P:24 SP:f9
f9b5  c9 55      CMP #$55    A:55 X:55 Y:6e P:24 SP:f9
f9b7  d0 01      BNE $f9ba   A:55 X:55 Y:6e P:27 SP:f9
f9b9  60         RTS         A:55 X:55 Y:6e P:27 SP:f9
e3ef  c8         INY         A:55 X:55 Y:6e P:27 SP:fb
e3f0  20 bd f9   JSR $f9bd   A:55 X:55 Y:6f P:25 SP:fb
f9bd  24 01      BIT $01     A:55 X:55 Y:6f P:25 SP:f9
f9bf  38         SEC         A:55 X:55 Y:6f P:e5 SP:f9
f9c0  a9 80      LDA #$80    A:55 X:55 Y:6f P:e5 SP:f9
f9c2  60         RTS         A:80 X:55 Y:6f P:e5 SP:f9
e3f3  9d 00 06   STA $0600,X A:80 X:55 Y:6f P:e5 SP:fb
e3f6  1e 00 06   ASL $0600,X A:80 X:55 Y:6f P:e5 SP:fb
e3f9  bd 00 06   LDA $0600,X A:80 X:55 Y:6f P:67 SP:fb
e3fc  20 c3 f9   JSR $f9c3   A:00 X:55 Y:6f P:67 SP:fb
f9c3  90 1c      BCC $f9e1   A:00 X:55 Y:6f P:67 SP:f9
f9c5  d0 1a      BNE $f9e1   A:00 X:55 Y:6f P:67 SP:f9
f9c7  30 18      BMI $f9e1   A:00 X:55 Y:6f P:67 SP:f9
f9c9  50 16      BVC $f9e1   A:00 X:55 Y:6f P:67 SP:f9
f9cb  c9 00      CMP #$00    A:00 X:55 Y:6f P:67 SP:f9
f9cd  d0 12      BNE $f9e1   A:00 X:55 Y:6f P:67 SP:f9
f9cf  b8         CLV         A:00 X:55 Y:6f P:67 SP:f9
f9d0  a9 55      LDA #$55    A:00 X:55 Y:6f P:27 SP:f9
f9d2  38         SEC         A:55 X:55 Y:6f P:25 SP:f9
f9d3  60         RTS         A:55 X:55 Y:6f P:25 SP:f9
e3ff  c8         INY         A:55 X:55 Y:6f P:25 SP:fb
e400  9d 00 06   STA $0600,X A:55 X:55 Y:70 P:25 SP:fb
e403  1e 00 06   ASL $0600,X A:55 X:55 Y:70 P:25 SP:fb
e406  bd 00 06   LDA $0600,X A:55 X:55 Y:70 P:a4 SP:fb
e409  20 d4 f9   JSR $f9d4   A:aa X:55 Y:70 P:a4 SP:fb
f9d4  b0 0b      BCS $f9e1   A:aa X:55 Y:70 P:a4 SP:f9
f9d6  f0 09      BEQ $f9e1   A:aa X:55 Y:70 P:a4 SP:f9
f9d8  10 07      BPL $f9e1   A:aa X:55 Y:70 P:a4 SP:f9
f9da  70 05      BVS $f9e1   A:aa X:55 Y:70 P:a4 SP:f9
f9dc  c9 aa      CMP #$aa    A:aa X:55 Y:70 P:a4 SP:f9
f9de  d0 01      BNE $f9e1   A:aa X:55 Y:70 P:27 SP:f9
f9e0  60         RTS         A:aa X:55 Y:70 P:27 SP:f9
e40c  c8         INY         A:aa X:55 Y:70 P:27 SP:fb
e40d  20 e4 f9   JSR $f9e4   A:aa X:55 Y:71 P:25 SP:fb
f9e4  24 01      BIT $01     A:aa X:55 Y:71 P:25 SP:f9
f9e6  38         SEC         A:aa X:55 Y:71 P:e5 SP:f9
f9e7  a9 01      LDA #$01    A:aa X:55 Y:71 P:e5 SP:f9
f9e9  60         RTS         A:01 X:55 Y:71 P:65 SP:f9
e410  9d 00 06   STA $0600,X A:01 X:55 Y:71 P:65 SP:fb
e413  7e 00 06   ROR $0600,X A:01 X:55 Y:71 P:65 SP:fb
e416  bd 00 06   LDA $0600,X A:01 X:55 Y:71 P:e5 SP:fb
e419  20 ea f9   JSR $f9ea   A:80 X:55 Y:71 P:e5 SP:fb
f9ea  90 1c      BCC $fa08   A:80 X:55 Y:71 P:e5 SP:f9
f9ec  f0 1a      BEQ $fa08   A:80 X:55 Y:71 P:e5 SP:f9
f9ee  10 18      BPL $fa08   A:80 X:55 Y:71 P:e5 SP:f9
f9f0  50 16      BVC $fa08   A:80 X:55 Y:71 P:e5 SP:f9
f9f2  c9 80      CMP #$80    A:80 X:55 Y:71 P:e5 SP:f9
f9f4  d0 12      BNE $fa08   A:80 X:55 Y:71 P:67 SP:f9
f9f6  b8         CLV         A:80 X:55 Y:71 P:67 SP:f9
f9f7  18         CLC         A:80 X:55 Y:71 P:27 SP:f9
f9f8  a9 55      LDA #$55    A:80 X:55 Y:71 P:26 SP:f9
f9fa  60         RTS         A:55 X:55 Y:71 P:24 SP:f9
e41c  c8         INY         A:55 X:55 Y:71 P:24 SP:fb
e41d  9d 00 06   STA $0600,X A:55 X:55 Y:72 P:24 SP:fb
e420  7e 00 06   ROR $0600,X A:55 X:55 Y:72 P:24 SP:fb
e423  bd 00 06   LDA $0600,X A:55 X:55 Y:72 P:25 SP:fb
e426  20 fb f9   JSR $f9fb   A:2a X:55 Y:72 P:25 SP:fb
f9fb  90 0b      BCC $fa08   A:2a X:55 Y:72 P:25 SP:f9
f9fd  f0 09      BEQ $fa08   A:2a X:55 Y:72 P:25 SP:f9
f9ff  30 07      BMI $fa08   A:2a X:55 Y:72 P:25 SP:f9
fa01  70 05      BVS $fa08   A:2a X:55 Y:72 P:25 SP:f9
fa03  c9 2a      CMP #$2a    A:2a X:55 Y:72 P:25 SP:f9
fa05  d0 01      BNE $fa08   A:2a X:55 Y:72 P:27 SP:f9
fa07  60         RTS         A:2a X:55 Y:72 P:27 SP:f9
e429  c8         INY         A:2a X:55 Y:72 P:27 SP:fb
e42a  20 0a fa   JSR $fa0a   A:2a X:55 Y:73 P:25 SP:fb
fa0a  24 01      BIT $01     A:2a X:55 Y:73 P:25 SP:f9
fa0c  38         SEC         A:2a X:55 Y:73 P:e5 SP:f9
fa0d  a9 80      LDA #$80    A:2a X:55 Y:73 P:e5 SP:f9
fa0f  60         RTS         A:80 X:55 Y:73 P:e5 SP:f9
e42d  9d 00 06   STA $0600,X A:80 X:55 Y:73 P:e5 SP:fb
e430  3e 00 06   ROL $0600,X A:80 X:55 Y:73 P:e5 SP:fb
e433  bd 00 06   LDA $0600,X A:80 X:55 Y:73 P:65 SP:fb
e436  20 10 fa   JSR $fa10   A:01 X:55 Y:73 P:65 SP:fb
fa10  90 1c      BCC $fa2e   A:01 X:55 Y:73 P:65 SP:f9
fa12  f0 1a      BEQ $fa2e   A:01 X:55 Y:73 P:65 SP:f9
fa14  30 18      BMI $fa2e   A:01 X:55 Y:73 P:65 SP:f9
fa16  50 16      BVC $fa2e   A:01 X:55 Y:73 P:65 SP:f9
fa18  c9 01      CMP #$01    A:01 X:55 Y:73 P:65 SP:f9
fa1a  d0 12      BNE $fa2e   A:01 X:55 Y:73 P:67 SP:f9
fa1c  b8         CLV         A:01 X:55 Y:73 P:67 SP:f9
fa1d  18         CLC         A:01 X:55 Y:73 P:27 SP:f9
fa1e  a9 55      LDA #$55    A:01 X:55 Y:73 P:26 SP:f9
fa20  60         RTS         A:55 X:55 Y:73 P:24 SP:f9
e439  c8         INY         A:55 X:55 Y:73 P:24 SP:fb
e43a  9d 00 06   STA $0600,X A:55 X:55 Y:74 P:24 SP:fb
e43d  3e 00 06   ROL $0600,X A:55 X:55 Y:74 P:24 SP:fb
e440  bd 00 06   LDA $0600,X A:55 X:55 Y:74 P:a4 SP:fb
e443  20 21 fa   JSR $fa21   A:aa X:55 Y:74 P:a4 SP:fb
fa21  b0 0b      BCS $fa2e   A:aa X:55 Y:74 P:a4 SP:f9
fa23  f0 09      BEQ $fa2e   A:aa X:55 Y:74 P:a4 SP:f9
fa25  10 07      BPL $fa2e   A:aa X:55 Y:74 P:a4 SP:f9
fa27  70 05      BVS $fa2e   A:aa X:55 Y:74 P:a4 SP:f9
fa29  c9 aa      CMP #$aa    A:aa X:55 Y:74 P:a4 SP:f9
fa2b  d0 01      BNE $fa2e   A:aa X:55 Y:74 P:27 SP:f9
fa2d  60         RTS         A:aa X:55 Y:74 P:27 SP:f9
e446  a9 ff      LDA #$ff    A:aa X:55 Y:74 P:27 SP:fb
e448  9d 00 06   STA $0600,X A:ff X:55 Y:74 P:a5 SP:fb
e44b  85 01      STA $01     A:ff X:55 Y:74 P:a5 SP:fb
e44d  24 01      BIT $01     A:ff X:55 Y:74 P:a5 SP:fb
e44f  38         SEC         A:ff X:55 Y:74 P:e5 SP:fb
e450  fe 00 06   INC $0600,X A:ff X:55 Y:74 P:e5 SP:fb
e453  d0 0d      BNE $e462   A:ff X:55 Y:74 P:67 SP:fb
e455  30 0b      BMI $e462   A:ff X:55 Y:74 P:67 SP:fb
e457  50 09      BVC $e462   A:ff X:55 Y:74 P:67 SP:fb
e459  90 07      BCC $e462   A:ff X:55 Y:74 P:67 SP:fb
e45b  bd 00 06   LDA $0600,X A:ff X:55 Y:74 P:67 SP:fb
e45e  c9 00      CMP #$00    A:00 X:55 Y:74 P:67 SP:fb
e460  f0 04      BEQ $e466   A:00 X:55 Y:74 P:67 SP:fb
e466  a9 7f      LDA #$7f    A:00 X:55 Y:74 P:67 SP:fb
e468  9d 00 06   STA $0600,X A:7f X:55 Y:74 P:65 SP:fb
e46b  b8         CLV         A:7f X:55 Y:74 P:65 SP:fb
e46c  18         CLC         A:7f X:55 Y:74 P:25 SP:fb
e46d  fe 00 06   INC $0600,X A:7f X:55 Y:74 P:24 SP:fb
e470  f0 0d      BEQ $e47f   A:7f X:55 Y:74 P:a4 SP:fb
e472  10 0b      BPL $e47f   A:7f X:55 Y:74 P:a4 SP:fb
e474  70 09      BVS $e47f   A:7f X:55 Y:74 P:a4 SP:fb
e476  b0 07      BCS $e47f   A:7f X:55 Y:74 P:a4 SP:fb
e478  bd 00 06   LDA $0600,X A:7f X:55 Y:74 P:a4 SP:fb
e47b  c9 80      CMP #$80    A:80 X:55 Y:74 P:a4 SP:fb
e47d  f0 04      BEQ $e483   A:80 X:55 Y:74 P:27 SP:fb
e483  a9 00      LDA #$00    A:80 X:55 Y:74 P:27 SP:fb
e485  9d 00 06   STA $0600,X A:00 X:55 Y:74 P:27 SP:fb
e488  24 01      BIT $01     A:00 X:55 Y:74 P:27 SP:fb
e48a  38         SEC         A:00 X:55 Y:74 P:e7 SP:fb
e48b  de 00 06   DEC $0600,X A:00 X:55 Y:74 P:e7 SP:fb
e48e  f0 0d      BEQ $e49d   A:00 X:55 Y:74 P:e5 SP:fb
e490  10 0b      BPL $e49d   A:00 X:55 Y:74 P:e5 SP:fb
e492  50 09      BVC $e49d   A:00 X:55 Y:74 P:e5 SP:fb
e494  90 07      BCC $e49d   A:00 X:55 Y:74 P:e5 SP:fb
e496  bd 00 06   LDA $0600,X A:00 X:55 Y:74 P:e5 SP:fb
e499  c9 ff      CMP #$ff    A:ff X:55 Y:74 P:e5 SP:fb
e49b  f0 04      BEQ $e4a1   A:ff X:55 Y:74 P:67 SP:fb
e4a1  a9 80      LDA #$80    A:ff X:55 Y:74 P:67 SP:fb
e4a3  9d 00 06   STA $0600,X A:80 X:55 Y:74 P:e5 SP:fb
e4a6  b8         CLV         A:80 X:55 Y:74 P:e5 SP:fb
e4a7  18         CLC         A:80 X:55 Y:74 P:a5 SP:fb
e4a8  de 00 06   DEC $0600,X A:80 X:55 Y:74 P:a4 SP:fb
e4ab  f0 0d      BEQ $e4ba   A:80 X:55 Y:74 P:24 SP:fb
e4ad  30 0b      BMI $e4ba   A:80 X:55 Y:74 P:24 SP:fb
e4af  70 09      BVS $e4ba   A:80 X:55 Y:74 P:24 SP:fb
e4b1  b0 07      BCS $e4ba   A:80 X:55 Y:74 P:24 SP:fb
e4b3  bd 00 06   LDA $0600,X A:80 X:55 Y:74 P:24 SP:fb
e4b6  c9 7f      CMP #$7f    A:7f X:55 Y:74 P:24 SP:fb
e4b8  f0 04      BEQ $e4be   A:7f X:55 Y:74 P:27 SP:fb
e4be  a9 01      LDA #$01    A:7f X:55 Y:74 P:27 SP:fb
e4c0  9d 00 06   STA $0600,X A:01 X:55 Y:74 P:25 SP:fb
e4c3  de 00 06   DEC $0600,X A:01 X:55 Y:74 P:25 SP:fb
e4c6  f0 04      BEQ $e4cc   A:01 X:55 Y:74 P:27 SP:fb
e4cc  a9 33      LDA #$33    A:01 X:55 Y:74 P:27 SP:fb
e4ce  8d 78 06   STA $0678   A:33 X:55 Y:74 P:25 SP:fb
e4d1  a9 44      LDA #$44    A:33 X:55 Y:74 P:25 SP:fb
e4d3  a0 78      LDY #$78    A:44 X:55 Y:74 P:25 SP:fb
e4d5  a2 00      LDX #$00    A:44 X:55 Y:78 P:25 SP:fb
e4d7  38         SEC         A:44 X:00 Y:78 P:27 SP:fb
e4d8  24 01      BIT $01     A:44 X:00 Y:78 P:27 SP:fb
e4da  be 00 06   LDX $0600,Y A:44 X:00 Y:78 P:e5 SP:fb
e4dd  90 12      BCC $e4f1   A:44 X:33 Y:78 P:65 SP:fb
e4df  50 10      BVC $e4f1   A:44 X:33 Y:78 P:65 SP:fb
e4e1  30 0e      BMI $e4f1   A:44 X:33 Y:78 P:65 SP:fb
e4e3  f0 0c      BEQ $e4f1   A:44 X:33 Y:78 P:65 SP:fb
e4e5  e0 33      CPX #$33    A:44 X:33 Y:78 P:65 SP:fb
e4e7  d0 08      BNE $e4f1   A:44 X:33 Y:78 P:67 SP:fb
e4e9  c0 78      CPY #$78    A:44 X:33 Y:78 P:67 SP:fb
e4eb  d0 04      BNE $e4f1   A:44 X:33 Y:78 P:67 SP:fb
e4ed  c9 44      CMP #$44    A:44 X:33 Y:78 P:67 SP:fb
e4ef  f0 04      BEQ $e4f5   A:44 X:33 Y:78 P:67 SP:fb
e4f5  a9 97      LDA #$97    A:44 X:33 Y:78 P:67 SP:fb
e4f7  8d 7f 06   STA $067f   A:97 X:33 Y:78 P:e5 SP:fb
e4fa  a9 47      LDA #$47    A:97 X:33 Y:78 P:e5 SP:fb
e4fc  a0 ff      LDY #$ff    A:47 X:33 Y:78 P:65 SP:fb
e4fe  a2 00      LDX #$00    A:47 X:33 Y:ff P:e5 SP:fb
e500  18         CLC         A:47 X:00 Y:ff P:67 SP:fb
e501  b8         CLV         A:47 X:00 Y:ff P:66 SP:fb
e502  be 80 05   LDX $0580,Y A:47 X:00 Y:ff P:26 SP:fb
e505  b0 12      BCS $e519   A:47 X:97 Y:ff P:a4 SP:fb
e507  70 10      BVS $e519   A:47 X:97 Y:ff P:a4 SP:fb
e509  10 0e      BPL $e519   A:47 X:97 Y:ff P:a4 SP:fb
e50b  f0 0c      BEQ $e519   A:47 X:97 Y:ff P:a4 SP:fb
e50d  e0 97      CPX #$97    A:47 X:97 Y:ff P:a4 SP:fb
e50f  d0 08      BNE $e519   A:47 X:97 Y:ff P:27 SP:fb
e511  c0 ff      CPY #$ff    A:47 X:97 Y:ff P:27 SP:fb
e513  d0 04      BNE $e519   A:47 X:97 Y:ff P:27 SP:fb
e515  c9 47      CMP #$47    A:47 X:97 Y:ff P:27 SP:fb
e517  f0 04      BEQ $e51d   A:47 X:97 Y:ff P:27 SP:fb
e51d  60         RTS         A:47 X:97 Y:ff P:27 SP:fb
c62f  20 a3 c6   JSR $c6a3   A:47 X:97 Y:ff P:27 SP:fd
c6a3  a0 4e      LDY #$4e    A:47 X:97 Y:ff P:27 SP:fb
c6a5  a9 ff      LDA #$ff    A:47 X:97 Y:4e P:25 SP:fb
c6a7  85 01      STA $01     A:ff X:97 Y:4e P:a5 SP:fb
c6a9  20 b0 c6   JSR $c6b0   A:ff X:97 Y:4e P:a5 SP:fb
c6b0  a9 ff      LDA #$ff    A:ff X:97 Y:4e P:a5 SP:f9
c6b2  48         PHA         A:ff X:97 Y:4e P:a5 SP:f9
c6b3  a9 aa      LDA #$aa    A:ff X:97 Y:4e P:a5 SP:f8
c6b5  d0 05      BNE $c6bc   A:aa X:97 Y:4e P:a5 SP:f8
c6bc  28         PLP         A:aa X:97 Y:4e P:a5 SP:f8
c6bd  04 a9      NOP $a9     A:aa X:97 Y:4e P:ef SP:f9
c6bf  44 a9      NOP $a9     A:aa X:97 Y:4e P:ef SP:f9
c6c1  64 a9      NOP $a9     A:aa X:97 Y:4e P:ef SP:f9
c6c3  ea         NOP         A:aa X:97 Y:4e P:ef SP:f9
c6c4  ea         NOP         A:aa X:97 Y:4e P:ef SP:f9
c6c5  ea         NOP         A:aa X:97 Y:4e P:ef SP:f9
c6c6  ea         NOP         A:aa X:97 Y:4e P:ef SP:f9
c6c7  08         PHP         A:aa X:97 Y:4e P:ef SP:f9
c6c8  48         PHA         A:aa X:97 Y:4e P:ef SP:f8
c6c9  0c a9 a9   NOP $a9a9   A:aa X:97 Y:4e P:ef SP:f7
c6cc  ea         NOP         A:aa X:97 Y:4e P:ef SP:f7
c6cd  ea         NOP         A:aa X:97 Y:4e P:ef SP:f7
c6ce  ea         NOP         A:aa X:97 Y:4e P:ef SP:f7
c6cf  ea         NOP         A:aa X:97 Y:4e P:ef SP:f7
c6d0  08         PHP         A:aa X:97 Y:4e P:ef SP:f7
c6d1  48         PHA         A:aa X:97 Y:4e P:ef SP:f6
c6d2  14 a9      NOP $a9,X   A:aa X:97 Y:4e P:ef SP:f5
c6d4  34 a9      NOP $a9,X   A:aa X:97 Y:4e P:ef SP:f5
c6d6  54 a9      NOP $a9,X   A:aa X:97 Y:4e P:ef SP:f5
c6d8  74 a9      NOP $a9,X   A:aa X:97 Y:4e P:ef SP:f5
c6da  d4 a9      NOP $a9,X   A:aa X:97 Y:4e P:ef SP:f5
c6dc  f4 a9      NOP $a9,X   A:aa X:97 Y:4e P:ef SP:f5
c6de  ea         NOP         A:aa X:97 Y:4e P:ef SP:f5
c6df  ea         NOP         A:aa X:97 Y:4e P:ef SP:f5
c6e0  ea         NOP         A:aa X:97 Y:4e P:ef SP:f5
c6e1  ea         NOP         A:aa X:97 Y:4e P:ef SP:f5
c6e2  08         PHP         A:aa X:97 Y:4e P:ef SP:f5
c6e3  48         PHA         A:aa X:97 Y:4e P:ef SP:f4
c6e4  1a         NOP         A:aa X:97 Y:4e P:ef SP:f3
c6e5  3a         NOP         A:aa X:97 Y:4e P:ef SP:f3
c6e6  5a         NOP         A:aa X:97 Y:4e P:ef SP:f3
c6e7  7a         NOP         A:aa X:97 Y:4e P:ef SP:f3
c6e8  da         NOP         A:aa X:97 Y:4e P:ef SP:f3
c6e9  fa         NOP         A:aa X:97 Y:4e P:ef SP:f3
c6ea  80 89      NOP #$89    A:aa X:97 Y:4e P:ef SP:f3
c6ec  ea         NOP         A:aa X:97 Y:4e P:ef SP:f3
c6ed  ea         NOP         A:aa X:97 Y:4e P:ef SP:f3
c6ee  ea         NOP         A:aa X:97 Y:4e P:ef SP:f3
c6ef  ea         NOP         A:aa X:97 Y:4e P:ef SP:f3
c6f0  08         PHP         A:aa X:97 Y:4e P:ef SP:f3
c6f1  48         PHA         A:aa X:97 Y:4e P:ef SP:f2
c6f2  1c a9 a9   NOP $a9a9,X A:aa X:97 Y:4e P:ef SP:f1
c6f5  3c a9 a9   NOP $a9a9,X A:aa X:97 Y:4e P:ef SP:f1
c6f8  5c a9 a9   NOP $a9a9,X A:aa X:97 Y:4e P:ef SP:f1
c6fb  7c a9 a9   NOP $a9a9,X A:aa X:97 Y:4e P:ef SP:f1
c6fe  dc a9 a9   NOP $a9a9,X A:aa X:97 Y:4e P:ef SP:f1
c701  fc a9 a9   NOP $a9a9,X A:aa X:97 Y:4e P:ef SP:f1
c704  ea         NOP         A:aa X:97 Y:4e P:ef SP:f1
c705  ea         NOP         A:aa X:97 Y:4e P:ef SP:f1
c706  ea         NOP         A:aa X:97 Y:4e P:ef SP:f1
c707  ea         NOP         A:aa X:97 Y:4e P:ef SP:f1
c708  08         PHP         A:aa X:97 Y:4e P:ef SP:f1
c709  48         PHA         A:aa X:97 Y:4e P:ef SP:f0
c70a  a2 05      LDX #$05    A:aa X:97 Y:4e P:ef SP:ef
c70c  68         PLA         A:aa X:05 Y:4e P:6d SP:ef
c70d  c9 55      CMP #$55    A:aa X:05 Y:4e P:ed SP:f0
c70f  f0 0a      BEQ $c71b   A:aa X:05 Y:4e P:6d SP:f0
c711  c9 aa      CMP #$aa    A:aa X:05 Y:4e P:6d SP:f0
c713  f0 06      BEQ $c71b   A:aa X:05 Y:4e P:6f SP:f0
c71b  68         PLA         A:aa X:05 Y:4e P:6f SP:f0
c71c  29 cb      AND #$cb    A:ff X:05 Y:4e P:ed SP:f1
c71e  c9 00      CMP #$00    A:cb X:05 Y:4e P:ed SP:f1
c720  f0 06      BEQ $c728   A:cb X:05 Y:4e P:ed SP:f1
c722  c9 cb      CMP #$cb    A:cb X:05 Y:4e P:ed SP:f1
c724  f0 02      BEQ $c728   A:cb X:05 Y:4e P:6f SP:f1
c728  c8         INY         A:cb X:05 Y:4e P:6f SP:f1
c729  ca         DEX         A:cb X:05 Y:4f P:6d SP:f1
c72a  d0 e0      BNE $c70c   A:cb X:04 Y:4f P:6d SP:f1
c70c  68         PLA         A:cb X:04 Y:4f P:6d SP:f1
c70d  c9 55      CMP #$55    A:aa X:04 Y:4f P:ed SP:f2
c70f  f0 0a      BEQ $c71b   A:aa X:04 Y:4f P:6d SP:f2
c711  c9 aa      CMP #$aa    A:aa X:04 Y:4f P:6d SP:f2
c713  f0 06      BEQ $c71b   A:aa X:04 Y:4f P:6f SP:f2
c71b  68         PLA         A:aa X:04 Y:4f P:6f SP:f2
c71c  29 cb      AND #$cb    A:ff X:04 Y:4f P:ed SP:f3
c71e  c9 00      CMP #$00    A:cb X:04 Y:4f P:ed SP:f3
c720  f0 06      BEQ $c728   A:cb X:04 Y:4f P:ed SP:f3
c722  c9 cb      CMP #$cb    A:cb X:04 Y:4f P:ed SP:f3
c724  f0 02      BEQ $c728   A:cb X:04 Y:4f P:6f SP:f3
c728  c8         INY         A:cb X:04 Y:4f P:6f SP:f3
c729  ca         DEX         A:cb X:04 Y:50 P:6d SP:f3
c72a  d0 e0      BNE $c70c   A:cb X:03 Y:50 P:6d SP:f3
c70c  68         PLA         A:cb X:03 Y:50 P:6d SP:f3
c70d  c9 55      CMP #$55    A:aa X:03 Y:50 P:ed SP:f4
c70f  f0 0a      BEQ $c71b   A:aa X:03 Y:50 P:6d SP:f4
c711  c9 aa      CMP #$aa    A:aa X:03 Y:50 P:6d SP:f4
c713  f0 06      BEQ $c71b   A:aa X:03 Y:50 P:6f SP:f4
c71b  68         PLA         A:aa X:03 Y:50 P:6f SP:f4
c71c  29 cb      AND #$cb    A:ff X:03 Y:50 P:ed SP:f5
c71e  c9 00      CMP #$00    A:cb X:03 Y:50 P:ed SP:f5
c720  f0 06      BEQ $c728   A:cb X:03 Y:50 P:ed SP:f5
c722  c9 cb      CMP #$cb    A:cb X:03 Y:50 P:ed SP:f5
c724  f0 02      BEQ $c728   A:cb X:03 Y:50 P:6f SP:f5
c728  c8         INY         A:cb X:03 Y:50 P:6f SP:f5
c729  ca         DEX         A:cb X:03 Y:51 P:6d SP:f5
c72a  d0 e0      BNE $c70c   A:cb X:02 Y:51 P:6d SP:f5
c70c  68         PLA         A:cb X:02 Y:51 P:6d SP:f5
c70d  c9 55      CMP #$55    A:aa X:02 Y:51 P:ed SP:f6
c70f  f0 0a      BEQ $c71b   A:aa X:02 Y:51 P:6d SP:f6
c711  c9 aa      CMP #$aa    A:aa X:02 Y:51 P:6d SP:f6
c713  f0 06      BEQ $c71b   A:aa X:02 Y:51 P:6f SP:f6
c71b  68         PLA         A:aa X:02 Y:51 P:6f SP:f6
c71c  29 cb      AND #$cb    A:ff X:02 Y:51 P:ed SP:f7
c71e  c9 00      CMP #$00    A:cb X:02 Y:51 P:ed SP:f7
c720  f0 06      BEQ $c728   A:cb X:02 Y:51 P:ed SP:f7
c722  c9 cb      CMP #$cb    A:cb X:02 Y:51 P:ed SP:f7
c724  f0 02      BEQ $c728   A:cb X:02 Y:51 P:6f SP:f7
c728  c8         INY         A:cb X:02 Y:51 P:6f SP:f7
c729  ca         DEX         A:cb X:02 Y:52 P:6d SP:f7
c72a  d0 e0      BNE $c70c   A:cb X:01 Y:52 P:6d SP:f7
c70c  68         PLA         A:cb X:01 Y:52 P:6d SP:f7
c70d  c9 55      CMP #$55    A:aa X:01 Y:52 P:ed SP:f8
c70f  f0 0a      BEQ $c71b   A:aa X:01 Y:52 P:6d SP:f8
c711  c9 aa      CMP #$aa    A:aa X:01 Y:52 P:6d SP:f8
c713  f0 06      BEQ $c71b   A:aa X:01 Y:52 P:6f SP:f8
c71b  68         PLA         A:aa X:01 Y:52 P:6f SP:f8
c71c  29 cb      AND #$cb    A:ff X:01 Y:52 P:ed SP:f9
c71e  c9 00      CMP #$00    A:cb X:01 Y:52 P:ed SP:f9
c720  f0 06      BEQ $c728   A:cb X:01 Y:52 P:ed SP:f9
c722  c9 cb      CMP #$cb    A:cb X:01 Y:52 P:ed SP:f9
c724  f0 02      BEQ $c728   A:cb X:01 Y:52 P:6f SP:f9
c728  c8         INY         A:cb X:01 Y:52 P:6f SP:f9
c729  ca         DEX         A:cb X:01 Y:53 P:6d SP:f9
c72a  d0 e0      BNE $c70c   A:cb X:00 Y:53 P:6f SP:f9
c72c  60         RTS         A:cb X:00 Y:53 P:6f SP:f9
c6ac  20 b7 c6   JSR $c6b7   A:cb X:00 Y:53 P:6f SP:fb
c6b7  a9 34      LDA #$34    A:cb X:00 Y:53 P:6f SP:f9
c6b9  48         PHA         A:34 X:00 Y:53 P:6d SP:f9
c6ba  a9 55      LDA #$55    A:34 X:00 Y:53 P:6d SP:f8
c6bc  28         PLP         A:55 X:00 Y:53 P:6d SP:f8
c6bd  04 a9      NOP $a9     A:55 X:00 Y:53 P:24 SP:f9
c6bf  44 a9      NOP $a9     A:55 X:00 Y:53 P:24 SP:f9
c6c1  64 a9      NOP $a9     A:55 X:00 Y:53 P:24 SP:f9
c6c3  ea         NOP         A:55 X:00 Y:53 P:24 SP:f9
c6c4  ea         NOP         A:55 X:00 Y:53 P:24 SP:f9
c6c5  ea         NOP         A:55 X:00 Y:53 P:24 SP:f9
c6c6  ea         NOP         A:55 X:00 Y:53 P:24 SP:f9
c6c7  08         PHP         A:55 X:00 Y:53 P:24 SP:f9
c6c8  48         PHA         A:55 X:00 Y:53 P:24 SP:f8
c6c9  0c a9 a9   NOP $a9a9   A:55 X:00 Y:53 P:24 SP:f7
c6cc  ea         NOP         A:55 X:00 Y:53 P:24 SP:f7
c6cd  ea         NOP         A:55 X:00 Y:53 P:24 SP:f7
c6ce  ea         NOP         A:55 X:00 Y:53 P:24 SP:f7
c6cf  ea         NOP         A:55 X:00 Y:53 P:24 SP:f7
c6d0  08         PHP         A:55 X:00 Y:53 P:24 SP:f7
c6d1  48         PHA         A:55 X:00 Y:53 P:24 SP:f6
c6d2  14 a9      NOP $a9,X   A:55 X:00 Y:53 P:24 SP:f5
c6d4  34 a9      NOP $a9,X   A:55 X:00 Y:53 P:24 SP:f5
c6d6  54 a9      NOP $a9,X   A:55 X:00 Y:53 P:24 SP:f5
c6d8  74 a9      NOP $a9,X   A:55 X:00 Y:53 P:24 SP:f5
c6da  d4 a9      NOP $a9,X   A:55 X:00 Y:53 P:24 SP:f5
c6dc  f4 a9      NOP $a9,X   A:55 X:00 Y:53 P:24 SP:f5
c6de  ea         NOP         A:55 X:00 Y:53 P:24 SP:f5
c6df  ea         NOP         A:55 X:00 Y:53 P:24 SP:f5
c6e0  ea         NOP         A:55 X:00 Y:53 P:24 SP:f5
c6e1  ea         NOP         A:55 X:00 Y:53 P:24 SP:f5
c6e2  08         PHP         A:55 X:00 Y:53 P:24 SP:f5
c6e3  48         PHA         A:55 X:00 Y:53 P:24 SP:f4
c6e4  1a         NOP         A:55 X:00 Y:53 P:24 SP:f3
c6e5  3a         NOP         A:55 X:00 Y:53 P:24 SP:f3
c6e6  5a         NOP         A:55 X:00 Y:53 P:24 SP:f3
c6e7  7a         NOP         A:55 X:00 Y:53 P:24 SP:f3
c6e8  da         NOP         A:55 X:00 Y:53 P:24 SP:f3
c6e9  fa         NOP         A:55 X:00 Y:53 P:24 SP:f3
c6ea  80 89      NOP #$89    A:55 X:00 Y:53 P:24 SP:f3
c6ec  ea         NOP         A:55 X:00 Y:53 P:24 SP:f3
c6ed  ea         NOP         A:55 X:00 Y:53 P:24 SP:f3
c6ee  ea         NOP         A:55 X:00 Y:53 P:24 SP:f3
c6ef  ea         NOP         A:55 X:00 Y:53 P:24 SP:f3
c6f0  08         PHP         A:55 X:00 Y:53 P:24 SP:f3
c6f1  48         PHA         A:55 X:00 Y:53 P:24 SP:f2
c6f2  1c a9 a9   NOP $a9a9,X A:55 X:00 Y:53 P:24 SP:f1
c6f5  3c a9 a9   NOP $a9a9,X A:55 X:00 Y:53 P:24 SP:f1
c6f8  5c a9 a9   NOP $a9a9,X A:55 X:00 Y:53 P:24 SP:f1
c6fb  7c a9 a9   NOP $a9a9,X A:55 X:00 Y:53 P:24 SP:f1
c6fe  dc a9 a9   NOP $a9a9,X A:55 X:00 Y:53 P:24 SP:f1
c701  fc a9 a9   NOP $a9a9,X A:55 X:00 Y:53 P:24 SP:f1
c704  ea         NOP         A:55 X:00 Y:53 P:24 SP:f1
c705  ea         NOP         A:55 X:00 Y:53 P:24 SP:f1
c706  ea         NOP         A:55 X:00 Y:53 P:24 SP:f1
c707  ea         NOP         A:55 X:00 Y:53 P:24 SP:f1
c708  08         PHP         A:55 X:00 Y:53 P:24 SP:f1
c709  48         PHA         A:55 X:00 Y:53 P:24 SP:f0
c70a  a2 05      LDX #$05    A:55 X:00 Y:53 P:24 SP:ef
c70c  68         PLA         A:55 X:05 Y:53 P:24 SP:ef
c70d  c9 55      CMP #$55    A:55 X:05 Y:53 P:24 SP:f0
c70f  f0 0a      BEQ $c71b   A:55 X:05 Y:53 P:27 SP:f0
c71b  68         PLA         A:55 X:05 Y:53 P:27 SP:f0
c71c  29 cb      AND #$cb    A:34 X:05 Y:53 P:25 SP:f1
c71e  c9 00      CMP #$00    A:00 X:05 Y:53 P:27 SP:f1
c720  f0 06      BEQ $c728   A:00 X:05 Y:53 P:27 SP:f1
c728  c8         INY         A:00 X:05 Y:53 P:27 SP:f1
c729  ca         DEX         A:00 X:05 Y:54 P:25 SP:f1
c72a  d0 e0      BNE $c70c   A:00 X:04 Y:54 P:25 SP:f1
c70c  68         PLA         A:00 X:04 Y:54 P:25 SP:f1
c70d  c9 55      CMP #$55    A:55 X:04 Y:54 P:25 SP:f2
c70f  f0 0a      BEQ $c71b   A:55 X:04 Y:54 P:27 SP:f2
c71b  68         PLA         A:55 X:04 Y:54 P:27 SP:f2
c71c  29 cb      AND #$cb    A:34 X:04 Y:54 P:25 SP:f3
c71e  c9 00      CMP #$00    A:00 X:04 Y:54 P:27 SP:f3
c720  f0 06      BEQ $c728   A:00 X:04 Y:54 P:27 SP:f3
c728  c8         INY         A:00 X:04 Y:54 P:27 SP:f3
c729  ca         DEX         A:00 X:04 Y:55 P:25 SP:f3
c72a  d0 e0      BNE $c70c   A:00 X:03 Y:55 P:25 SP:f3
c70c  68         PLA         A:00 X:03 Y:55 P:25 SP:f3
c70d  c9 55      CMP #$55    A:55 X:03 Y:55 P:25 SP:f4
c70f  f0 0a      BEQ $c71b   A:55 X:03 Y:55 P:27 SP:f4
c71b  68         PLA         A:55 X:03 Y:55 P:27 SP:f4
c71c  29 cb      AND #$cb    A:34 X:03 Y:55 P:25 SP:f5
c71e  c9 00      CMP #$00    A:00 X:03 Y:55 P:27 SP:f5
c720  f0 06      BEQ $c728   A:00 X:03 Y:55 P:27 SP:f5
c728  c8         INY         A:00 X:03 Y:55 P:27 SP:f5
c729  ca         DEX         A:00 X:03 Y:56 P:25 SP:f5
c72a  d0 e0      BNE $c70c   A:00 X:02 Y:56 P:25 SP:f5
c70c  68         PLA         A:00 X:02 Y:56 P:25 SP:f5
c70d  c9 55      CMP #$55    A:55 X:02 Y:56 P:25 SP:f6
c70f  f0 0a      BEQ $c71b   A:55 X:02 Y:56 P:27 SP:f6
c71b  68         PLA         A:55 X:02 Y:56 P:27 SP:f6
c71c  29 cb      AND #$cb    A:34 X:02 Y:56 P:25 SP:f7
c71e  c9 00      CMP #$00    A:00 X:02 Y:56 P:27 SP:f7
c720  f0 06      BEQ $c728   A:00 X:02 Y:56 P:27 SP:f7
c728  c8         INY         A:00 X:02 Y:56 P:27 SP:f7
c729  ca         DEX         A:00 X:02 Y:57 P:25 SP:f7
c72a  d0 e0      BNE $c70c   A:00 X:01 Y:57 P:25 SP:f7
c70c  68         PLA         A:00 X:01 Y:57 P:25 SP:f7
c70d  c9 55      CMP #$55    A:55 X:01 Y:57 P:25 SP:f8
c70f  f0 0a      BEQ $c71b   A:55 X:01 Y:57 P:27 SP:f8
c71b  68         PLA         A:55 X:01 Y:57 P:27 SP:f8
c71c  29 cb      AND #$cb    A:34 X:01 Y:57 P:25 SP:f9
c71e  c9 00      CMP #$00    A:00 X:01 Y:57 P:27 SP:f9
c720  f0 06      BEQ $c728   A:00 X:01 Y:57 P:27 SP:f9
c728  c8         INY         A:00 X:01 Y:57 P:27 SP:f9
c729  ca         DEX         A:00 X:01 Y:58 P:25 SP:f9
c72a  d0 e0      BNE $c70c   A:00 X:00 Y:58 P:27 SP:f9
c72c  60         RTS         A:00 X:00 Y:58 P:27 SP:f9
c6af  60         RTS         A:00 X:00 Y:58 P:27 SP:fb
c632  20 1e e5   JSR $e51e   A:00 X:00 Y:58 P:27 SP:fd
e51e  a9 55      LDA #$55    A:00 X:00 Y:58 P:27 SP:fb
e520  8d 80 05   STA $0580   A:55 X:00 Y:58 P:25 SP:fb
e523  a9 aa      LDA #$aa    A:55 X:00 Y:58 P:25 SP:fb
e525  8d 32 04   STA $0432   A:aa X:00 Y:58 P:a5 SP:fb
e528  a9 80      LDA #$80    A:aa X:00 Y:58 P:a5 SP:fb
e52a  85 43      STA $43     A:80 X:00 Y:58 P:a5 SP:fb
e52c  a9 05      LDA #$05    A:80 X:00 Y:58 P:a5 SP:fb
e52e  85 44      STA $44     A:05 X:00 Y:58 P:25 SP:fb
e530  a9 32      LDA #$32    A:05 X:00 Y:58 P:25 SP:fb
e532  85 45      STA $45     A:32 X:00 Y:58 P:25 SP:fb
e534  a9 04      LDA #$04    A:32 X:00 Y:58 P:25 SP:fb
e536  85 46      STA $46     A:04 X:00 Y:58 P:25 SP:fb
e538  a2 03      LDX #$03    A:04 X:00 Y:58 P:25 SP:fb
e53a  a0 77      LDY #$77    A:04 X:03 Y:58 P:25 SP:fb
e53c  a9 ff      LDA #$ff    A:04 X:03 Y:77 P:25 SP:fb
e53e  85 01      STA $01     A:ff X:03 Y:77 P:a5 SP:fb
e540  24 01      BIT $01     A:ff X:03 Y:77 P:a5 SP:fb
e542  38         SEC         A:ff X:03 Y:77 P:e5 SP:fb
e543  a9 00      LDA #$00    A:ff X:03 Y:77 P:e5 SP:fb
e545  a3 40      LAX ($40,X) A:00 X:03 Y:77 P:67 SP:fb
e547  ea         NOP         A:55 X:55 Y:77 P:65 SP:fb
e548  ea         NOP         A:55 X:55 Y:77 P:65 SP:fb
e549  ea         NOP         A:55 X:55 Y:77 P:65 SP:fb
e54a  ea         NOP         A:55 X:55 Y:77 P:65 SP:fb
e54b  f0 12      BEQ $e55f   A:55 X:55 Y:77 P:65 SP:fb
e54d  30 10      BMI $e55f   A:55 X:55 Y:77 P:65 SP:fb
e54f  50 0e      BVC $e55f   A:55 X:55 Y:77 P:65 SP:fb
e551  90 0c      BCC $e55f   A:55 X:55 Y:77 P:65 SP:fb
e553  c9 55      CMP #$55    A:55 X:55 Y:77 P:65 SP:fb
e555  d0 08      BNE $e55f   A:55 X:55 Y:77 P:67 SP:fb
e557  e0 55      CPX #$55    A:55 X:55 Y:77 P:67 SP:fb
e559  d0 04      BNE $e55f   A:55 X:55 Y:77 P:67 SP:fb
e55b  c0 77      CPY #$77    A:55 X:55 Y:77 P:67 SP:fb
e55d  f0 04      BEQ $e563   A:55 X:55 Y:77 P:67 SP:fb
e563  a2 05      LDX #$05    A:55 X:55 Y:77 P:67 SP:fb
e565  a0 33      LDY #$33    A:55 X:05 Y:77 P:65 SP:fb
e567  b8         CLV         A:55 X:05 Y:33 P:65 SP:fb
e568  18         CLC         A:55 X:05 Y:33 P:25 SP:fb
e569  a9 00      LDA #$00    A:55 X:05 Y:33 P:24 SP:fb
e56b  a3 40      LAX ($40,X) A:00 X:05 Y:33 P:26 SP:fb
e56d  ea         NOP         A:aa X:aa Y:33 P:a4 SP:fb
e56e  ea         NOP         A:aa X:aa Y:33 P:a4 SP:fb
e56f  ea         NOP         A:aa X:aa Y:33 P:a4 SP:fb
e570  ea         NOP         A:aa X:aa Y:33 P:a4 SP:fb
e571  f0 12      BEQ $e585   A:aa X:aa Y:33 P:a4 SP:fb
e573  10 10      BPL $e585   A:aa X:aa Y:33 P:a4 SP:fb
e575  70 0e      BVS $e585   A:aa X:aa Y:33 P:a4 SP:fb
e577  b0 0c      BCS $e585   A:aa X:aa Y:33 P:a4 SP:fb
e579  c9 aa      CMP #$aa    A:aa X:aa Y:33 P:a4 SP:fb
e57b  d0 08      BNE $e585   A:aa X:aa Y:33 P:27 SP:fb
e57d  e0 aa      CPX #$aa    A:aa X:aa Y:33 P:27 SP:fb
e57f  d0 04      BNE $e585   A:aa X:aa Y:33 P:27 SP:fb
e581  c0 33      CPY #$33    A:aa X:aa Y:33 P:27 SP:fb
e583  f0 04      BEQ $e589   A:aa X:aa Y:33 P:27 SP:fb
e589  a9 87      LDA #$87    A:aa X:aa Y:33 P:27 SP:fb
e58b  85 67      STA $67     A:87 X:aa Y:33 P:a5 SP:fb
e58d  a9 32      LDA #$32    A:87 X:aa Y:33 P:a5 SP:fb
e58f  85 68      STA $68     A:32 X:aa Y:33 P:25 SP:fb
e591  a0 57      LDY #$57    A:32 X:aa Y:33 P:25 SP:fb
e593  24 01      BIT $01     A:32 X:aa Y:57 P:25 SP:fb
e595  38         SEC         A:32 X:aa Y:57 P:e5 SP:fb
e596  a9 00      LDA #$00    A:32 X:aa Y:57 P:e5 SP:fb
e598  a7 67      LAX $67     A:00 X:aa Y:57 P:67 SP:fb
e59a  ea         NOP         A:87 X:87 Y:57 P:e5 SP:fb
e59b  ea         NOP         A:87 X:87 Y:57 P:e5 SP:fb
e59c  ea         NOP         A:87 X:87 Y:57 P:e5 SP:fb
e59d  ea         NOP         A:87 X:87 Y:57 P:e5 SP:fb
e59e  f0 12      BEQ $e5b2   A:87 X:87 Y:57 P:e5 SP:fb
e5a0  10 10      BPL $e5b2   A:87 X:87 Y:57 P:e5 SP:fb
e5a2  50 0e      BVC $e5b2   A:87 X:87 Y:57 P:e5 SP:fb
e5a4  90 0c      BCC $e5b2   A:87 X:87 Y:57 P:e5 SP:fb
e5a6  c9 87      CMP #$87    A:87 X:87 Y:57 P:e5 SP:fb
e5a8  d0 08      BNE $e5b2   A:87 X:87 Y:57 P:67 SP:fb
e5aa  e0 87      CPX #$87    A:87 X:87 Y:57 P:67 SP:fb
e5ac  d0 04      BNE $e5b2   A:87 X:87 Y:57 P:67 SP:fb
e5ae  c0 57      CPY #$57    A:87 X:87 Y:57 P:67 SP:fb
e5b0  f0 04      BEQ $e5b6   A:87 X:87 Y:57 P:67 SP:fb
e5b6  a0 53      LDY #$53    A:87 X:87 Y:57 P:67 SP:fb
e5b8  b8         CLV         A:87 X:87 Y:53 P:65 SP:fb
e5b9  18         CLC         A:87 X:87 Y:53 P:25 SP:fb
e5ba  a9 00      LDA #$00    A:87 X:87 Y:53 P:24 SP:fb
e5bc  a7 68      LAX $68     A:00 X:87 Y:53 P:26 SP:fb
e5be  ea         NOP         A:32 X:32 Y:53 P:24 SP:fb
e5bf  ea         NOP         A:32 X:32 Y:53 P:24 SP:fb
e5c0  ea         NOP         A:32 X:32 Y:53 P:24 SP:fb
e5c1  ea         NOP         A:32 X:32 Y:53 P:24 SP:fb
e5c2  f0 12      BEQ $e5d6   A:32 X:32 Y:53 P:24 SP:fb
e5c4  30 10      BMI $e5d6   A:32 X:32 Y:53 P:24 SP:fb
e5c6  70 0e      BVS $e5d6   A:32 X:32 Y:53 P:24 SP:fb
e5c8  b0 0c      BCS $e5d6   A:32 X:32 Y:53 P:24 SP:fb
e5ca  c9 32      CMP #$32    A:32 X:32 Y:53 P:24 SP:fb
e5cc  d0 08      BNE $e5d6   A:32 X:32 Y:53 P:27 SP:fb
e5ce  e0 32      CPX #$32    A:32 X:32 Y:53 P:27 SP:fb
e5d0  d0 04      BNE $e5d6   A:32 X:32 Y:53 P:27 SP:fb
e5d2  c0 53      CPY #$53    A:32 X:32 Y:53 P:27 SP:fb
e5d4  f0 04      BEQ $e5da   A:32 X:32 Y:53 P:27 SP:fb
e5da  a9 87      LDA #$87    A:32 X:32 Y:53 P:27 SP:fb
e5dc  8d 77 05   STA $0577   A:87 X:32 Y:53 P:a5 SP:fb
e5df  a9 32      LDA #$32    A:87 X:32 Y:53 P:a5 SP:fb
e5e1  8d 78 05   STA $0578   A:32 X:32 Y:53 P:25 SP:fb
e5e4  a0 57      LDY #$57    A:32 X:32 Y:53 P:25 SP:fb
e5e6  24 01      BIT $01     A:32 X:32 Y:57 P:25 SP:fb
e5e8  38         SEC         A:32 X:32 Y:57 P:e5 SP:fb
e5e9  a9 00      LDA #$00    A:32 X:32 Y:57 P:e5 SP:fb
e5eb  af 77 05   LAX $0577   A:00 X:32 Y:57 P:67 SP:fb
e5ee  ea         NOP         A:87 X:87 Y:57 P:e5 SP:fb
e5ef  ea         NOP         A:87 X:87 Y:57 P:e5 SP:fb
e5f0  ea         NOP         A:87 X:87 Y:57 P:e5 SP:fb
e5f1  ea         NOP         A:87 X:87 Y:57 P:e5 SP:fb
e5f2  f0 12      BEQ $e606   A:87 X:87 Y:57 P:e5 SP:fb
e5f4  10 10      BPL $e606   A:87 X:87 Y:57 P:e5 SP:fb
e5f6  50 0e      BVC $e606   A:87 X:87 Y:57 P:e5 SP:fb
e5f8  90 0c      BCC $e606   A:87 X:87 Y:57 P:e5 SP:fb
e5fa  c9 87      CMP #$87    A:87 X:87 Y:57 P:e5 SP:fb
e5fc  d0 08      BNE $e606   A:87 X:87 Y:57 P:67 SP:fb
e5fe  e0 87      CPX #$87    A:87 X:87 Y:57 P:67 SP:fb
e600  d0 04      BNE $e606   A:87 X:87 Y:57 P:67 SP:fb
e602  c0 57      CPY #$57    A:87 X:87 Y:57 P:67 SP:fb
e604  f0 04      BEQ $e60a   A:87 X:87 Y:57 P:67 SP:fb
e60a  a0 53      LDY #$53    A:87 X:87 Y:57 P:67 SP:fb
e60c  b8         CLV         A:87 X:87 Y:53 P:65 SP:fb
e60d  18         CLC         A:87 X:87 Y:53 P:25 SP:fb
e60e  a9 00      LDA #$00    A:87 X:87 Y:53 P:24 SP:fb
e610  af 78 05   LAX $0578   A:00 X:87 Y:53 P:26 SP:fb
e613  ea         NOP         A:32 X:32 Y:53 P:24 SP:fb
e614  ea         NOP         A:32 X:32 Y:53 P:24 SP:fb
e615  ea         NOP         A:32 X:32 Y:53 P:24 SP:fb
e616  ea         NOP         A:32 X:32 Y:53 P:24 SP:fb
e617  f0 12      BEQ $e62b   A:32 X:32 Y:53 P:24 SP:fb
e619  30 10      BMI $e62b   A:32 X:32 Y:53 P:24 SP:fb
e61b  70 0e      BVS $e62b   A:32 X:32 Y:53 P:24 SP:fb
e61d  b0 0c      BCS $e62b   A:32 X:32 Y:53 P:24 SP:fb
e61f  c9 32      CMP #$32    A:32 X:32 Y:53 P:24 SP:fb
e621  d0 08      BNE $e62b   A:32 X:32 Y:53 P:27 SP:fb
e623  e0 32      CPX #$32    A:32 X:32 Y:53 P:27 SP:fb
e625  d0 04      BNE $e62b   A:32 X:32 Y:53 P:27 SP:fb
e627  c0 53      CPY #$53    A:32 X:32 Y:53 P:27 SP:fb
e629  f0 04      BEQ $e62f   A:32 X:32 Y:53 P:27 SP:fb
e62f  a9 ff      LDA #$ff    A:32 X:32 Y:53 P:27 SP:fb
e631  85 43      STA $43     A:ff X:32 Y:53 P:a5 SP:fb
e633  a9 04      LDA #$04    A:ff X:32 Y:53 P:a5 SP:fb
e635  85 44      STA $44     A:04 X:32 Y:53 P:25 SP:fb
e637  a9 32      LDA #$32    A:04 X:32 Y:53 P:25 SP:fb
e639  85 45      STA $45     A:32 X:32 Y:53 P:25 SP:fb
e63b  a9 04      LDA #$04    A:32 X:32 Y:53 P:25 SP:fb
e63d  85 46      STA $46     A:04 X:32 Y:53 P:25 SP:fb
e63f  a9 55      LDA #$55    A:04 X:32 Y:53 P:25 SP:fb
e641  8d 80 05   STA $0580   A:55 X:32 Y:53 P:25 SP:fb
e644  a9 aa      LDA #$aa    A:55 X:32 Y:53 P:25 SP:fb
e646  8d 32 04   STA $0432   A:aa X:32 Y:53 P:a5 SP:fb
e649  a2 03      LDX #$03    A:aa X:32 Y:53 P:a5 SP:fb
e64b  a0 81      LDY #$81    A:aa X:03 Y:53 P:25 SP:fb
e64d  24 01      BIT $01     A:aa X:03 Y:81 P:a5 SP:fb
e64f  38         SEC         A:aa X:03 Y:81 P:e5 SP:fb
e650  a9 00      LDA #$00    A:aa X:03 Y:81 P:e5 SP:fb
e652  b3 43      LAX ($43),Y A:00 X:03 Y:81 P:67 SP:fb
e654  ea         NOP         A:55 X:55 Y:81 P:65 SP:fb
e655  ea         NOP         A:55 X:55 Y:81 P:65 SP:fb
e656  ea         NOP         A:55 X:55 Y:81 P:65 SP:fb
e657  ea         NOP         A:55 X:55 Y:81 P:65 SP:fb
e658  f0 12      BEQ $e66c   A:55 X:55 Y:81 P:65 SP:fb
e65a  30 10      BMI $e66c   A:55 X:55 Y:81 P:65 SP:fb
e65c  50 0e      BVC $e66c   A:55 X:55 Y:81 P:65 SP:fb
e65e  90 0c      BCC $e66c   A:55 X:55 Y:81 P:65 SP:fb
e660  c9 55      CMP #$55    A:55 X:55 Y:81 P:65 SP:fb
e662  d0 08      BNE $e66c   A:55 X:55 Y:81 P:67 SP:fb
e664  e0 55      CPX #$55    A:55 X:55 Y:81 P:67 SP:fb
e666  d0 04      BNE $e66c   A:55 X:55 Y:81 P:67 SP:fb
e668  c0 81      CPY #$81    A:55 X:55 Y:81 P:67 SP:fb
e66a  f0 04      BEQ $e670   A:55 X:55 Y:81 P:67 SP:fb
e670  a2 05      LDX #$05    A:55 X:55 Y:81 P:67 SP:fb
e672  a0 00      LDY #$00    A:55 X:05 Y:81 P:65 SP:fb
e674  b8         CLV         A:55 X:05 Y:00 P:67 SP:fb
e675  18         CLC         A:55 X:05 Y:00 P:27 SP:fb
e676  a9 00      LDA #$00    A:55 X:05 Y:00 P:26 SP:fb
e678  b3 45      LAX ($45),Y A:00 X:05 Y:00 P:26 SP:fb
e67a  ea         NOP         A:aa X:aa Y:00 P:a4 SP:fb
e67b  ea         NOP         A:aa X:aa Y:00 P:a4 SP:fb
e67c  ea         NOP         A:aa X:aa Y:00 P:a4 SP:fb
e67d  ea         NOP         A:aa X:aa Y:00 P:a4 SP:fb
e67e  f0 12      BEQ $e692   A:aa X:aa Y:00 P:a4 SP:fb
e680  10 10      BPL $e692   A:aa X:aa Y:00 P:a4 SP:fb
e682  70 0e      BVS $e692   A:aa X:aa Y:00 P:a4 SP:fb
e684  b0 0c      BCS $e692   A:aa X:aa Y:00 P:a4 SP:fb
e686  c9 aa      CMP #$aa    A:aa X:aa Y:00 P:a4 SP:fb
e688  d0 08      BNE $e692   A:aa X:aa Y:00 P:27 SP:fb
e68a  e0 aa      CPX #$aa    A:aa X:aa Y:00 P:27 SP:fb
e68c  d0 04      BNE $e692   A:aa X:aa Y:00 P:27 SP:fb
e68e  c0 00      CPY #$00    A:aa X:aa Y:00 P:27 SP:fb
e690  f0 04      BEQ $e696   A:aa X:aa Y:00 P:27 SP:fb
e696  a9 87      LDA #$87    A:aa X:aa Y:00 P:27 SP:fb
e698  85 67      STA $67     A:87 X:aa Y:00 P:a5 SP:fb
e69a  a9 32      LDA #$32    A:87 X:aa Y:00 P:a5 SP:fb
e69c  85 68      STA $68     A:32 X:aa Y:00 P:25 SP:fb
e69e  a0 57      LDY #$57    A:32 X:aa Y:00 P:25 SP:fb
e6a0  24 01      BIT $01     A:32 X:aa Y:57 P:25 SP:fb
e6a2  38         SEC         A:32 X:aa Y:57 P:e5 SP:fb
e6a3  a9 00      LDA #$00    A:32 X:aa Y:57 P:e5 SP:fb
e6a5  b7 10      LAX $10,Y   A:00 X:aa Y:57 P:67 SP:fb
e6a7  ea         NOP         A:87 X:87 Y:57 P:e5 SP:fb
e6a8  ea         NOP         A:87 X:87 Y:57 P:e5 SP:fb
e6a9  ea         NOP         A:87 X:87 Y:57 P:e5 SP:fb
e6aa  ea         NOP         A:87 X:87 Y:57 P:e5 SP:fb
e6ab  f0 12      BEQ $e6bf   A:87 X:87 Y:57 P:e5 SP:fb
e6ad  10 10      BPL $e6bf   A:87 X:87 Y:57 P:e5 SP:fb
e6af  50 0e      BVC $e6bf   A:87 X:87 Y:57 P:e5 SP:fb
e6b1  90 0c      BCC $e6bf   A:87 X:87 Y:57 P:e5 SP:fb
e6b3  c9 87      CMP #$87    A:87 X:87 Y:57 P:e5 SP:fb
e6b5  d0 08      BNE $e6bf   A:87 X:87 Y:57 P:67 SP:fb
e6b7  e0 87      CPX #$87    A:87 X:87 Y:57 P:67 SP:fb
e6b9  d0 04      BNE $e6bf   A:87 X:87 Y:57 P:67 SP:fb
e6bb  c0 57      CPY #$57    A:87 X:87 Y:57 P:67 SP:fb
e6bd  f0 04      BEQ $e6c3   A:87 X:87 Y:57 P:67 SP:fb
e6c3  a0 ff      LDY #$ff    A:87 X:87 Y:57 P:67 SP:fb
e6c5  b8         CLV         A:87 X:87 Y:ff P:e5 SP:fb
e6c6  18         CLC         A:87 X:87 Y:ff P:a5 SP:fb
e6c7  a9 00      LDA #$00    A:87 X:87 Y:ff P:a4 SP:fb
e6c9  b7 69      LAX $69,Y   A:00 X:87 Y:ff P:26 SP:fb
e6cb  ea         NOP         A:32 X:32 Y:ff P:24 SP:fb
e6cc  ea         NOP         A:32 X:32 Y:ff P:24 SP:fb
e6cd  ea         NOP         A:32 X:32 Y:ff P:24 SP:fb
e6ce  ea         NOP         A:32 X:32 Y:ff P:24 SP:fb
e6cf  f0 12      BEQ $e6e3   A:32 X:32 Y:ff P:24 SP:fb
e6d1  30 10      BMI $e6e3   A:32 X:32 Y:ff P:24 SP:fb
e6d3  70 0e      BVS $e6e3   A:32 X:32 Y:ff P:24 SP:fb
e6d5  b0 0c      BCS $e6e3   A:32 X:32 Y:ff P:24 SP:fb
e6d7  c9 32      CMP #$32    A:32 X:32 Y:ff P:24 SP:fb
e6d9  d0 08      BNE $e6e3   A:32 X:32 Y:ff P:27 SP:fb
e6db  e0 32      CPX #$32    A:32 X:32 Y:ff P:27 SP:fb
e6dd  d0 04      BNE $e6e3   A:32 X:32 Y:ff P:27 SP:fb
e6df  c0 ff      CPY #$ff    A:32 X:32 Y:ff P:27 SP:fb
e6e1  f0 04      BEQ $e6e7   A:32 X:32 Y:ff P:27 SP:fb
e6e7  a9 87      LDA #$87    A:32 X:32 Y:ff P:27 SP:fb
e6e9  8d 87 05   STA $0587   A:87 X:32 Y:ff P:a5 SP:fb
e6ec  a9 32      LDA #$32    A:87 X:32 Y:ff P:a5 SP:fb
e6ee  8d 88 05   STA $0588   A:32 X:32 Y:ff P:25 SP:fb
e6f1  a0 30      LDY #$30    A:32 X:32 Y:ff P:25 SP:fb
e6f3  24 01      BIT $01     A:32 X:32 Y:30 P:25 SP:fb
e6f5  38         SEC         A:32 X:32 Y:30 P:e5 SP:fb
e6f6  a9 00      LDA #$00    A:32 X:32 Y:30 P:e5 SP:fb
e6f8  bf 57 05   LAX $0557,Y A:00 X:32 Y:30 P:67 SP:fb
e6fb  ea         NOP         A:87 X:87 Y:30 P:e5 SP:fb
e6fc  ea         NOP         A:87 X:87 Y:30 P:e5 SP:fb
e6fd  ea         NOP         A:87 X:87 Y:30 P:e5 SP:fb
e6fe  ea         NOP         A:87 X:87 Y:30 P:e5 SP:fb
e6ff  f0 12      BEQ $e713   A:87 X:87 Y:30 P:e5 SP:fb
e701  10 10      BPL $e713   A:87 X:87 Y:30 P:e5 SP:fb
e703  50 0e      BVC $e713   A:87 X:87 Y:30 P:e5 SP:fb
e705  90 0c      BCC $e713   A:87 X:87 Y:30 P:e5 SP:fb
e707  c9 87      CMP #$87    A:87 X:87 Y:30 P:e5 SP:fb
e709  d0 08      BNE $e713   A:87 X:87 Y:30 P:67 SP:fb
e70b  e0 87      CPX #$87    A:87 X:87 Y:30 P:67 SP:fb
e70d  d0 04      BNE $e713   A:87 X:87 Y:30 P:67 SP:fb
e70f  c0 30      CPY #$30    A:87 X:87 Y:30 P:67 SP:fb
e711  f0 04      BEQ $e717   A:87 X:87 Y:30 P:67 SP:fb
e717  a0 40      LDY #$40    A:87 X:87 Y:30 P:67 SP:fb
e719  b8         CLV         A:87 X:87 Y:40 P:65 SP:fb
e71a  18         CLC         A:87 X:87 Y:40 P:25 SP:fb
e71b  a9 00      LDA #$00    A:87 X:87 Y:40 P:24 SP:fb
e71d  bf 48 05   LAX $0548,Y A:00 X:87 Y:40 P:26 SP:fb
e720  ea         NOP         A:32 X:32 Y:40 P:24 SP:fb
e721  ea         NOP         A:32 X:32 Y:40 P:24 SP:fb
e722  ea         NOP         A:32 X:32 Y:40 P:24 SP:fb
e723  ea         NOP         A:32 X:32 Y:40 P:24 SP:fb
e724  f0 12      BEQ $e738   A:32 X:32 Y:40 P:24 SP:fb
e726  30 10      BMI $e738   A:32 X:32 Y:40 P:24 SP:fb
e728  70 0e      BVS $e738   A:32 X:32 Y:40 P:24 SP:fb
e72a  b0 0c      BCS $e738   A:32 X:32 Y:40 P:24 SP:fb
e72c  c9 32      CMP #$32    A:32 X:32 Y:40 P:24 SP:fb
e72e  d0 08      BNE $e738   A:32 X:32 Y:40 P:27 SP:fb
e730  e0 32      CPX #$32    A:32 X:32 Y:40 P:27 SP:fb
e732  d0 04      BNE $e738   A:32 X:32 Y:40 P:27 SP:fb
e734  c0 40      CPY #$40    A:32 X:32 Y:40 P:27 SP:fb
e736  f0 04      BEQ $e73c   A:32 X:32 Y:40 P:27 SP:fb
e73c  60         RTS         A:32 X:32 Y:40 P:27 SP:fb
c635  20 3d e7   JSR $e73d   A:32 X:32 Y:40 P:27 SP:fd
e73d  a9 c0      LDA #$c0    A:32 X:32 Y:40 P:27 SP:fb
e73f  85 01      STA $01     A:c0 X:32 Y:40 P:a5 SP:fb
e741  a9 00      LDA #$00    A:c0 X:32 Y:40 P:a5 SP:fb
e743  8d 89 04   STA $0489   A:00 X:32 Y:40 P:27 SP:fb
e746  a9 89      LDA #$89    A:00 X:32 Y:40 P:27 SP:fb
e748  85 60      STA $60     A:89 X:32 Y:40 P:a5 SP:fb
e74a  a9 04      LDA #$04    A:89 X:32 Y:40 P:a5 SP:fb
e74c  85 61      STA $61     A:04 X:32 Y:40 P:25 SP:fb
e74e  a0 44      LDY #$44    A:04 X:32 Y:40 P:25 SP:fb
e750  a2 17      LDX #$17    A:04 X:32 Y:44 P:25 SP:fb
e752  a9 3e      LDA #$3e    A:04 X:17 Y:44 P:25 SP:fb
e754  24 01      BIT $01     A:3e X:17 Y:44 P:25 SP:fb
e756  18         CLC         A:3e X:17 Y:44 P:e7 SP:fb
e757  83 49      SAX ($49,X) A:3e X:17 Y:44 P:e6 SP:fb
e759  ea         NOP         A:3e X:17 Y:44 P:e6 SP:fb
e75a  ea         NOP         A:3e X:17 Y:44 P:e6 SP:fb
e75b  ea         NOP         A:3e X:17 Y:44 P:e6 SP:fb
e75c  ea         NOP         A:3e X:17 Y:44 P:e6 SP:fb
e75d  d0 19      BNE $e778   A:3e X:17 Y:44 P:e6 SP:fb
e75f  b0 17      BCS $e778   A:3e X:17 Y:44 P:e6 SP:fb
e761  50 15      BVC $e778   A:3e X:17 Y:44 P:e6 SP:fb
e763  10 13      BPL $e778   A:3e X:17 Y:44 P:e6 SP:fb
e765  c9 3e      CMP #$3e    A:3e X:17 Y:44 P:e6 SP:fb
e767  d0 0f      BNE $e778   A:3e X:17 Y:44 P:67 SP:fb
e769  c0 44      CPY #$44    A:3e X:17 Y:44 P:67 SP:fb
e76b  d0 0b      BNE $e778   A:3e X:17 Y:44 P:67 SP:fb
e76d  e0 17      CPX #$17    A:3e X:17 Y:44 P:67 SP:fb
e76f  d0 07      BNE $e778   A:3e X:17 Y:44 P:67 SP:fb
e771  ad 89 04   LDA $0489   A:3e X:17 Y:44 P:67 SP:fb
e774  c9 16      CMP #$16    A:16 X:17 Y:44 P:65 SP:fb
e776  f0 04      BEQ $e77c   A:16 X:17 Y:44 P:67 SP:fb
e77c  a0 44      LDY #$44    A:16 X:17 Y:44 P:67 SP:fb
e77e  a2 7a      LDX #$7a    A:16 X:17 Y:44 P:65 SP:fb
e780  a9 66      LDA #$66    A:16 X:7a Y:44 P:65 SP:fb
e782  38         SEC         A:66 X:7a Y:44 P:65 SP:fb
e783  b8         CLV         A:66 X:7a Y:44 P:65 SP:fb
e784  83 e6      SAX ($e6,X) A:66 X:7a Y:44 P:25 SP:fb
e786  ea         NOP         A:66 X:7a Y:44 P:25 SP:fb
e787  ea         NOP         A:66 X:7a Y:44 P:25 SP:fb
e788  ea         NOP         A:66 X:7a Y:44 P:25 SP:fb
e789  ea         NOP         A:66 X:7a Y:44 P:25 SP:fb
e78a  f0 19      BEQ $e7a5   A:66 X:7a Y:44 P:25 SP:fb
e78c  90 17      BCC $e7a5   A:66 X:7a Y:44 P:25 SP:fb
e78e  70 15      BVS $e7a5   A:66 X:7a Y:44 P:25 SP:fb
e790  30 13      BMI $e7a5   A:66 X:7a Y:44 P:25 SP:fb
e792  c9 66      CMP #$66    A:66 X:7a Y:44 P:25 SP:fb
e794  d0 0f      BNE $e7a5   A:66 X:7a Y:44 P:27 SP:fb
e796  c0 44      CPY #$44    A:66 X:7a Y:44 P:27 SP:fb
e798  d0 0b      BNE $e7a5   A:66 X:7a Y:44 P:27 SP:fb
e79a  e0 7a      CPX #$7a    A:66 X:7a Y:44 P:27 SP:fb
e79c  d0 07      BNE $e7a5   A:66 X:7a Y:44 P:27 SP:fb
e79e  ad 89 04   LDA $0489   A:66 X:7a Y:44 P:27 SP:fb
e7a1  c9 62      CMP #$62    A:62 X:7a Y:44 P:25 SP:fb
e7a3  f0 04      BEQ $e7a9   A:62 X:7a Y:44 P:27 SP:fb
e7a9  a9 ff      LDA #$ff    A:62 X:7a Y:44 P:27 SP:fb
e7ab  85 49      STA $49     A:ff X:7a Y:44 P:a5 SP:fb
e7ad  a0 44      LDY #$44    A:ff X:7a Y:44 P:a5 SP:fb
e7af  a2 aa      LDX #$aa    A:ff X:7a Y:44 P:25 SP:fb
e7b1  a9 55      LDA #$55    A:ff X:aa Y:44 P:a5 SP:fb
e7b3  24 01      BIT $01     A:55 X:aa Y:44 P:25 SP:fb
e7b5  18         CLC         A:55 X:aa Y:44 P:e5 SP:fb
e7b6  87 49      SAX $49     A:55 X:aa Y:44 P:e4 SP:fb
e7b8  ea         NOP         A:55 X:aa Y:44 P:e4 SP:fb
e7b9  ea         NOP         A:55 X:aa Y:44 P:e4 SP:fb
e7ba  ea         NOP         A:55 X:aa Y:44 P:e4 SP:fb
e7bb  ea         NOP         A:55 X:aa Y:44 P:e4 SP:fb
e7bc  f0 18      BEQ $e7d6   A:55 X:aa Y:44 P:e4 SP:fb
e7be  b0 16      BCS $e7d6   A:55 X:aa Y:44 P:e4 SP:fb
e7c0  50 14      BVC $e7d6   A:55 X:aa Y:44 P:e4 SP:fb
e7c2  10 12      BPL $e7d6   A:55 X:aa Y:44 P:e4 SP:fb
e7c4  c9 55      CMP #$55    A:55 X:aa Y:44 P:e4 SP:fb
e7c6  d0 0e      BNE $e7d6   A:55 X:aa Y:44 P:67 SP:fb
e7c8  c0 44      CPY #$44    A:55 X:aa Y:44 P:67 SP:fb
e7ca  d0 0a      BNE $e7d6   A:55 X:aa Y:44 P:67 SP:fb
e7cc  e0 aa      CPX #$aa    A:55 X:aa Y:44 P:67 SP:fb
e7ce  d0 06      BNE $e7d6   A:55 X:aa Y:44 P:67 SP:fb
e7d0  a5 49      LDA $49     A:55 X:aa Y:44 P:67 SP:fb
e7d2  c9 00      CMP #$00    A:00 X:aa Y:44 P:67 SP:fb
e7d4  f0 04      BEQ $e7da   A:00 X:aa Y:44 P:67 SP:fb
e7da  a9 00      LDA #$00    A:00 X:aa Y:44 P:67 SP:fb
e7dc  85 56      STA $56     A:00 X:aa Y:44 P:67 SP:fb
e7de  a0 58      LDY #$58    A:00 X:aa Y:44 P:67 SP:fb
e7e0  a2 ef      LDX #$ef    A:00 X:aa Y:58 P:65 SP:fb
e7e2  a9 66      LDA #$66    A:00 X:ef Y:58 P:e5 SP:fb
e7e4  38         SEC         A:66 X:ef Y:58 P:65 SP:fb
e7e5  b8         CLV         A:66 X:ef Y:58 P:65 SP:fb
e7e6  87 56      SAX $56     A:66 X:ef Y:58 P:25 SP:fb
e7e8  ea         NOP         A:66 X:ef Y:58 P:25 SP:fb
e7e9  ea         NOP         A:66 X:ef Y:58 P:25 SP:fb
e7ea  ea         NOP         A:66 X:ef Y:58 P:25 SP:fb
e7eb  ea         NOP         A:66 X:ef Y:58 P:25 SP:fb
e7ec  f0 18      BEQ $e806   A:66 X:ef Y:58 P:25 SP:fb
e7ee  90 16      BCC $e806   A:66 X:ef Y:58 P:25 SP:fb
e7f0  70 14      BVS $e806   A:66 X:ef Y:58 P:25 SP:fb
e7f2  30 12      BMI $e806   A:66 X:ef Y:58 P:25 SP:fb
e7f4  c9 66      CMP #$66    A:66 X:ef Y:58 P:25 SP:fb
e7f6  d0 0e      BNE $e806   A:66 X:ef Y:58 P:27 SP:fb
e7f8  c0 58      CPY #$58    A:66 X:ef Y:58 P:27 SP:fb
e7fa  d0 0a      BNE $e806   A:66 X:ef Y:58 P:27 SP:fb
e7fc  e0 ef      CPX #$ef    A:66 X:ef Y:58 P:27 SP:fb
e7fe  d0 06      BNE $e806   A:66 X:ef Y:58 P:27 SP:fb
e800  a5 56      LDA $56     A:66 X:ef Y:58 P:27 SP:fb
e802  c9 66      CMP #$66    A:66 X:ef Y:58 P:25 SP:fb
e804  f0 04      BEQ $e80a   A:66 X:ef Y:58 P:27 SP:fb
e80a  a9 ff      LDA #$ff    A:66 X:ef Y:58 P:27 SP:fb
e80c  8d 49 05   STA $0549   A:ff X:ef Y:58 P:a5 SP:fb
e80f  a0 e5      LDY #$e5    A:ff X:ef Y:58 P:a5 SP:fb
e811  a2 af      LDX #$af    A:ff X:ef Y:e5 P:a5 SP:fb
e813  a9 f5      LDA #$f5    A:ff X:af Y:e5 P:a5 SP:fb
e815  24 01      BIT $01     A:f5 X:af Y:e5 P:a5 SP:fb
e817  18         CLC         A:f5 X:af Y:e5 P:e5 SP:fb
e818  8f 49 05   SAX $0549   A:f5 X:af Y:e5 P:e4 SP:fb
e81b  ea         NOP         A:f5 X:af Y:e5 P:e4 SP:fb
e81c  ea         NOP         A:f5 X:af Y:e5 P:e4 SP:fb
e81d  ea         NOP         A:f5 X:af Y:e5 P:e4 SP:fb
e81e  ea         NOP         A:f5 X:af Y:e5 P:e4 SP:fb
e81f  f0 19      BEQ $e83a   A:f5 X:af Y:e5 P:e4 SP:fb
e821  b0 17      BCS $e83a   A:f5 X:af Y:e5 P:e4 SP:fb
e823  50 15      BVC $e83a   A:f5 X:af Y:e5 P:e4 SP:fb
e825  10 13      BPL $e83a   A:f5 X:af Y:e5 P:e4 SP:fb
e827  c9 f5      CMP #$f5    A:f5 X:af Y:e5 P:e4 SP:fb
e829  d0 0f      BNE $e83a   A:f5 X:af Y:e5 P:67 SP:fb
e82b  c0 e5      CPY #$e5    A:f5 X:af Y:e5 P:67 SP:fb
e82d  d0 0b      BNE $e83a   A:f5 X:af Y:e5 P:67 SP:fb
e82f  e0 af      CPX #$af    A:f5 X:af Y:e5 P:67 SP:fb
e831  d0 07      BNE $e83a   A:f5 X:af Y:e5 P:67 SP:fb
e833  ad 49 05   LDA $0549   A:f5 X:af Y:e5 P:67 SP:fb
e836  c9 a5      CMP #$a5    A:a5 X:af Y:e5 P:e5 SP:fb
e838  f0 04      BEQ $e83e   A:a5 X:af Y:e5 P:67 SP:fb
e83e  a9 00      LDA #$00    A:a5 X:af Y:e5 P:67 SP:fb
e840  8d 56 05   STA $0556   A:00 X:af Y:e5 P:67 SP:fb
e843  a0 58      LDY #$58    A:00 X:af Y:e5 P:67 SP:fb
e845  a2 b3      LDX #$b3    A:00 X:af Y:58 P:65 SP:fb
e847  a9 97      LDA #$97    A:00 X:b3 Y:58 P:e5 SP:fb
e849  38         SEC         A:97 X:b3 Y:58 P:e5 SP:fb
e84a  b8         CLV         A:97 X:b3 Y:58 P:e5 SP:fb
e84b  8f 56 05   SAX $0556   A:97 X:b3 Y:58 P:a5 SP:fb
e84e  ea         NOP         A:97 X:b3 Y:58 P:a5 SP:fb
e84f  ea         NOP         A:97 X:b3 Y:58 P:a5 SP:fb
e850  ea         NOP         A:97 X:b3 Y:58 P:a5 SP:fb
e851  ea         NOP         A:97 X:b3 Y:58 P:a5 SP:fb
e852  f0 19      BEQ $e86d   A:97 X:b3 Y:58 P:a5 SP:fb
e854  90 17      BCC $e86d   A:97 X:b3 Y:58 P:a5 SP:fb
e856  70 15      BVS $e86d   A:97 X:b3 Y:58 P:a5 SP:fb
e858  10 13      BPL $e86d   A:97 X:b3 Y:58 P:a5 SP:fb
e85a  c9 97      CMP #$97    A:97 X:b3 Y:58 P:a5 SP:fb
e85c  d0 0f      BNE $e86d   A:97 X:b3 Y:58 P:27 SP:fb
e85e  c0 58      CPY #$58    A:97 X:b3 Y:58 P:27 SP:fb
e860  d0 0b      BNE $e86d   A:97 X:b3 Y:58 P:27 SP:fb
e862  e0 b3      CPX #$b3    A:97 X:b3 Y:58 P:27 SP:fb
e864  d0 07      BNE $e86d   A:97 X:b3 Y:58 P:27 SP:fb
e866  ad 56 05   LDA $0556   A:97 X:b3 Y:58 P:27 SP:fb
e869  c9 93      CMP #$93    A:93 X:b3 Y:58 P:a5 SP:fb
e86b  f0 04      BEQ $e871   A:93 X:b3 Y:58 P:27 SP:fb
e871  a9 ff      LDA #$ff    A:93 X:b3 Y:58 P:27 SP:fb
e873  85 49      STA $49     A:ff X:b3 Y:58 P:a5 SP:fb
e875  a0 ff      LDY #$ff    A:ff X:b3 Y:58 P:a5 SP:fb
e877  a2 aa      LDX #$aa    A:ff X:b3 Y:ff P:a5 SP:fb
e879  a9 55      LDA #$55    A:ff X:aa Y:ff P:a5 SP:fb
e87b  24 01      BIT $01     A:55 X:aa Y:ff P:25 SP:fb
e87d  18         CLC         A:55 X:aa Y:ff P:e5 SP:fb
e87e  97 4a      SAX $4a,Y   A:55 X:aa Y:ff P:e4 SP:fb
e880  ea         NOP         A:55 X:aa Y:ff P:e4 SP:fb
e881  ea         NOP         A:55 X:aa Y:ff P:e4 SP:fb
e882  ea         NOP         A:55 X:aa Y:ff P:e4 SP:fb
e883  ea         NOP         A:55 X:aa Y:ff P:e4 SP:fb
e884  f0 18      BEQ $e89e   A:55 X:aa Y:ff P:e4 SP:fb
e886  b0 16      BCS $e89e   A:55 X:aa Y:ff P:e4 SP:fb
e888  50 14      BVC $e89e   A:55 X:aa Y:ff P:e4 SP:fb
e88a  10 12      BPL $e89e   A:55 X:aa Y:ff P:e4 SP:fb
e88c  c9 55      CMP #$55    A:55 X:aa Y:ff P:e4 SP:fb
e88e  d0 0e      BNE $e89e   A:55 X:aa Y:ff P:67 SP:fb
e890  c0 ff      CPY #$ff    A:55 X:aa Y:ff P:67 SP:fb
e892  d0 0a      BNE $e89e   A:55 X:aa Y:ff P:67 SP:fb
e894  e0 aa      CPX #$aa    A:55 X:aa Y:ff P:67 SP:fb
e896  d0 06      BNE $e89e   A:55 X:aa Y:ff P:67 SP:fb
e898  a5 49      LDA $49     A:55 X:aa Y:ff P:67 SP:fb
e89a  c9 00      CMP #$00    A:00 X:aa Y:ff P:67 SP:fb
e89c  f0 04      BEQ $e8a2   A:00 X:aa Y:ff P:67 SP:fb
e8a2  a9 00      LDA #$00    A:00 X:aa Y:ff P:67 SP:fb
e8a4  85 56      STA $56     A:00 X:aa Y:ff P:67 SP:fb
e8a6  a0 06      LDY #$06    A:00 X:aa Y:ff P:67 SP:fb
e8a8  a2 ef      LDX #$ef    A:00 X:aa Y:06 P:65 SP:fb
e8aa  a9 66      LDA #$66    A:00 X:ef Y:06 P:e5 SP:fb
e8ac  38         SEC         A:66 X:ef Y:06 P:65 SP:fb
e8ad  b8         CLV         A:66 X:ef Y:06 P:65 SP:fb
e8ae  97 50      SAX $50,Y   A:66 X:ef Y:06 P:25 SP:fb
e8b0  ea         NOP         A:66 X:ef Y:06 P:25 SP:fb
e8b1  ea         NOP         A:66 X:ef Y:06 P:25 SP:fb
e8b2  ea         NOP         A:66 X:ef Y:06 P:25 SP:fb
e8b3  ea         NOP         A:66 X:ef Y:06 P:25 SP:fb
e8b4  f0 18      BEQ $e8ce   A:66 X:ef Y:06 P:25 SP:fb
e8b6  90 16      BCC $e8ce   A:66 X:ef Y:06 P:25 SP:fb
e8b8  70 14      BVS $e8ce   A:66 X:ef Y:06 P:25 SP:fb
e8ba  30 12      BMI $e8ce   A:66 X:ef Y:06 P:25 SP:fb
e8bc  c9 66      CMP #$66    A:66 X:ef Y:06 P:25 SP:fb
e8be  d0 0e      BNE $e8ce   A:66 X:ef Y:06 P:27 SP:fb
e8c0  c0 06      CPY #$06    A:66 X:ef Y:06 P:27 SP:fb
e8c2  d0 0a      BNE $e8ce   A:66 X:ef Y:06 P:27 SP:fb
e8c4  e0 ef      CPX #$ef    A:66 X:ef Y:06 P:27 SP:fb
e8c6  d0 06      BNE $e8ce   A:66 X:ef Y:06 P:27 SP:fb
e8c8  a5 56      LDA $56     A:66 X:ef Y:06 P:27 SP:fb
e8ca  c9 66      CMP #$66    A:66 X:ef Y:06 P:25 SP:fb
e8cc  f0 04      BEQ $e8d2   A:66 X:ef Y:06 P:27 SP:fb
e8d2  60         RTS         A:66 X:ef Y:06 P:27 SP:fb
c638  20 d3 e8   JSR $e8d3   A:66 X:ef Y:06 P:27 SP:fd
e8d3  a0 90      LDY #$90    A:66 X:ef Y:06 P:27 SP:fb
e8d5  20 31 f9   JSR $f931   A:66 X:ef Y:90 P:a5 SP:fb
f931  24 01      BIT $01     A:66 X:ef Y:90 P:a5 SP:f9
f933  a9 40      LDA #$40    A:66 X:ef Y:90 P:e5 SP:f9
f935  38         SEC         A:40 X:ef Y:90 P:65 SP:f9
f936  60         RTS         A:40 X:ef Y:90 P:65 SP:f9
e8d8  eb 40      SBC #$40    A:40 X:ef Y:90 P:65 SP:fb
e8da  ea         NOP         A:00 X:ef Y:90 P:27 SP:fb
e8db  ea         NOP         A:00 X:ef Y:90 P:27 SP:fb
e8dc  ea         NOP         A:00 X:ef Y:90 P:27 SP:fb
e8dd  ea         NOP         A:00 X:ef Y:90 P:27 SP:fb
e8de  20 37 f9   JSR $f937   A:00 X:ef Y:90 P:27 SP:fb
f937  30 0b      BMI $f944   A:00 X:ef Y:90 P:27 SP:f9
f939  90 09      BCC $f944   A:00 X:ef Y:90 P:27 SP:f9
f93b  d0 07      BNE $f944   A:00 X:ef Y:90 P:27 SP:f9
f93d  70 05      BVS $f944   A:00 X:ef Y:90 P:27 SP:f9
f93f  c9 00      CMP #$00    A:00 X:ef Y:90 P:27 SP:f9
f941  d0 01      BNE $f944   A:00 X:ef Y:90 P:27 SP:f9
f943  60         RTS         A:00 X:ef Y:90 P:27 SP:f9
e8e1  c8         INY         A:00 X:ef Y:90 P:27 SP:fb
e8e2  20 47 f9   JSR $f947   A:00 X:ef Y:91 P:a5 SP:fb
f947  b8         CLV         A:00 X:ef Y:91 P:a5 SP:f9
f948  38         SEC         A:00 X:ef Y:91 P:a5 SP:f9
f949  a9 40      LDA #$40    A:00 X:ef Y:91 P:a5 SP:f9
f94b  60         RTS         A:40 X:ef Y:91 P:25 SP:f9
e8e5  eb 3f      SBC #$3f    A:40 X:ef Y:91 P:25 SP:fb
e8e7  ea         NOP         A:01 X:ef Y:91 P:25 SP:fb
e8e8  ea         NOP         A:01 X:ef Y:91 P:25 SP:fb
e8e9  ea         NOP         A:01 X:ef Y:91 P:25 SP:fb
e8ea  ea         NOP         A:01 X:ef Y:91 P:25 SP:fb
e8eb  20 4c f9   JSR $f94c   A:01 X:ef Y:91 P:25 SP:fb
f94c  f0 0b      BEQ $f959   A:01 X:ef Y:91 P:25 SP:f9
f94e  30 09      BMI $f959   A:01 X:ef Y:91 P:25 SP:f9
f950  90 07      BCC $f959   A:01 X:ef Y:91 P:25 SP:f9
f952  70 05      BVS $f959   A:01 X:ef Y:91 P:25 SP:f9
f954  c9 01      CMP #$01    A:01 X:ef Y:91 P:25 SP:f9
f956  d0 01      BNE $f959   A:01 X:ef Y:91 P:27 SP:f9
f958  60         RTS         A:01 X:ef Y:91 P:27 SP:f9
e8ee  c8         INY         A:01 X:ef Y:91 P:27 SP:fb
e8ef  20 5c f9   JSR $f95c   A:01 X:ef Y:92 P:a5 SP:fb
f95c  a9 40      LDA #$40    A:01 X:ef Y:92 P:a5 SP:f9
f95e  38         SEC         A:40 X:ef Y:92 P:25 SP:f9
f95f  24 01      BIT $01     A:40 X:ef Y:92 P:25 SP:f9
f961  60         RTS         A:40 X:ef Y:92 P:e5 SP:f9
e8f2  eb 41      SBC #$41    A:40 X:ef Y:92 P:e5 SP:fb
e8f4  ea         NOP         A:ff X:ef Y:92 P:a4 SP:fb
e8f5  ea         NOP         A:ff X:ef Y:92 P:a4 SP:fb
e8f6  ea         NOP         A:ff X:ef Y:92 P:a4 SP:fb
e8f7  ea         NOP         A:ff X:ef Y:92 P:a4 SP:fb
e8f8  20 62 f9   JSR $f962   A:ff X:ef Y:92 P:a4 SP:fb
f962  b0 0b      BCS $f96f   A:ff X:ef Y:92 P:a4 SP:f9
f964  f0 09      BEQ $f96f   A:ff X:ef Y:92 P:a4 SP:f9
f966  10 07      BPL $f96f   A:ff X:ef Y:92 P:a4 SP:f9
f968  70 05      BVS $f96f   A:ff X:ef Y:92 P:a4 SP:f9
f96a  c9 ff      CMP #$ff    A:ff X:ef Y:92 P:a4 SP:f9
f96c  d0 01      BNE $f96f   A:ff X:ef Y:92 P:27 SP:f9
f96e  60         RTS         A:ff X:ef Y:92 P:27 SP:f9
e8fb  c8         INY         A:ff X:ef Y:92 P:27 SP:fb
e8fc  20 72 f9   JSR $f972   A:ff X:ef Y:93 P:a5 SP:fb
f972  18         CLC         A:ff X:ef Y:93 P:a5 SP:f9
f973  a9 80      LDA #$80    A:ff X:ef Y:93 P:a4 SP:f9
f975  60         RTS         A:80 X:ef Y:93 P:a4 SP:f9
e8ff  eb 00      SBC #$00    A:80 X:ef Y:93 P:a4 SP:fb
e901  ea         NOP         A:7f X:ef Y:93 P:65 SP:fb
e902  ea         NOP         A:7f X:ef Y:93 P:65 SP:fb
e903  ea         NOP         A:7f X:ef Y:93 P:65 SP:fb
e904  ea         NOP         A:7f X:ef Y:93 P:65 SP:fb
e905  20 76 f9   JSR $f976   A:7f X:ef Y:93 P:65 SP:fb
f976  90 05      BCC $f97d   A:7f X:ef Y:93 P:65 SP:f9
f978  c9 7f      CMP #$7f    A:7f X:ef Y:93 P:65 SP:f9
f97a  d0 01      BNE $f97d   A:7f X:ef Y:93 P:67 SP:f9
f97c  60         RTS         A:7f X:ef Y:93 P:67 SP:f9
e908  c8         INY         A:7f X:ef Y:93 P:67 SP:fb
e909  20 80 f9   JSR $f980   A:7f X:ef Y:94 P:e5 SP:fb
f980  38         SEC         A:7f X:ef Y:94 P:e5 SP:f9
f981  a9 81      LDA #$81    A:7f X:ef Y:94 P:e5 SP:f9
f983  60         RTS         A:81 X:ef Y:94 P:e5 SP:f9
e90c  eb 7f      SBC #$7f    A:81 X:ef Y:94 P:e5 SP:fb
e90e  ea         NOP         A:02 X:ef Y:94 P:65 SP:fb
e90f  ea         NOP         A:02 X:ef Y:94 P:65 SP:fb
e910  ea         NOP         A:02 X:ef Y:94 P:65 SP:fb
e911  ea         NOP         A:02 X:ef Y:94 P:65 SP:fb
e912  20 84 f9   JSR $f984   A:02 X:ef Y:94 P:65 SP:fb
f984  50 07      BVC $f98d   A:02 X:ef Y:94 P:65 SP:f9
f986  90 05      BCC $f98d   A:02 X:ef Y:94 P:65 SP:f9
f988  c9 02      CMP #$02    A:02 X:ef Y:94 P:65 SP:f9
f98a  d0 01      BNE $f98d   A:02 X:ef Y:94 P:67 SP:f9
f98c  60         RTS         A:02 X:ef Y:94 P:67 SP:f9
e915  60         RTS         A:02 X:ef Y:94 P:67 SP:fb
c63b  20 16 e9   JSR $e916   A:02 X:ef Y:94 P:67 SP:fd
e916  a9 ff      LDA #$ff    A:02 X:ef Y:94 P:67 SP:fb
e918  85 01      STA $01     A:ff X:ef Y:94 P:e5 SP:fb
e91a  a0 95      LDY #$95    A:ff X:ef Y:94 P:e5 SP:fb
e91c  a2 02      LDX #$02    A:ff X:ef Y:95 P:e5 SP:fb
e91e  a9 47      LDA #$47    A:ff X:02 Y:95 P:65 SP:fb
e920  85 47      STA $47     A:47 X:02 Y:95 P:65 SP:fb
e922  a9 06      LDA #$06    A:47 X:02 Y:95 P:65 SP:fb
e924  85 48      STA $48     A:06 X:02 Y:95 P:65 SP:fb
e926  a9 eb      LDA #$eb    A:06 X:02 Y:95 P:65 SP:fb
e928  8d 47 06   STA $0647   A:eb X:02 Y:95 P:e5 SP:fb
e92b  20 31 fa   JSR $fa31   A:eb X:02 Y:95 P:e5 SP:fb
fa31  24 01      BIT $01     A:eb X:02 Y:95 P:e5 SP:f9
fa33  18         CLC         A:eb X:02 Y:95 P:e5 SP:f9
fa34  a9 40      LDA #$40    A:eb X:02 Y:95 P:e4 SP:f9
fa36  60         RTS         A:40 X:02 Y:95 P:64 SP:f9
e92e  c3 45      DCP ($45,X) A:40 X:02 Y:95 P:64 SP:fb
e930  ea         NOP         A:40 X:02 Y:95 P:64 SP:fb
e931  ea         NOP         A:40 X:02 Y:95 P:64 SP:fb
e932  ea         NOP         A:40 X:02 Y:95 P:64 SP:fb
e933  ea         NOP         A:40 X:02 Y:95 P:64 SP:fb
e934  20 37 fa   JSR $fa37   A:40 X:02 Y:95 P:64 SP:fb
fa37  50 2c      BVC $fa65   A:40 X:02 Y:95 P:64 SP:f9
fa39  b0 2a      BCS $fa65   A:40 X:02 Y:95 P:64 SP:f9
fa3b  30 28      BMI $fa65   A:40 X:02 Y:95 P:64 SP:f9
fa3d  c9 40      CMP #$40    A:40 X:02 Y:95 P:64 SP:f9
fa3f  d0 24      BNE $fa65   A:40 X:02 Y:95 P:67 SP:f9
fa41  60         RTS         A:40 X:02 Y:95 P:67 SP:f9
e937  ad 47 06   LDA $0647   A:40 X:02 Y:95 P:67 SP:fb
e93a  c9 ea      CMP #$ea    A:ea X:02 Y:95 P:e5 SP:fb
e93c  f0 02      BEQ $e940   A:ea X:02 Y:95 P:67 SP:fb
e940  c8         INY         A:ea X:02 Y:95 P:67 SP:fb
e941  a9 00      LDA #$00    A:ea X:02 Y:96 P:e5 SP:fb
e943  8d 47 06   STA $0647   A:00 X:02 Y:96 P:67 SP:fb
e946  20 42 fa   JSR $fa42   A:00 X:02 Y:96 P:67 SP:fb
fa42  b8         CLV         A:00 X:02 Y:96 P:67 SP:f9
fa43  38         SEC         A:00 X:02 Y:96 P:27 SP:f9
fa44  a9 ff      LDA #$ff    A:00 X:02 Y:96 P:27 SP:f9
fa46  60         RTS         A:ff X:02 Y:96 P:a5 SP:f9
e949  c3 45      DCP ($45,X) A:ff X:02 Y:96 P:a5 SP:fb
e94b  ea         NOP         A:ff X:02 Y:96 P:27 SP:fb
e94c  ea         NOP         A:ff X:02 Y:96 P:27 SP:fb
e94d  ea         NOP         A:ff X:02 Y:96 P:27 SP:fb
e94e  ea         NOP         A:ff X:02 Y:96 P:27 SP:fb
e94f  20 47 fa   JSR $fa47   A:ff X:02 Y:96 P:27 SP:fb
fa47  70 1c      BVS $fa65   A:ff X:02 Y:96 P:27 SP:f9
fa49  d0 1a      BNE $fa65   A:ff X:02 Y:96 P:27 SP:f9
fa4b  30 18      BMI $fa65   A:ff X:02 Y:96 P:27 SP:f9
fa4d  90 16      BCC $fa65   A:ff X:02 Y:96 P:27 SP:f9
fa4f  c9 ff      CMP #$ff    A:ff X:02 Y:96 P:27 SP:f9
fa51  d0 12      BNE $fa65   A:ff X:02 Y:96 P:27 SP:f9
fa53  60         RTS         A:ff X:02 Y:96 P:27 SP:f9
e952  ad 47 06   LDA $0647   A:ff X:02 Y:96 P:27 SP:fb
e955  c9 ff      CMP #$ff    A:ff X:02 Y:96 P:a5 SP:fb
e957  f0 02      BEQ $e95b   A:ff X:02 Y:96 P:27 SP:fb
e95b  c8         INY         A:ff X:02 Y:96 P:27 SP:fb
e95c  a9 37      LDA #$37    A:ff X:02 Y:97 P:a5 SP:fb
e95e  8d 47 06   STA $0647   A:37 X:02 Y:97 P:25 SP:fb
e961  20 54 fa   JSR $fa54   A:37 X:02 Y:97 P:25 SP:fb
fa54  24 01      BIT $01     A:37 X:02 Y:97 P:25 SP:f9
fa56  a9 f0      LDA #$f0    A:37 X:02 Y:97 P:e5 SP:f9
fa58  60         RTS         A:f0 X:02 Y:97 P:e5 SP:f9
e964  c3 45      DCP ($45,X) A:f0 X:02 Y:97 P:e5 SP:fb
e966  ea         NOP         A:f0 X:02 Y:97 P:e5 SP:fb
e967  ea         NOP         A:f0 X:02 Y:97 P:e5 SP:fb
e968  ea         NOP         A:f0 X:02 Y:97 P:e5 SP:fb
e969  ea         NOP         A:f0 X:02 Y:97 P:e5 SP:fb
e96a  20 59 fa   JSR $fa59   A:f0 X:02 Y:97 P:e5 SP:fb
fa59  50 0a      BVC $fa65   A:f0 X:02 Y:97 P:e5 SP:f9
fa5b  f0 08      BEQ $fa65   A:f0 X:02 Y:97 P:e5 SP:f9
fa5d  10 06      BPL $fa65   A:f0 X:02 Y:97 P:e5 SP:f9
fa5f  90 04      BCC $fa65   A:f0 X:02 Y:97 P:e5 SP:f9
fa61  c9 f0      CMP #$f0    A:f0 X:02 Y:97 P:e5 SP:f9
fa63  f0 02      BEQ $fa67   A:f0 X:02 Y:97 P:67 SP:f9
fa67  60         RTS         A:f0 X:02 Y:97 P:67 SP:f9
e96d  ad 47 06   LDA $0647   A:f0 X:02 Y:97 P:67 SP:fb
e970  c9 36      CMP #$36    A:36 X:02 Y:97 P:65 SP:fb
e972  f0 02      BEQ $e976   A:36 X:02 Y:97 P:67 SP:fb
e976  c8         INY         A:36 X:02 Y:97 P:67 SP:fb
e977  a9 eb      LDA #$eb    A:36 X:02 Y:98 P:e5 SP:fb
e979  85 47      STA $47     A:eb X:02 Y:98 P:e5 SP:fb
e97b  20 31 fa   JSR $fa31   A:eb X:02 Y:98 P:e5 SP:fb
fa31  24 01      BIT $01     A:eb X:02 Y:98 P:e5 SP:f9
fa33  18         CLC         A:eb X:02 Y:98 P:e5 SP:f9
fa34  a9 40      LDA #$40    A:eb X:02 Y:98 P:e4 SP:f9
fa36  60         RTS         A:40 X:02 Y:98 P:64 SP:f9
e97e  c7 47      DCP $47     A:40 X:02 Y:98 P:64 SP:fb
e980  ea         NOP         A:40 X:02 Y:98 P:64 SP:fb
e981  ea         NOP         A:40 X:02 Y:98 P:64 SP:fb
e982  ea         NOP         A:40 X:02 Y:98 P:64 SP:fb
e983  ea         NOP         A:40 X:02 Y:98 P:64 SP:fb
e984  20 37 fa   JSR $fa37   A:40 X:02 Y:98 P:64 SP:fb
fa37  50 2c      BVC $fa65   A:40 X:02 Y:98 P:64 SP:f9
fa39  b0 2a      BCS $fa65   A:40 X:02 Y:98 P:64 SP:f9
fa3b  30 28      BMI $fa65   A:40 X:02 Y:98 P:64 SP:f9
fa3d  c9 40      CMP #$40    A:40 X:02 Y:98 P:64 SP:f9
fa3f  d0 24      BNE $fa65   A:40 X:02 Y:98 P:67 SP:f9
fa41  60         RTS         A:40 X:02 Y:98 P:67 SP:f9
e987  a5 47      LDA $47     A:40 X:02 Y:98 P:67 SP:fb
e989  c9 ea      CMP #$ea    A:ea X:02 Y:98 P:e5 SP:fb
e98b  f0 02      BEQ $e98f   A:ea X:02 Y:98 P:67 SP:fb
e98f  c8         INY         A:ea X:02 Y:98 P:67 SP:fb
e990  a9 00      LDA #$00    A:ea X:02 Y:99 P:e5 SP:fb
e992  85 47      STA $47     A:00 X:02 Y:99 P:67 SP:fb
e994  20 42 fa   JSR $fa42   A:00 X:02 Y:99 P:67 SP:fb
fa42  b8         CLV         A:00 X:02 Y:99 P:67 SP:f9
fa43  38         SEC         A:00 X:02 Y:99 P:27 SP:f9
fa44  a9 ff      LDA #$ff    A:00 X:02 Y:99 P:27 SP:f9
fa46  60         RTS         A:ff X:02 Y:99 P:a5 SP:f9
e997  c7 47      DCP $47     A:ff X:02 Y:99 P:a5 SP:fb
e999  ea         NOP         A:ff X:02 Y:99 P:27 SP:fb
e99a  ea         NOP         A:ff X:02 Y:99 P:27 SP:fb
e99b  ea         NOP         A:ff X:02 Y:99 P:27 SP:fb
e99c  ea         NOP         A:ff X:02 Y:99 P:27 SP:fb
e99d  20 47 fa   JSR $fa47   A:ff X:02 Y:99 P:27 SP:fb
fa47  70 1c      BVS $fa65   A:ff X:02 Y:99 P:27 SP:f9
fa49  d0 1a      BNE $fa65   A:ff X:02 Y:99 P:27 SP:f9
fa4b  30 18      BMI $fa65   A:ff X:02 Y:99 P:27 SP:f9
fa4d  90 16      BCC $fa65   A:ff X:02 Y:99 P:27 SP:f9
fa4f  c9 ff      CMP #$ff    A:ff X:02 Y:99 P:27 SP:f9
fa51  d0 12      BNE $fa65   A:ff X:02 Y:99 P:27 SP:f9
fa53  60         RTS         A:ff X:02 Y:99 P:27 SP:f9
e9a0  a5 47      LDA $47     A:ff X:02 Y:99 P:27 SP:fb
e9a2  c9 ff      CMP #$ff    A:ff X:02 Y:99 P:a5 SP:fb
e9a4  f0 02      BEQ $e9a8   A:ff X:02 Y:99 P:27 SP:fb
e9a8  c8         INY         A:ff X:02 Y:99 P:27 SP:fb
e9a9  a9 37      LDA #$37    A:ff X:02 Y:9a P:a5 SP:fb
e9ab  85 47      STA $47     A:37 X:02 Y:9a P:25 SP:fb
e9ad  20 54 fa   JSR $fa54   A:37 X:02 Y:9a P:25 SP:fb
fa54  24 01      BIT $01     A:37 X:02 Y:9a P:25 SP:f9
fa56  a9 f0      LDA #$f0    A:37 X:02 Y:9a P:e5 SP:f9
fa58  60         RTS         A:f0 X:02 Y:9a P:e5 SP:f9
e9b0  c7 47      DCP $47     A:f0 X:02 Y:9a P:e5 SP:fb
e9b2  ea         NOP         A:f0 X:02 Y:9a P:e5 SP:fb
e9b3  ea         NOP         A:f0 X:02 Y:9a P:e5 SP:fb
e9b4  ea         NOP         A:f0 X:02 Y:9a P:e5 SP:fb
e9b5  ea         NOP         A:f0 X:02 Y:9a P:e5 SP:fb
e9b6  20 59 fa   JSR $fa59   A:f0 X:02 Y:9a P:e5 SP:fb
fa59  50 0a      BVC $fa65   A:f0 X:02 Y:9a P:e5 SP:f9
fa5b  f0 08      BEQ $fa65   A:f0 X:02 Y:9a P:e5 SP:f9
fa5d  10 06      BPL $fa65   A:f0 X:02 Y:9a P:e5 SP:f9
fa5f  90 04      BCC $fa65   A:f0 X:02 Y:9a P:e5 SP:f9
fa61  c9 f0      CMP #$f0    A:f0 X:02 Y:9a P:e5 SP:f9
fa63  f0 02      BEQ $fa67   A:f0 X:02 Y:9a P:67 SP:f9
fa67  60         RTS         A:f0 X:02 Y:9a P:67 SP:f9
e9b9  a5 47      LDA $47     A:f0 X:02 Y:9a P:67 SP:fb
e9bb  c9 36      CMP #$36    A:36 X:02 Y:9a P:65 SP:fb
e9bd  f0 02      BEQ $e9c1   A:36 X:02 Y:9a P:67 SP:fb
e9c1  c8         INY         A:36 X:02 Y:9a P:67 SP:fb
e9c2  a9 eb      LDA #$eb    A:36 X:02 Y:9b P:e5 SP:fb
e9c4  8d 47 06   STA $0647   A:eb X:02 Y:9b P:e5 SP:fb
e9c7  20 31 fa   JSR $fa31   A:eb X:02 Y:9b P:e5 SP:fb
fa31  24 01      BIT $01     A:eb X:02 Y:9b P:e5 SP:f9
fa33  18         CLC         A:eb X:02 Y:9b P:e5 SP:f9
fa34  a9 40      LDA #$40    A:eb X:02 Y:9b P:e4 SP:f9
fa36  60         RTS         A:40 X:02 Y:9b P:64 SP:f9
e9ca  cf 47 06   DCP $0647   A:40 X:02 Y:9b P:64 SP:fb
e9cd  ea         NOP         A:40 X:02 Y:9b P:64 SP:fb
e9ce  ea         NOP         A:40 X:02 Y:9b P:64 SP:fb
e9cf  ea         NOP         A:40 X:02 Y:9b P:64 SP:fb
e9d0  ea         NOP         A:40 X:02 Y:9b P:64 SP:fb
e9d1  20 37 fa   JSR $fa37   A:40 X:02 Y:9b P:64 SP:fb
fa37  50 2c      BVC $fa65   A:40 X:02 Y:9b P:64 SP:f9
fa39  b0 2a      BCS $fa65   A:40 X:02 Y:9b P:64 SP:f9
fa3b  30 28      BMI $fa65   A:40 X:02 Y:9b P:64 SP:f9
fa3d  c9 40      CMP #$40    A:40 X:02 Y:9b P:64 SP:f9
fa3f  d0 24      BNE $fa65   A:40 X:02 Y:9b P:67 SP:f9
fa41  60         RTS         A:40 X:02 Y:9b P:67 SP:f9
e9d4  ad 47 06   LDA $0647   A:40 X:02 Y:9b P:67 SP:fb
e9d7  c9 ea      CMP #$ea    A:ea X:02 Y:9b P:e5 SP:fb
e9d9  f0 02      BEQ $e9dd   A:ea X:02 Y:9b P:67 SP:fb
e9dd  c8         INY         A:ea X:02 Y:9b P:67 SP:fb
e9de  a9 00      LDA #$00    A:ea X:02 Y:9c P:e5 SP:fb
e9e0  8d 47 06   STA $0647   A:00 X:02 Y:9c P:67 SP:fb
e9e3  20 42 fa   JSR $fa42   A:00 X:02 Y:9c P:67 SP:fb
fa42  b8         CLV         A:00 X:02 Y:9c P:67 SP:f9
fa43  38         SEC         A:00 X:02 Y:9c P:27 SP:f9
fa44  a9 ff      LDA #$ff    A:00 X:02 Y:9c P:27 SP:f9
fa46  60         RTS         A:ff X:02 Y:9c P:a5 SP:f9
e9e6  cf 47 06   DCP $0647   A:ff X:02 Y:9c P:a5 SP:fb
e9e9  ea         NOP         A:ff X:02 Y:9c P:27 SP:fb
e9ea  ea         NOP         A:ff X:02 Y:9c P:27 SP:fb
e9eb  ea         NOP         A:ff X:02 Y:9c P:27 SP:fb
e9ec  ea         NOP         A:ff X:02 Y:9c P:27 SP:fb
e9ed  20 47 fa   JSR $fa47   A:ff X:02 Y:9c P:27 SP:fb
fa47  70 1c      BVS $fa65   A:ff X:02 Y:9c P:27 SP:f9
fa49  d0 1a      BNE $fa65   A:ff X:02 Y:9c P:27 SP:f9
fa4b  30 18      BMI $fa65   A:ff X:02 Y:9c P:27 SP:f9
fa4d  90 16      BCC $fa65   A:ff X:02 Y:9c P:27 SP:f9
fa4f  c9 ff      CMP #$ff    A:ff X:02 Y:9c P:27 SP:f9
fa51  d0 12      BNE $fa65   A:ff X:02 Y:9c P:27 SP:f9
fa53  60         RTS         A:ff X:02 Y:9c P:27 SP:f9
e9f0  ad 47 06   LDA $0647   A:ff X:02 Y:9c P:27 SP:fb
e9f3  c9 ff      CMP #$ff    A:ff X:02 Y:9c P:a5 SP:fb
e9f5  f0 02      BEQ $e9f9   A:ff X:02 Y:9c P:27 SP:fb
e9f9  c8         INY         A:ff X:02 Y:9c P:27 SP:fb
e9fa  a9 37      LDA #$37    A:ff X:02 Y:9d P:a5 SP:fb
e9fc  8d 47 06   STA $0647   A:37 X:02 Y:9d P:25 SP:fb
e9ff  20 54 fa   JSR $fa54   A:37 X:02 Y:9d P:25 SP:fb
fa54  24 01      BIT $01     A:37 X:02 Y:9d P:25 SP:f9
fa56  a9 f0      LDA #$f0    A:37 X:02 Y:9d P:e5 SP:f9
fa58  60         RTS         A:f0 X:02 Y:9d P:e5 SP:f9
ea02  cf 47 06   DCP $0647   A:f0 X:02 Y:9d P:e5 SP:fb
ea05  ea         NOP         A:f0 X:02 Y:9d P:e5 SP:fb
ea06  ea         NOP         A:f0 X:02 Y:9d P:e5 SP:fb
ea07  ea         NOP         A:f0 X:02 Y:9d P:e5 SP:fb
ea08  ea         NOP         A:f0 X:02 Y:9d P:e5 SP:fb
ea09  20 59 fa   JSR $fa59   A:f0 X:02 Y:9d P:e5 SP:fb
fa59  50 0a      BVC $fa65   A:f0 X:02 Y:9d P:e5 SP:f9
fa5b  f0 08      BEQ $fa65   A:f0 X:02 Y:9d P:e5 SP:f9
fa5d  10 06      BPL $fa65   A:f0 X:02 Y:9d P:e5 SP:f9
fa5f  90 04      BCC $fa65   A:f0 X:02 Y:9d P:e5 SP:f9
fa61  c9 f0      CMP #$f0    A:f0 X:02 Y:9d P:e5 SP:f9
fa63  f0 02      BEQ $fa67   A:f0 X:02 Y:9d P:67 SP:f9
fa67  60         RTS         A:f0 X:02 Y:9d P:67 SP:f9
ea0c  ad 47 06   LDA $0647   A:f0 X:02 Y:9d P:67 SP:fb
ea0f  c9 36      CMP #$36    A:36 X:02 Y:9d P:65 SP:fb
ea11  f0 02      BEQ $ea15   A:36 X:02 Y:9d P:67 SP:fb
ea15  a9 eb      LDA #$eb    A:36 X:02 Y:9d P:67 SP:fb
ea17  8d 47 06   STA $0647   A:eb X:02 Y:9d P:e5 SP:fb
ea1a  a9 48      LDA #$48    A:eb X:02 Y:9d P:e5 SP:fb
ea1c  85 45      STA $45     A:48 X:02 Y:9d P:65 SP:fb
ea1e  a9 05      LDA #$05    A:48 X:02 Y:9d P:65 SP:fb
ea20  85 46      STA $46     A:05 X:02 Y:9d P:65 SP:fb
ea22  a0 ff      LDY #$ff    A:05 X:02 Y:9d P:65 SP:fb
ea24  20 31 fa   JSR $fa31   A:05 X:02 Y:ff P:e5 SP:fb
fa31  24 01      BIT $01     A:05 X:02 Y:ff P:e5 SP:f9
fa33  18         CLC         A:05 X:02 Y:ff P:e5 SP:f9
fa34  a9 40      LDA #$40    A:05 X:02 Y:ff P:e4 SP:f9
fa36  60         RTS         A:40 X:02 Y:ff P:64 SP:f9
ea27  d3 45      DCP ($45),Y A:40 X:02 Y:ff P:64 SP:fb
ea29  ea         NOP         A:40 X:02 Y:ff P:64 SP:fb
ea2a  ea         NOP         A:40 X:02 Y:ff P:64 SP:fb
ea2b  08         PHP         A:40 X:02 Y:ff P:64 SP:fb
ea2c  48         PHA         A:40 X:02 Y:ff P:64 SP:fa
ea2d  a0 9e      LDY #$9e    A:40 X:02 Y:ff P:64 SP:f9
ea2f  68         PLA         A:40 X:02 Y:9e P:e4 SP:f9
ea30  28         PLP         A:40 X:02 Y:9e P:64 SP:fa
ea31  20 37 fa   JSR $fa37   A:40 X:02 Y:9e P:64 SP:fb
fa37  50 2c      BVC $fa65   A:40 X:02 Y:9e P:64 SP:f9
fa39  b0 2a      BCS $fa65   A:40 X:02 Y:9e P:64 SP:f9
fa3b  30 28      BMI $fa65   A:40 X:02 Y:9e P:64 SP:f9
fa3d  c9 40      CMP #$40    A:40 X:02 Y:9e P:64 SP:f9
fa3f  d0 24      BNE $fa65   A:40 X:02 Y:9e P:67 SP:f9
fa41  60         RTS         A:40 X:02 Y:9e P:67 SP:f9
ea34  ad 47 06   LDA $0647   A:40 X:02 Y:9e P:67 SP:fb
ea37  c9 ea      CMP #$ea    A:ea X:02 Y:9e P:e5 SP:fb
ea39  f0 02      BEQ $ea3d   A:ea X:02 Y:9e P:67 SP:fb
ea3d  a0 ff      LDY #$ff    A:ea X:02 Y:9e P:67 SP:fb
ea3f  a9 00      LDA #$00    A:ea X:02 Y:ff P:e5 SP:fb
ea41  8d 47 06   STA $0647   A:00 X:02 Y:ff P:67 SP:fb
ea44  20 42 fa   JSR $fa42   A:00 X:02 Y:ff P:67 SP:fb
fa42  b8         CLV         A:00 X:02 Y:ff P:67 SP:f9
fa43  38         SEC         A:00 X:02 Y:ff P:27 SP:f9
fa44  a9 ff      LDA #$ff    A:00 X:02 Y:ff P:27 SP:f9
fa46  60         RTS         A:ff X:02 Y:ff P:a5 SP:f9
ea47  d3 45      DCP ($45),Y A:ff X:02 Y:ff P:a5 SP:fb
ea49  ea         NOP         A:ff X:02 Y:ff P:27 SP:fb
ea4a  ea         NOP         A:ff X:02 Y:ff P:27 SP:fb
ea4b  08         PHP         A:ff X:02 Y:ff P:27 SP:fb
ea4c  48         PHA         A:ff X:02 Y:ff P:27 SP:fa
ea4d  a0 9f      LDY #$9f    A:ff X:02 Y:ff P:27 SP:f9
ea4f  68         PLA         A:ff X:02 Y:9f P:a5 SP:f9
ea50  28         PLP         A:ff X:02 Y:9f P:a5 SP:fa
ea51  20 47 fa   JSR $fa47   A:ff X:02 Y:9f P:27 SP:fb
fa47  70 1c      BVS $fa65   A:ff X:02 Y:9f P:27 SP:f9
fa49  d0 1a      BNE $fa65   A:ff X:02 Y:9f P:27 SP:f9
fa4b  30 18      BMI $fa65   A:ff X:02 Y:9f P:27 SP:f9
fa4d  90 16      BCC $fa65   A:ff X:02 Y:9f P:27 SP:f9
fa4f  c9 ff      CMP #$ff    A:ff X:02 Y:9f P:27 SP:f9
fa51  d0 12      BNE $fa65   A:ff X:02 Y:9f P:27 SP:f9
fa53  60         RTS         A:ff X:02 Y:9f P:27 SP:f9
ea54  ad 47 06   LDA $0647   A:ff X:02 Y:9f P:27 SP:fb
ea57  c9 ff      CMP #$ff    A:ff X:02 Y:9f P:a5 SP:fb
ea59  f0 02      BEQ $ea5d   A:ff X:02 Y:9f P:27 SP:fb
ea5d  a0 ff      LDY #$ff    A:ff X:02 Y:9f P:27 SP:fb
ea5f  a9 37      LDA #$37    A:ff X:02 Y:ff P:a5 SP:fb
ea61  8d 47 06   STA $0647   A:37 X:02 Y:ff P:25 SP:fb
ea64  20 54 fa   JSR $fa54   A:37 X:02 Y:ff P:25 SP:fb
fa54  24 01      BIT $01     A:37 X:02 Y:ff P:25 SP:f9
fa56  a9 f0      LDA #$f0    A:37 X:02 Y:ff P:e5 SP:f9
fa58  60         RTS         A:f0 X:02 Y:ff P:e5 SP:f9
ea67  d3 45      DCP ($45),Y A:f0 X:02 Y:ff P:e5 SP:fb
ea69  ea         NOP         A:f0 X:02 Y:ff P:e5 SP:fb
ea6a  ea         NOP         A:f0 X:02 Y:ff P:e5 SP:fb
ea6b  08         PHP         A:f0 X:02 Y:ff P:e5 SP:fb
ea6c  48         PHA         A:f0 X:02 Y:ff P:e5 SP:fa
ea6d  a0 a0      LDY #$a0    A:f0 X:02 Y:ff P:e5 SP:f9
ea6f  68         PLA         A:f0 X:02 Y:a0 P:e5 SP:f9
ea70  28         PLP         A:f0 X:02 Y:a0 P:e5 SP:fa
ea71  20 59 fa   JSR $fa59   A:f0 X:02 Y:a0 P:e5 SP:fb
fa59  50 0a      BVC $fa65   A:f0 X:02 Y:a0 P:e5 SP:f9
fa5b  f0 08      BEQ $fa65   A:f0 X:02 Y:a0 P:e5 SP:f9
fa5d  10 06      BPL $fa65   A:f0 X:02 Y:a0 P:e5 SP:f9
fa5f  90 04      BCC $fa65   A:f0 X:02 Y:a0 P:e5 SP:f9
fa61  c9 f0      CMP #$f0    A:f0 X:02 Y:a0 P:e5 SP:f9
fa63  f0 02      BEQ $fa67   A:f0 X:02 Y:a0 P:67 SP:f9
fa67  60         RTS         A:f0 X:02 Y:a0 P:67 SP:f9
ea74  ad 47 06   LDA $0647   A:f0 X:02 Y:a0 P:67 SP:fb
ea77  c9 36      CMP #$36    A:36 X:02 Y:a0 P:65 SP:fb
ea79  f0 02      BEQ $ea7d   A:36 X:02 Y:a0 P:67 SP:fb
ea7d  a0 a1      LDY #$a1    A:36 X:02 Y:a0 P:67 SP:fb
ea7f  a2 ff      LDX #$ff    A:36 X:02 Y:a1 P:e5 SP:fb
ea81  a9 eb      LDA #$eb    A:36 X:ff Y:a1 P:e5 SP:fb
ea83  85 47      STA $47     A:eb X:ff Y:a1 P:e5 SP:fb
ea85  20 31 fa   JSR $fa31   A:eb X:ff Y:a1 P:e5 SP:fb
fa31  24 01      BIT $01     A:eb X:ff Y:a1 P:e5 SP:f9
fa33  18         CLC         A:eb X:ff Y:a1 P:e5 SP:f9
fa34  a9 40      LDA #$40    A:eb X:ff Y:a1 P:e4 SP:f9
fa36  60         RTS         A:40 X:ff Y:a1 P:64 SP:f9
ea88  d7 48      DCP $48,X   A:40 X:ff Y:a1 P:64 SP:fb
ea8a  ea         NOP         A:40 X:ff Y:a1 P:64 SP:fb
ea8b  ea         NOP         A:40 X:ff Y:a1 P:64 SP:fb
ea8c  ea         NOP         A:40 X:ff Y:a1 P:64 SP:fb
ea8d  ea         NOP         A:40 X:ff Y:a1 P:64 SP:fb
ea8e  20 37 fa   JSR $fa37   A:40 X:ff Y:a1 P:64 SP:fb
fa37  50 2c      BVC $fa65   A:40 X:ff Y:a1 P:64 SP:f9
fa39  b0 2a      BCS $fa65   A:40 X:ff Y:a1 P:64 SP:f9
fa3b  30 28      BMI $fa65   A:40 X:ff Y:a1 P:64 SP:f9
fa3d  c9 40      CMP #$40    A:40 X:ff Y:a1 P:64 SP:f9
fa3f  d0 24      BNE $fa65   A:40 X:ff Y:a1 P:67 SP:f9
fa41  60         RTS         A:40 X:ff Y:a1 P:67 SP:f9
ea91  a5 47      LDA $47     A:40 X:ff Y:a1 P:67 SP:fb
ea93  c9 ea      CMP #$ea    A:ea X:ff Y:a1 P:e5 SP:fb
ea95  f0 02      BEQ $ea99   A:ea X:ff Y:a1 P:67 SP:fb
ea99  c8         INY         A:ea X:ff Y:a1 P:67 SP:fb
ea9a  a9 00      LDA #$00    A:ea X:ff Y:a2 P:e5 SP:fb
ea9c  85 47      STA $47     A:00 X:ff Y:a2 P:67 SP:fb
ea9e  20 42 fa   JSR $fa42   A:00 X:ff Y:a2 P:67 SP:fb
fa42  b8         CLV         A:00 X:ff Y:a2 P:67 SP:f9
fa43  38         SEC         A:00 X:ff Y:a2 P:27 SP:f9
fa44  a9 ff      LDA #$ff    A:00 X:ff Y:a2 P:27 SP:f9
fa46  60         RTS         A:ff X:ff Y:a2 P:a5 SP:f9
eaa1  d7 48      DCP $48,X   A:ff X:ff Y:a2 P:a5 SP:fb
eaa3  ea         NOP         A:ff X:ff Y:a2 P:27 SP:fb
eaa4  ea         NOP         A:ff X:ff Y:a2 P:27 SP:fb
eaa5  ea         NOP         A:ff X:ff Y:a2 P:27 SP:fb
eaa6  ea         NOP         A:ff X:ff Y:a2 P:27 SP:fb
eaa7  20 47 fa   JSR $fa47   A:ff X:ff Y:a2 P:27 SP:fb
fa47  70 1c      BVS $fa65   A:ff X:ff Y:a2 P:27 SP:f9
fa49  d0 1a      BNE $fa65   A:ff X:ff Y:a2 P:27 SP:f9
fa4b  30 18      BMI $fa65   A:ff X:ff Y:a2 P:27 SP:f9
fa4d  90 16      BCC $fa65   A:ff X:ff Y:a2 P:27 SP:f9
fa4f  c9 ff      CMP #$ff    A:ff X:ff Y:a2 P:27 SP:f9
fa51  d0 12      BNE $fa65   A:ff X:ff Y:a2 P:27 SP:f9
fa53  60         RTS         A:ff X:ff Y:a2 P:27 SP:f9
eaaa  a5 47      LDA $47     A:ff X:ff Y:a2 P:27 SP:fb
eaac  c9 ff      CMP #$ff    A:ff X:ff Y:a2 P:a5 SP:fb
eaae  f0 02      BEQ $eab2   A:ff X:ff Y:a2 P:27 SP:fb
eab2  c8         INY         A:ff X:ff Y:a2 P:27 SP:fb
eab3  a9 37      LDA #$37    A:ff X:ff Y:a3 P:a5 SP:fb
eab5  85 47      STA $47     A:37 X:ff Y:a3 P:25 SP:fb
eab7  20 54 fa   JSR $fa54   A:37 X:ff Y:a3 P:25 SP:fb
fa54  24 01      BIT $01     A:37 X:ff Y:a3 P:25 SP:f9
fa56  a9 f0      LDA #$f0    A:37 X:ff Y:a3 P:e5 SP:f9
fa58  60         RTS         A:f0 X:ff Y:a3 P:e5 SP:f9
eaba  d7 48      DCP $48,X   A:f0 X:ff Y:a3 P:e5 SP:fb
eabc  ea         NOP         A:f0 X:ff Y:a3 P:e5 SP:fb
eabd  ea         NOP         A:f0 X:ff Y:a3 P:e5 SP:fb
eabe  ea         NOP         A:f0 X:ff Y:a3 P:e5 SP:fb
eabf  ea         NOP         A:f0 X:ff Y:a3 P:e5 SP:fb
eac0  20 59 fa   JSR $fa59   A:f0 X:ff Y:a3 P:e5 SP:fb
fa59  50 0a      BVC $fa65   A:f0 X:ff Y:a3 P:e5 SP:f9
fa5b  f0 08      BEQ $fa65   A:f0 X:ff Y:a3 P:e5 SP:f9
fa5d  10 06      BPL $fa65   A:f0 X:ff Y:a3 P:e5 SP:f9
fa5f  90 04      BCC $fa65   A:f0 X:ff Y:a3 P:e5 SP:f9
fa61  c9 f0      CMP #$f0    A:f0 X:ff Y:a3 P:e5 SP:f9
fa63  f0 02      BEQ $fa67   A:f0 X:ff Y:a3 P:67 SP:f9
fa67  60         RTS         A:f0 X:ff Y:a3 P:67 SP:f9
eac3  a5 47      LDA $47     A:f0 X:ff Y:a3 P:67 SP:fb
eac5  c9 36      CMP #$36    A:36 X:ff Y:a3 P:65 SP:fb
eac7  f0 02      BEQ $eacb   A:36 X:ff Y:a3 P:67 SP:fb
eacb  a9 eb      LDA #$eb    A:36 X:ff Y:a3 P:67 SP:fb
eacd  8d 47 06   STA $0647   A:eb X:ff Y:a3 P:e5 SP:fb
ead0  a0 ff      LDY #$ff    A:eb X:ff Y:a3 P:e5 SP:fb
ead2  20 31 fa   JSR $fa31   A:eb X:ff Y:ff P:e5 SP:fb
fa31  24 01      BIT $01     A:eb X:ff Y:ff P:e5 SP:f9
fa33  18         CLC         A:eb X:ff Y:ff P:e5 SP:f9
fa34  a9 40      LDA #$40    A:eb X:ff Y:ff P:e4 SP:f9
fa36  60         RTS         A:40 X:ff Y:ff P:64 SP:f9
ead5  db 48 05   DCP $0548,Y A:40 X:ff Y:ff P:64 SP:fb
ead8  ea         NOP         A:40 X:ff Y:ff P:64 SP:fb
ead9  ea         NOP         A:40 X:ff Y:ff P:64 SP:fb
eada  08         PHP         A:40 X:ff Y:ff P:64 SP:fb
eadb  48         PHA         A:40 X:ff Y:ff P:64 SP:fa
eadc  a0 a4      LDY #$a4    A:40 X:ff Y:ff P:64 SP:f9
eade  68         PLA         A:40 X:ff Y:a4 P:e4 SP:f9
eadf  28         PLP         A:40 X:ff Y:a4 P:64 SP:fa
eae0  20 37 fa   JSR $fa37   A:40 X:ff Y:a4 P:64 SP:fb
fa37  50 2c      BVC $fa65   A:40 X:ff Y:a4 P:64 SP:f9
fa39  b0 2a      BCS $fa65   A:40 X:ff Y:a4 P:64 SP:f9
fa3b  30 28      BMI $fa65   A:40 X:ff Y:a4 P:64 SP:f9
fa3d  c9 40      CMP #$40    A:40 X:ff Y:a4 P:64 SP:f9
fa3f  d0 24      BNE $fa65   A:40 X:ff Y:a4 P:67 SP:f9
fa41  60         RTS         A:40 X:ff Y:a4 P:67 SP:f9
eae3  ad 47 06   LDA $0647   A:40 X:ff Y:a4 P:67 SP:fb
eae6  c9 ea      CMP #$ea    A:ea X:ff Y:a4 P:e5 SP:fb
eae8  f0 02      BEQ $eaec   A:ea X:ff Y:a4 P:67 SP:fb
eaec  a0 ff      LDY #$ff    A:ea X:ff Y:a4 P:67 SP:fb
eaee  a9 00      LDA #$00    A:ea X:ff Y:ff P:e5 SP:fb
eaf0  8d 47 06   STA $0647   A:00 X:ff Y:ff P:67 SP:fb
eaf3  20 42 fa   JSR $fa42   A:00 X:ff Y:ff P:67 SP:fb
fa42  b8         CLV         A:00 X:ff Y:ff P:67 SP:f9
fa43  38         SEC         A:00 X:ff Y:ff P:27 SP:f9
fa44  a9 ff      LDA #$ff    A:00 X:ff Y:ff P:27 SP:f9
fa46  60         RTS         A:ff X:ff Y:ff P:a5 SP:f9
eaf6  db 48 05   DCP $0548,Y A:ff X:ff Y:ff P:a5 SP:fb
eaf9  ea         NOP         A:ff X:ff Y:ff P:27 SP:fb
eafa  ea         NOP         A:ff X:ff Y:ff P:27 SP:fb
eafb  08         PHP         A:ff X:ff Y:ff P:27 SP:fb
eafc  48         PHA         A:ff X:ff Y:ff P:27 SP:fa
eafd  a0 a5      LDY #$a5    A:ff X:ff Y:ff P:27 SP:f9
eaff  68         PLA         A:ff X:ff Y:a5 P:a5 SP:f9
eb00  28         PLP         A:ff X:ff Y:a5 P:a5 SP:fa
eb01  20 47 fa   JSR $fa47   A:ff X:ff Y:a5 P:27 SP:fb
fa47  70 1c      BVS $fa65   A:ff X:ff Y:a5 P:27 SP:f9
fa49  d0 1a      BNE $fa65   A:ff X:ff Y:a5 P:27 SP:f9
fa4b  30 18      BMI $fa65   A:ff X:ff Y:a5 P:27 SP:f9
fa4d  90 16      BCC $fa65   A:ff X:ff Y:a5 P:27 SP:f9
fa4f  c9 ff      CMP #$ff    A:ff X:ff Y:a5 P:27 SP:f9
fa51  d0 12      BNE $fa65   A:ff X:ff Y:a5 P:27 SP:f9
fa53  60         RTS         A:ff X:ff Y:a5 P:27 SP:f9
eb04  ad 47 06   LDA $0647   A:ff X:ff Y:a5 P:27 SP:fb
eb07  c9 ff      CMP #$ff    A:ff X:ff Y:a5 P:a5 SP:fb
eb09  f0 02      BEQ $eb0d   A:ff X:ff Y:a5 P:27 SP:fb
eb0d  a0 ff      LDY #$ff    A:ff X:ff Y:a5 P:27 SP:fb
eb0f  a9 37      LDA #$37    A:ff X:ff Y:ff P:a5 SP:fb
eb11  8d 47 06   STA $0647   A:37 X:ff Y:ff P:25 SP:fb
eb14  20 54 fa   JSR $fa54   A:37 X:ff Y:ff P:25 SP:fb
fa54  24 01      BIT $01     A:37 X:ff Y:ff P:25 SP:f9
fa56  a9 f0      LDA #$f0    A:37 X:ff Y:ff P:e5 SP:f9
fa58  60         RTS         A:f0 X:ff Y:ff P:e5 SP:f9
eb17  db 48 05   DCP $0548,Y A:f0 X:ff Y:ff P:e5 SP:fb
eb1a  ea         NOP         A:f0 X:ff Y:ff P:e5 SP:fb
eb1b  ea         NOP         A:f0 X:ff Y:ff P:e5 SP:fb
eb1c  08         PHP         A:f0 X:ff Y:ff P:e5 SP:fb
eb1d  48         PHA         A:f0 X:ff Y:ff P:e5 SP:fa
eb1e  a0 a6      LDY #$a6    A:f0 X:ff Y:ff P:e5 SP:f9
eb20  68         PLA         A:f0 X:ff Y:a6 P:e5 SP:f9
eb21  28         PLP         A:f0 X:ff Y:a6 P:e5 SP:fa
eb22  20 59 fa   JSR $fa59   A:f0 X:ff Y:a6 P:e5 SP:fb
fa59  50 0a      BVC $fa65   A:f0 X:ff Y:a6 P:e5 SP:f9
fa5b  f0 08      BEQ $fa65   A:f0 X:ff Y:a6 P:e5 SP:f9
fa5d  10 06      BPL $fa65   A:f0 X:ff Y:a6 P:e5 SP:f9
fa5f  90 04      BCC $fa65   A:f0 X:ff Y:a6 P:e5 SP:f9
fa61  c9 f0      CMP #$f0    A:f0 X:ff Y:a6 P:e5 SP:f9
fa63  f0 02      BEQ $fa67   A:f0 X:ff Y:a6 P:67 SP:f9
fa67  60         RTS         A:f0 X:ff Y:a6 P:67 SP:f9
eb25  ad 47 06   LDA $0647   A:f0 X:ff Y:a6 P:67 SP:fb
eb28  c9 36      CMP #$36    A:36 X:ff Y:a6 P:65 SP:fb
eb2a  f0 02      BEQ $eb2e   A:36 X:ff Y:a6 P:67 SP:fb
eb2e  a0 a7      LDY #$a7    A:36 X:ff Y:a6 P:67 SP:fb
eb30  a2 ff      LDX #$ff    A:36 X:ff Y:a7 P:e5 SP:fb
eb32  a9 eb      LDA #$eb    A:36 X:ff Y:a7 P:e5 SP:fb
eb34  8d 47 06   STA $0647   A:eb X:ff Y:a7 P:e5 SP:fb
eb37  20 31 fa   JSR $fa31   A:eb X:ff Y:a7 P:e5 SP:fb
fa31  24 01      BIT $01     A:eb X:ff Y:a7 P:e5 SP:f9
fa33  18         CLC         A:eb X:ff Y:a7 P:e5 SP:f9
fa34  a9 40      LDA #$40    A:eb X:ff Y:a7 P:e4 SP:f9
fa36  60         RTS         A:40 X:ff Y:a7 P:64 SP:f9
eb3a  df 48 05   DCP $0548,X A:40 X:ff Y:a7 P:64 SP:fb
eb3d  ea         NOP         A:40 X:ff Y:a7 P:64 SP:fb
eb3e  ea         NOP         A:40 X:ff Y:a7 P:64 SP:fb
eb3f  ea         NOP         A:40 X:ff Y:a7 P:64 SP:fb
eb40  ea         NOP         A:40 X:ff Y:a7 P:64 SP:fb
eb41  20 37 fa   JSR $fa37   A:40 X:ff Y:a7 P:64 SP:fb
fa37  50 2c      BVC $fa65   A:40 X:ff Y:a7 P:64 SP:f9
fa39  b0 2a      BCS $fa65   A:40 X:ff Y:a7 P:64 SP:f9
fa3b  30 28      BMI $fa65   A:40 X:ff Y:a7 P:64 SP:f9
fa3d  c9 40      CMP #$40    A:40 X:ff Y:a7 P:64 SP:f9
fa3f  d0 24      BNE $fa65   A:40 X:ff Y:a7 P:67 SP:f9
fa41  60         RTS         A:40 X:ff Y:a7 P:67 SP:f9
eb44  ad 47 06   LDA $0647   A:40 X:ff Y:a7 P:67 SP:fb
eb47  c9 ea      CMP #$ea    A:ea X:ff Y:a7 P:e5 SP:fb
eb49  f0 02      BEQ $eb4d   A:ea X:ff Y:a7 P:67 SP:fb
eb4d  c8         INY         A:ea X:ff Y:a7 P:67 SP:fb
eb4e  a9 00      LDA #$00    A:ea X:ff Y:a8 P:e5 SP:fb
eb50  8d 47 06   STA $0647   A:00 X:ff Y:a8 P:67 SP:fb
eb53  20 42 fa   JSR $fa42   A:00 X:ff Y:a8 P:67 SP:fb
fa42  b8         CLV         A:00 X:ff Y:a8 P:67 SP:f9
fa43  38         SEC         A:00 X:ff Y:a8 P:27 SP:f9
fa44  a9 ff      LDA #$ff    A:00 X:ff Y:a8 P:27 SP:f9
fa46  60         RTS         A:ff X:ff Y:a8 P:a5 SP:f9
eb56  df 48 05   DCP $0548,X A:ff X:ff Y:a8 P:a5 SP:fb
eb59  ea         NOP         A:ff X:ff Y:a8 P:27 SP:fb
eb5a  ea         NOP         A:ff X:ff Y:a8 P:27 SP:fb
eb5b  ea         NOP         A:ff X:ff Y:a8 P:27 SP:fb
eb5c  ea         NOP         A:ff X:ff Y:a8 P:27 SP:fb
eb5d  20 47 fa   JSR $fa47   A:ff X:ff Y:a8 P:27 SP:fb
fa47  70 1c      BVS $fa65   A:ff X:ff Y:a8 P:27 SP:f9
fa49  d0 1a      BNE $fa65   A:ff X:ff Y:a8 P:27 SP:f9
fa4b  30 18      BMI $fa65   A:ff X:ff Y:a8 P:27 SP:f9
fa4d  90 16      BCC $fa65   A:ff X:ff Y:a8 P:27 SP:f9
fa4f  c9 ff      CMP #$ff    A:ff X:ff Y:a8 P:27 SP:f9
fa51  d0 12      BNE $fa65   A:ff X:ff Y:a8 P:27 SP:f9
fa53  60         RTS         A:ff X:ff Y:a8 P:27 SP:f9
eb60  ad 47 06   LDA $0647   A:ff X:ff Y:a8 P:27 SP:fb
eb63  c9 ff      CMP #$ff    A:ff X:ff Y:a8 P:a5 SP:fb
eb65  f0 02      BEQ $eb69   A:ff X:ff Y:a8 P:27 SP:fb
eb69  c8         INY         A:ff X:ff Y:a8 P:27 SP:fb
eb6a  a9 37      LDA #$37    A:ff X:ff Y:a9 P:a5 SP:fb
eb6c  8d 47 06   STA $0647   A:37 X:ff Y:a9 P:25 SP:fb
eb6f  20 54 fa   JSR $fa54   A:37 X:ff Y:a9 P:25 SP:fb
fa54  24 01      BIT $01     A:37 X:ff Y:a9 P:25 SP:f9
fa56  a9 f0      LDA #$f0    A:37 X:ff Y:a9 P:e5 SP:f9
fa58  60         RTS         A:f0 X:ff Y:a9 P:e5 SP:f9
eb72  df 48 05   DCP $0548,X A:f0 X:ff Y:a9 P:e5 SP:fb
eb75  ea         NOP         A:f0 X:ff Y:a9 P:e5 SP:fb
eb76  ea         NOP         A:f0 X:ff Y:a9 P:e5 SP:fb
eb77  ea         NOP         A:f0 X:ff Y:a9 P:e5 SP:fb
eb78  ea         NOP         A:f0 X:ff Y:a9 P:e5 SP:fb
eb79  20 59 fa   JSR $fa59   A:f0 X:ff Y:a9 P:e5 SP:fb
fa59  50 0a      BVC $fa65   A:f0 X:ff Y:a9 P:e5 SP:f9
fa5b  f0 08      BEQ $fa65   A:f0 X:ff Y:a9 P:e5 SP:f9
fa5d  10 06      BPL $fa65   A:f0 X:ff Y:a9 P:e5 SP:f9
fa5f  90 04      BCC $fa65   A:f0 X:ff Y:a9 P:e5 SP:f9
fa61  c9 f0      CMP #$f0    A:f0 X:ff Y:a9 P:e5 SP:f9
fa63  f0 02      BEQ $fa67   A:f0 X:ff Y:a9 P:67 SP:f9
fa67  60         RTS         A:f0 X:ff Y:a9 P:67 SP:f9
eb7c  ad 47 06   LDA $0647   A:f0 X:ff Y:a9 P:67 SP:fb
eb7f  c9 36      CMP #$36    A:36 X:ff Y:a9 P:65 SP:fb
eb81  f0 02      BEQ $eb85   A:36 X:ff Y:a9 P:67 SP:fb
eb85  60         RTS         A:36 X:ff Y:a9 P:67 SP:fb
c63e  20 86 eb   JSR $eb86   A:36 X:ff Y:a9 P:67 SP:fd
eb86  a9 ff      LDA #$ff    A:36 X:ff Y:a9 P:67 SP:fb
eb88  85 01      STA $01     A:ff X:ff Y:a9 P:e5 SP:fb
eb8a  a0 aa      LDY #$aa    A:ff X:ff Y:a9 P:e5 SP:fb
eb8c  a2 02      LDX #$02    A:ff X:ff Y:aa P:e5 SP:fb
eb8e  a9 47      LDA #$47    A:ff X:02 Y:aa P:65 SP:fb
eb90  85 47      STA $47     A:47 X:02 Y:aa P:65 SP:fb
eb92  a9 06      LDA #$06    A:47 X:02 Y:aa P:65 SP:fb
eb94  85 48      STA $48     A:06 X:02 Y:aa P:65 SP:fb
eb96  a9 eb      LDA #$eb    A:06 X:02 Y:aa P:65 SP:fb
eb98  8d 47 06   STA $0647   A:eb X:02 Y:aa P:e5 SP:fb
eb9b  20 b1 fa   JSR $fab1   A:eb X:02 Y:aa P:e5 SP:fb
fab1  24 01      BIT $01     A:eb X:02 Y:aa P:e5 SP:f9
fab3  18         CLC         A:eb X:02 Y:aa P:e5 SP:f9
fab4  a9 40      LDA #$40    A:eb X:02 Y:aa P:e4 SP:f9
fab6  60         RTS         A:40 X:02 Y:aa P:64 SP:f9
eb9e  e3 45      ISC ($45,X) A:40 X:02 Y:aa P:64 SP:fb
eba0  ea         NOP         A:53 X:02 Y:aa P:24 SP:fb
eba1  ea         NOP         A:53 X:02 Y:aa P:24 SP:fb
eba2  ea         NOP         A:53 X:02 Y:aa P:24 SP:fb
eba3  ea         NOP         A:53 X:02 Y:aa P:24 SP:fb
eba4  20 b7 fa   JSR $fab7   A:53 X:02 Y:aa P:24 SP:fb
fab7  70 2d      BVS $fae6   A:53 X:02 Y:aa P:24 SP:f9
fab9  b0 2b      BCS $fae6   A:53 X:02 Y:aa P:24 SP:f9
fabb  30 29      BMI $fae6   A:53 X:02 Y:aa P:24 SP:f9
fabd  c9 53      CMP #$53    A:53 X:02 Y:aa P:24 SP:f9
fabf  d0 25      BNE $fae6   A:53 X:02 Y:aa P:27 SP:f9
fac1  60         RTS         A:53 X:02 Y:aa P:27 SP:f9
eba7  ad 47 06   LDA $0647   A:53 X:02 Y:aa P:27 SP:fb
ebaa  c9 ec      CMP #$ec    A:ec X:02 Y:aa P:a5 SP:fb
ebac  f0 02      BEQ $ebb0   A:ec X:02 Y:aa P:27 SP:fb
ebb0  c8         INY         A:ec X:02 Y:aa P:27 SP:fb
ebb1  a9 ff      LDA #$ff    A:ec X:02 Y:ab P:a5 SP:fb
ebb3  8d 47 06   STA $0647   A:ff X:02 Y:ab P:a5 SP:fb
ebb6  20 c2 fa   JSR $fac2   A:ff X:02 Y:ab P:a5 SP:fb
fac2  b8         CLV         A:ff X:02 Y:ab P:a5 SP:f9
fac3  38         SEC         A:ff X:02 Y:ab P:a5 SP:f9
fac4  a9 ff      LDA #$ff    A:ff X:02 Y:ab P:a5 SP:f9
fac6  60         RTS         A:ff X:02 Y:ab P:a5 SP:f9
ebb9  e3 45      ISC ($45,X) A:ff X:02 Y:ab P:a5 SP:fb
ebbb  ea         NOP         A:ff X:02 Y:ab P:a5 SP:fb
ebbc  ea         NOP         A:ff X:02 Y:ab P:a5 SP:fb
ebbd  ea         NOP         A:ff X:02 Y:ab P:a5 SP:fb
ebbe  ea         NOP         A:ff X:02 Y:ab P:a5 SP:fb
ebbf  20 c7 fa   JSR $fac7   A:ff X:02 Y:ab P:a5 SP:fb
fac7  70 1d      BVS $fae6   A:ff X:02 Y:ab P:a5 SP:f9
fac9  f0 1b      BEQ $fae6   A:ff X:02 Y:ab P:a5 SP:f9
facb  10 19      BPL $fae6   A:ff X:02 Y:ab P:a5 SP:f9
facd  90 17      BCC $fae6   A:ff X:02 Y:ab P:a5 SP:f9
facf  c9 ff      CMP #$ff    A:ff X:02 Y:ab P:a5 SP:f9
fad1  d0 13      BNE $fae6   A:ff X:02 Y:ab P:27 SP:f9
fad3  60         RTS         A:ff X:02 Y:ab P:27 SP:f9
ebc2  ad 47 06   LDA $0647   A:ff X:02 Y:ab P:27 SP:fb
ebc5  c9 00      CMP #$00    A:00 X:02 Y:ab P:27 SP:fb
ebc7  f0 02      BEQ $ebcb   A:00 X:02 Y:ab P:27 SP:fb
ebcb  c8         INY         A:00 X:02 Y:ab P:27 SP:fb
ebcc  a9 37      LDA #$37    A:00 X:02 Y:ac P:a5 SP:fb
ebce  8d 47 06   STA $0647   A:37 X:02 Y:ac P:25 SP:fb
ebd1  20 d4 fa   JSR $fad4   A:37 X:02 Y:ac P:25 SP:fb
fad4  24 01      BIT $01     A:37 X:02 Y:ac P:25 SP:f9
fad6  38         SEC         A:37 X:02 Y:ac P:e5 SP:f9
fad7  a9 f0      LDA #$f0    A:37 X:02 Y:ac P:e5 SP:f9
fad9  60         RTS         A:f0 X:02 Y:ac P:e5 SP:f9
ebd4  e3 45      ISC ($45,X) A:f0 X:02 Y:ac P:e5 SP:fb
ebd6  ea         NOP         A:b8 X:02 Y:ac P:a5 SP:fb
ebd7  ea         NOP         A:b8 X:02 Y:ac P:a5 SP:fb
ebd8  ea         NOP         A:b8 X:02 Y:ac P:a5 SP:fb
ebd9  ea         NOP         A:b8 X:02 Y:ac P:a5 SP:fb
ebda  20 da fa   JSR $fada   A:b8 X:02 Y:ac P:a5 SP:fb
fada  70 0a      BVS $fae6   A:b8 X:02 Y:ac P:a5 SP:f9
fadc  f0 08      BEQ $fae6   A:b8 X:02 Y:ac P:a5 SP:f9
fade  10 06      BPL $fae6   A:b8 X:02 Y:ac P:a5 SP:f9
fae0  90 04      BCC $fae6   A:b8 X:02 Y:ac P:a5 SP:f9
fae2  c9 b8      CMP #$b8    A:b8 X:02 Y:ac P:a5 SP:f9
fae4  f0 02      BEQ $fae8   A:b8 X:02 Y:ac P:27 SP:f9
fae8  60         RTS         A:b8 X:02 Y:ac P:27 SP:f9
ebdd  ad 47 06   LDA $0647   A:b8 X:02 Y:ac P:27 SP:fb
ebe0  c9 38      CMP #$38    A:38 X:02 Y:ac P:25 SP:fb
ebe2  f0 02      BEQ $ebe6   A:38 X:02 Y:ac P:27 SP:fb
ebe6  c8         INY         A:38 X:02 Y:ac P:27 SP:fb
ebe7  a9 eb      LDA #$eb    A:38 X:02 Y:ad P:a5 SP:fb
ebe9  85 47      STA $47     A:eb X:02 Y:ad P:a5 SP:fb
ebeb  20 b1 fa   JSR $fab1   A:eb X:02 Y:ad P:a5 SP:fb
fab1  24 01      BIT $01     A:eb X:02 Y:ad P:a5 SP:f9
fab3  18         CLC         A:eb X:02 Y:ad P:e5 SP:f9
fab4  a9 40      LDA #$40    A:eb X:02 Y:ad P:e4 SP:f9
fab6  60         RTS         A:40 X:02 Y:ad P:64 SP:f9
ebee  e7 47      ISC $47     A:40 X:02 Y:ad P:64 SP:fb
ebf0  ea         NOP         A:53 X:02 Y:ad P:24 SP:fb
ebf1  ea         NOP         A:53 X:02 Y:ad P:24 SP:fb
ebf2  ea         NOP         A:53 X:02 Y:ad P:24 SP:fb
ebf3  ea         NOP         A:53 X:02 Y:ad P:24 SP:fb
ebf4  20 b7 fa   JSR $fab7   A:53 X:02 Y:ad P:24 SP:fb
fab7  70 2d      BVS $fae6   A:53 X:02 Y:ad P:24 SP:f9
fab9  b0 2b      BCS $fae6   A:53 X:02 Y:ad P:24 SP:f9
fabb  30 29      BMI $fae6   A:53 X:02 Y:ad P:24 SP:f9
fabd  c9 53      CMP #$53    A:53 X:02 Y:ad P:24 SP:f9
fabf  d0 25      BNE $fae6   A:53 X:02 Y:ad P:27 SP:f9
fac1  60         RTS         A:53 X:02 Y:ad P:27 SP:f9
ebf7  a5 47      LDA $47     A:53 X:02 Y:ad P:27 SP:fb
ebf9  c9 ec      CMP #$ec    A:ec X:02 Y:ad P:a5 SP:fb
ebfb  f0 02      BEQ $ebff   A:ec X:02 Y:ad P:27 SP:fb
ebff  c8         INY         A:ec X:02 Y:ad P:27 SP:fb
ec00  a9 ff      LDA #$ff    A:ec X:02 Y:ae P:a5 SP:fb
ec02  85 47      STA $47     A:ff X:02 Y:ae P:a5 SP:fb
ec04  20 c2 fa   JSR $fac2   A:ff X:02 Y:ae P:a5 SP:fb
fac2  b8         CLV         A:ff X:02 Y:ae P:a5 SP:f9
fac3  38         SEC         A:ff X:02 Y:ae P:a5 SP:f9
fac4  a9 ff      LDA #$ff    A:ff X:02 Y:ae P:a5 SP:f9
fac6  60         RTS         A:ff X:02 Y:ae P:a5 SP:f9
ec07  e7 47      ISC $47     A:ff X:02 Y:ae P:a5 SP:fb
ec09  ea         NOP         A:ff X:02 Y:ae P:a5 SP:fb
ec0a  ea         NOP         A:ff X:02 Y:ae P:a5 SP:fb
ec0b  ea         NOP         A:ff X:02 Y:ae P:a5 SP:fb
ec0c  ea         NOP         A:ff X:02 Y:ae P:a5 SP:fb
ec0d  20 c7 fa   JSR $fac7   A:ff X:02 Y:ae P:a5 SP:fb
fac7  70 1d      BVS $fae6   A:ff X:02 Y:ae P:a5 SP:f9
fac9  f0 1b      BEQ $fae6   A:ff X:02 Y:ae P:a5 SP:f9
facb  10 19      BPL $fae6   A:ff X:02 Y:ae P:a5 SP:f9
facd  90 17      BCC $fae6   A:ff X:02 Y:ae P:a5 SP:f9
facf  c9 ff      CMP #$ff    A:ff X:02 Y:ae P:a5 SP:f9
fad1  d0 13      BNE $fae6   A:ff X:02 Y:ae P:27 SP:f9
fad3  60         RTS         A:ff X:02 Y:ae P:27 SP:f9
ec10  a5 47      LDA $47     A:ff X:02 Y:ae P:27 SP:fb
ec12  c9 00      CMP #$00    A:00 X:02 Y:ae P:27 SP:fb
ec14  f0 02      BEQ $ec18   A:00 X:02 Y:ae P:27 SP:fb
ec18  c8         INY         A:00 X:02 Y:ae P:27 SP:fb
ec19  a9 37      LDA #$37    A:00 X:02 Y:af P:a5 SP:fb
ec1b  85 47      STA $47     A:37 X:02 Y:af P:25 SP:fb
ec1d  20 d4 fa   JSR $fad4   A:37 X:02 Y:af P:25 SP:fb
fad4  24 01      BIT $01     A:37 X:02 Y:af P:25 SP:f9
fad6  38         SEC         A:37 X:02 Y:af P:e5 SP:f9
fad7  a9 f0      LDA #$f0    A:37 X:02 Y:af P:e5 SP:f9
fad9  60         RTS         A:f0 X:02 Y:af P:e5 SP:f9
ec20  e7 47      ISC $47     A:f0 X:02 Y:af P:e5 SP:fb
ec22  ea         NOP         A:b8 X:02 Y:af P:a5 SP:fb
ec23  ea         NOP         A:b8 X:02 Y:af P:a5 SP:fb
ec24  ea         NOP         A:b8 X:02 Y:af P:a5 SP:fb
ec25  ea         NOP         A:b8 X:02 Y:af P:a5 SP:fb
ec26  20 da fa   JSR $fada   A:b8 X:02 Y:af P:a5 SP:fb
fada  70 0a      BVS $fae6   A:b8 X:02 Y:af P:a5 SP:f9
fadc  f0 08      BEQ $fae6   A:b8 X:02 Y:af P:a5 SP:f9
fade  10 06      BPL $fae6   A:b8 X:02 Y:af P:a5 SP:f9
fae0  90 04      BCC $fae6   A:b8 X:02 Y:af P:a5 SP:f9
fae2  c9 b8      CMP #$b8    A:b8 X:02 Y:af P:a5 SP:f9
fae4  f0 02      BEQ $fae8   A:b8 X:02 Y:af P:27 SP:f9
fae8  60         RTS         A:b8 X:02 Y:af P:27 SP:f9
ec29  a5 47      LDA $47     A:b8 X:02 Y:af P:27 SP:fb
ec2b  c9 38      CMP #$38    A:38 X:02 Y:af P:25 SP:fb
ec2d  f0 02      BEQ $ec31   A:38 X:02 Y:af P:27 SP:fb
ec31  c8         INY         A:38 X:02 Y:af P:27 SP:fb
ec32  a9 eb      LDA #$eb    A:38 X:02 Y:b0 P:a5 SP:fb
ec34  8d 47 06   STA $0647   A:eb X:02 Y:b0 P:a5 SP:fb
ec37  20 b1 fa   JSR $fab1   A:eb X:02 Y:b0 P:a5 SP:fb
fab1  24 01      BIT $01     A:eb X:02 Y:b0 P:a5 SP:f9
fab3  18         CLC         A:eb X:02 Y:b0 P:e5 SP:f9
fab4  a9 40      LDA #$40    A:eb X:02 Y:b0 P:e4 SP:f9
fab6  60         RTS         A:40 X:02 Y:b0 P:64 SP:f9
ec3a  ef 47 06   ISC $0647   A:40 X:02 Y:b0 P:64 SP:fb
ec3d  ea         NOP         A:53 X:02 Y:b0 P:24 SP:fb
ec3e  ea         NOP         A:53 X:02 Y:b0 P:24 SP:fb
ec3f  ea         NOP         A:53 X:02 Y:b0 P:24 SP:fb
ec40  ea         NOP         A:53 X:02 Y:b0 P:24 SP:fb
ec41  20 b7 fa   JSR $fab7   A:53 X:02 Y:b0 P:24 SP:fb
fab7  70 2d      BVS $fae6   A:53 X:02 Y:b0 P:24 SP:f9
fab9  b0 2b      BCS $fae6   A:53 X:02 Y:b0 P:24 SP:f9
fabb  30 29      BMI $fae6   A:53 X:02 Y:b0 P:24 SP:f9
fabd  c9 53      CMP #$53    A:53 X:02 Y:b0 P:24 SP:f9
fabf  d0 25      BNE $fae6   A:53 X:02 Y:b0 P:27 SP:f9
fac1  60         RTS         A:53 X:02 Y:b0 P:27 SP:f9
ec44  ad 47 06   LDA $0647   A:53 X:02 Y:b0 P:27 SP:fb
ec47  c9 ec      CMP #$ec    A:ec X:02 Y:b0 P:a5 SP:fb
ec49  f0 02      BEQ $ec4d   A:ec X:02 Y:b0 P:27 SP:fb
ec4d  c8         INY         A:ec X:02 Y:b0 P:27 SP:fb
ec4e  a9 ff      LDA #$ff    A:ec X:02 Y:b1 P:a5 SP:fb
ec50  8d 47 06   STA $0647   A:ff X:02 Y:b1 P:a5 SP:fb
ec53  20 c2 fa   JSR $fac2   A:ff X:02 Y:b1 P:a5 SP:fb
fac2  b8         CLV         A:ff X:02 Y:b1 P:a5 SP:f9
fac3  38         SEC         A:ff X:02 Y:b1 P:a5 SP:f9
fac4  a9 ff      LDA #$ff    A:ff X:02 Y:b1 P:a5 SP:f9
fac6  60         RTS         A:ff X:02 Y:b1 P:a5 SP:f9
ec56  ef 47 06   ISC $0647   A:ff X:02 Y:b1 P:a5 SP:fb
ec59  ea         NOP         A:ff X:02 Y:b1 P:a5 SP:fb
ec5a  ea         NOP         A:ff X:02 Y:b1 P:a5 SP:fb
ec5b  ea         NOP         A:ff X:02 Y:b1 P:a5 SP:fb
ec5c  ea         NOP         A:ff X:02 Y:b1 P:a5 SP:fb
ec5d  20 c7 fa   JSR $fac7   A:ff X:02 Y:b1 P:a5 SP:fb
fac7  70 1d      BVS $fae6   A:ff X:02 Y:b1 P:a5 SP:f9
fac9  f0 1b      BEQ $fae6   A:ff X:02 Y:b1 P:a5 SP:f9
facb  10 19      BPL $fae6   A:ff X:02 Y:b1 P:a5 SP:f9
facd  90 17      BCC $fae6   A:ff X:02 Y:b1 P:a5 SP:f9
facf  c9 ff      CMP #$ff    A:ff X:02 Y:b1 P:a5 SP:f9
fad1  d0 13      BNE $fae6   A:ff X:02 Y:b1 P:27 SP:f9
fad3  60         RTS         A:ff X:02 Y:b1 P:27 SP:f9
ec60  ad 47 06   LDA $0647   A:ff X:02 Y:b1 P:27 SP:fb
ec63  c9 00      CMP #$00    A:00 X:02 Y:b1 P:27 SP:fb
ec65  f0 02      BEQ $ec69   A:00 X:02 Y:b1 P:27 SP:fb
ec69  c8         INY         A:00 X:02 Y:b1 P:27 SP:fb
ec6a  a9 37      LDA #$37    A:00 X:02 Y:b2 P:a5 SP:fb
ec6c  8d 47 06   STA $0647   A:37 X:02 Y:b2 P:25 SP:fb
ec6f  20 d4 fa   JSR $fad4   A:37 X:02 Y:b2 P:25 SP:fb
fad4  24 01      BIT $01     A:37 X:02 Y:b2 P:25 SP:f9
fad6  38         SEC         A:37 X:02 Y:b2 P:e5 SP:f9
fad7  a9 f0      LDA #$f0    A:37 X:02 Y:b2 P:e5 SP:f9
fad9  60         RTS         A:f0 X:02 Y:b2 P:e5 SP:f9
ec72  ef 47 06   ISC $0647   A:f0 X:02 Y:b2 P:e5 SP:fb
ec75  ea         NOP         A:b8 X:02 Y:b2 P:a5 SP:fb
ec76  ea         NOP         A:b8 X:02 Y:b2 P:a5 SP:fb
ec77  ea         NOP         A:b8 X:02 Y:b2 P:a5 SP:fb
ec78  ea         NOP         A:b8 X:02 Y:b2 P:a5 SP:fb
ec79  20 da fa   JSR $fada   A:b8 X:02 Y:b2 P:a5 SP:fb
fada  70 0a      BVS $fae6   A:b8 X:02 Y:b2 P:a5 SP:f9
fadc  f0 08      BEQ $fae6   A:b8 X:02 Y:b2 P:a5 SP:f9
fade  10 06      BPL $fae6   A:b8 X:02 Y:b2 P:a5 SP:f9
fae0  90 04      BCC $fae6   A:b8 X:02 Y:b2 P:a5 SP:f9
fae2  c9 b8      CMP #$b8    A:b8 X:02 Y:b2 P:a5 SP:f9
fae4  f0 02      BEQ $fae8   A:b8 X:02 Y:b2 P:27 SP:f9
fae8  60         RTS         A:b8 X:02 Y:b2 P:27 SP:f9
ec7c  ad 47 06   LDA $0647   A:b8 X:02 Y:b2 P:27 SP:fb
ec7f  c9 38      CMP #$38    A:38 X:02 Y:b2 P:25 SP:fb
ec81  f0 02      BEQ $ec85   A:38 X:02 Y:b2 P:27 SP:fb
ec85  a9 eb      LDA #$eb    A:38 X:02 Y:b2 P:27 SP:fb
ec87  8d 47 06   STA $0647   A:eb X:02 Y:b2 P:a5 SP:fb
ec8a  a9 48      LDA #$48    A:eb X:02 Y:b2 P:a5 SP:fb
ec8c  85 45      STA $45     A:48 X:02 Y:b2 P:25 SP:fb
ec8e  a9 05      LDA #$05    A:48 X:02 Y:b2 P:25 SP:fb
ec90  85 46      STA $46     A:05 X:02 Y:b2 P:25 SP:fb
ec92  a0 ff      LDY #$ff    A:05 X:02 Y:b2 P:25 SP:fb
ec94  20 b1 fa   JSR $fab1   A:05 X:02 Y:ff P:a5 SP:fb
fab1  24 01      BIT $01     A:05 X:02 Y:ff P:a5 SP:f9
fab3  18         CLC         A:05 X:02 Y:ff P:e5 SP:f9
fab4  a9 40      LDA #$40    A:05 X:02 Y:ff P:e4 SP:f9
fab6  60         RTS         A:40 X:02 Y:ff P:64 SP:f9
ec97  f3 45      ISC ($45),Y A:40 X:02 Y:ff P:64 SP:fb
ec99  ea         NOP         A:53 X:02 Y:ff P:24 SP:fb
ec9a  ea         NOP         A:53 X:02 Y:ff P:24 SP:fb
ec9b  08         PHP         A:53 X:02 Y:ff P:24 SP:fb
ec9c  48         PHA         A:53 X:02 Y:ff P:24 SP:fa
ec9d  a0 b3      LDY #$b3    A:53 X:02 Y:ff P:24 SP:f9
ec9f  68         PLA         A:53 X:02 Y:b3 P:a4 SP:f9
eca0  28         PLP         A:53 X:02 Y:b3 P:24 SP:fa
eca1  20 b7 fa   JSR $fab7   A:53 X:02 Y:b3 P:24 SP:fb
fab7  70 2d      BVS $fae6   A:53 X:02 Y:b3 P:24 SP:f9
fab9  b0 2b      BCS $fae6   A:53 X:02 Y:b3 P:24 SP:f9
fabb  30 29      BMI $fae6   A:53 X:02 Y:b3 P:24 SP:f9
fabd  c9 53      CMP #$53    A:53 X:02 Y:b3 P:24 SP:f9
fabf  d0 25      BNE $fae6   A:53 X:02 Y:b3 P:27 SP:f9
fac1  60         RTS         A:53 X:02 Y:b3 P:27 SP:f9
eca4  ad 47 06   LDA $0647   A:53 X:02 Y:b3 P:27 SP:fb
eca7  c9 ec      CMP #$ec    A:ec X:02 Y:b3 P:a5 SP:fb
eca9  f0 02      BEQ $ecad   A:ec X:02 Y:b3 P:27 SP:fb
ecad  a0 ff      LDY #$ff    A:ec X:02 Y:b3 P:27 SP:fb
ecaf  a9 ff      LDA #$ff    A:ec X:02 Y:ff P:a5 SP:fb
ecb1  8d 47 06   STA $0647   A:ff X:02 Y:ff P:a5 SP:fb
ecb4  20 c2 fa   JSR $fac2   A:ff X:02 Y:ff P:a5 SP:fb
fac2  b8         CLV         A:ff X:02 Y:ff P:a5 SP:f9
fac3  38         SEC         A:ff X:02 Y:ff P:a5 SP:f9
fac4  a9 ff      LDA #$ff    A:ff X:02 Y:ff P:a5 SP:f9
fac6  60         RTS         A:ff X:02 Y:ff P:a5 SP:f9
ecb7  f3 45      ISC ($45),Y A:ff X:02 Y:ff P:a5 SP:fb
ecb9  ea         NOP         A:ff X:02 Y:ff P:a5 SP:fb
ecba  ea         NOP         A:ff X:02 Y:ff P:a5 SP:fb
ecbb  08         PHP         A:ff X:02 Y:ff P:a5 SP:fb
ecbc  48         PHA         A:ff X:02 Y:ff P:a5 SP:fa
ecbd  a0 b4      LDY #$b4    A:ff X:02 Y:ff P:a5 SP:f9
ecbf  68         PLA         A:ff X:02 Y:b4 P:a5 SP:f9
ecc0  28         PLP         A:ff X:02 Y:b4 P:a5 SP:fa
ecc1  20 c7 fa   JSR $fac7   A:ff X:02 Y:b4 P:a5 SP:fb
fac7  70 1d      BVS $fae6   A:ff X:02 Y:b4 P:a5 SP:f9
fac9  f0 1b      BEQ $fae6   A:ff X:02 Y:b4 P:a5 SP:f9
facb  10 19      BPL $fae6   A:ff X:02 Y:b4 P:a5 SP:f9
facd  90 17      BCC $fae6   A:ff X:02 Y:b4 P:a5 SP:f9
facf  c9 ff      CMP #$ff    A:ff X:02 Y:b4 P:a5 SP:f9
fad1  d0 13      BNE $fae6   A:ff X:02 Y:b4 P:27 SP:f9
fad3  60         RTS         A:ff X:02 Y:b4 P:27 SP:f9
ecc4  ad 47 06   LDA $0647   A:ff X:02 Y:b4 P:27 SP:fb
ecc7  c9 00      CMP #$00    A:00 X:02 Y:b4 P:27 SP:fb
ecc9  f0 02      BEQ $eccd   A:00 X:02 Y:b4 P:27 SP:fb
eccd  a0 ff      LDY #$ff    A:00 X:02 Y:b4 P:27 SP:fb
eccf  a9 37      LDA #$37    A:00 X:02 Y:ff P:a5 SP:fb
ecd1  8d 47 06   STA $0647   A:37 X:02 Y:ff P:25 SP:fb
ecd4  20 d4 fa   JSR $fad4   A:37 X:02 Y:ff P:25 SP:fb
fad4  24 01      BIT $01     A:37 X:02 Y:ff P:25 SP:f9
fad6  38         SEC         A:37 X:02 Y:ff P:e5 SP:f9
fad7  a9 f0      LDA #$f0    A:37 X:02 Y:ff P:e5 SP:f9
fad9  60         RTS         A:f0 X:02 Y:ff P:e5 SP:f9
ecd7  f3 45      ISC ($45),Y A:f0 X:02 Y:ff P:e5 SP:fb
ecd9  ea         NOP         A:b8 X:02 Y:ff P:a5 SP:fb
ecda  ea         NOP         A:b8 X:02 Y:ff P:a5 SP:fb
ecdb  08         PHP         A:b8 X:02 Y:ff P:a5 SP:fb
ecdc  48         PHA         A:b8 X:02 Y:ff P:a5 SP:fa
ecdd  a0 b5      LDY #$b5    A:b8 X:02 Y:ff P:a5 SP:f9
ecdf  68         PLA         A:b8 X:02 Y:b5 P:a5 SP:f9
ece0  28         PLP         A:b8 X:02 Y:b5 P:a5 SP:fa
ece1  20 da fa   JSR $fada   A:b8 X:02 Y:b5 P:a5 SP:fb
fada  70 0a      BVS $fae6   A:b8 X:02 Y:b5 P:a5 SP:f9
fadc  f0 08      BEQ $fae6   A:b8 X:02 Y:b5 P:a5 SP:f9
fade  10 06      BPL $fae6   A:b8 X:02 Y:b5 P:a5 SP:f9
fae0  90 04      BCC $fae6   A:b8 X:02 Y:b5 P:a5 SP:f9
fae2  c9 b8      CMP #$b8    A:b8 X:02 Y:b5 P:a5 SP:f9
fae4  f0 02      BEQ $fae8   A:b8 X:02 Y:b5 P:27 SP:f9
fae8  60         RTS         A:b8 X:02 Y:b5 P:27 SP:f9
ece4  ad 47 06   LDA $0647   A:b8 X:02 Y:b5 P:27 SP:fb
ece7  c9 38      CMP #$38    A:38 X:02 Y:b5 P:25 SP:fb
ece9  f0 02      BEQ $eced   A:38 X:02 Y:b5 P:27 SP:fb
eced  a0 b6      LDY #$b6    A:38 X:02 Y:b5 P:27 SP:fb
ecef  a2 ff      LDX #$ff    A:38 X:02 Y:b6 P:a5 SP:fb
ecf1  a9 eb      LDA #$eb    A:38 X:ff Y:b6 P:a5 SP:fb
ecf3  85 47      STA $47     A:eb X:ff Y:b6 P:a5 SP:fb
ecf5  20 b1 fa   JSR $fab1   A:eb X:ff Y:b6 P:a5 SP:fb
fab1  24 01      BIT $01     A:eb X:ff Y:b6 P:a5 SP:f9
fab3  18         CLC         A:eb X:ff Y:b6 P:e5 SP:f9
fab4  a9 40      LDA #$40    A:eb X:ff Y:b6 P:e4 SP:f9
fab6  60         RTS         A:40 X:ff Y:b6 P:64 SP:f9
ecf8  f7 48      ISC $48,X   A:40 X:ff Y:b6 P:64 SP:fb
ecfa  ea         NOP         A:53 X:ff Y:b6 P:24 SP:fb
ecfb  ea         NOP         A:53 X:ff Y:b6 P:24 SP:fb
ecfc  ea         NOP         A:53 X:ff Y:b6 P:24 SP:fb
ecfd  ea         NOP         A:53 X:ff Y:b6 P:24 SP:fb
ecfe  20 b7 fa   JSR $fab7   A:53 X:ff Y:b6 P:24 SP:fb
fab7  70 2d      BVS $fae6   A:53 X:ff Y:b6 P:24 SP:f9
fab9  b0 2b      BCS $fae6   A:53 X:ff Y:b6 P:24 SP:f9
fabb  30 29      BMI $fae6   A:53 X:ff Y:b6 P:24 SP:f9
fabd  c9 53      CMP #$53    A:53 X:ff Y:b6 P:24 SP:f9
fabf  d0 25      BNE $fae6   A:53 X:ff Y:b6 P:27 SP:f9
fac1  60         RTS         A:53 X:ff Y:b6 P:27 SP:f9
ed01  a5 47      LDA $47     A:53 X:ff Y:b6 P:27 SP:fb
ed03  c9 ec      CMP #$ec    A:ec X:ff Y:b6 P:a5 SP:fb
ed05  f0 02      BEQ $ed09   A:ec X:ff Y:b6 P:27 SP:fb
ed09  c8         INY         A:ec X:ff Y:b6 P:27 SP:fb
ed0a  a9 ff      LDA #$ff    A:ec X:ff Y:b7 P:a5 SP:fb
ed0c  85 47      STA $47     A:ff X:ff Y:b7 P:a5 SP:fb
ed0e  20 c2 fa   JSR $fac2   A:ff X:ff Y:b7 P:a5 SP:fb
fac2  b8         CLV         A:ff X:ff Y:b7 P:a5 SP:f9
fac3  38         SEC         A:ff X:ff Y:b7 P:a5 SP:f9
fac4  a9 ff      LDA #$ff    A:ff X:ff Y:b7 P:a5 SP:f9
fac6  60         RTS         A:ff X:ff Y:b7 P:a5 SP:f9
ed11  f7 48      ISC $48,X   A:ff X:ff Y:b7 P:a5 SP:fb
ed13  ea         NOP         A:ff X:ff Y:b7 P:a5 SP:fb
ed14  ea         NOP         A:ff X:ff Y:b7 P:a5 SP:fb
ed15  ea         NOP         A:ff X:ff Y:b7 P:a5 SP:fb
ed16  ea         NOP         A:ff X:ff Y:b7 P:a5 SP:fb
ed17  20 c7 fa   JSR $fac7   A:ff X:ff Y:b7 P:a5 SP:fb
fac7  70 1d      BVS $fae6   A:ff X:ff Y:b7 P:a5 SP:f9
fac9  f0 1b      BEQ $fae6   A:ff X:ff Y:b7 P:a5 SP:f9
facb  10 19      BPL $fae6   A:ff X:ff Y:b7 P:a5 SP:f9
facd  90 17      BCC $fae6   A:ff X:ff Y:b7 P:a5 SP:f9
facf  c9 ff      CMP #$ff    A:ff X:ff Y:b7 P:a5 SP:f9
fad1  d0 13      BNE $fae6   A:ff X:ff Y:b7 P:27 SP:f9
fad3  60         RTS         A:ff X:ff Y:b7 P:27 SP:f9
ed1a  a5 47      LDA $47     A:ff X:ff Y:b7 P:27 SP:fb
ed1c  c9 00      CMP #$00    A:00 X:ff Y:b7 P:27 SP:fb
ed1e  f0 02      BEQ $ed22   A:00 X:ff Y:b7 P:27 SP:fb
ed22  c8         INY         A:00 X:ff Y:b7 P:27 SP:fb
ed23  a9 37      LDA #$37    A:00 X:ff Y:b8 P:a5 SP:fb
ed25  85 47      STA $47     A:37 X:ff Y:b8 P:25 SP:fb
ed27  20 d4 fa   JSR $fad4   A:37 X:ff Y:b8 P:25 SP:fb
fad4  24 01      BIT $01     A:37 X:ff Y:b8 P:25 SP:f9
fad6  38         SEC         A:37 X:ff Y:b8 P:e5 SP:f9
fad7  a9 f0      LDA #$f0    A:37 X:ff Y:b8 P:e5 SP:f9
fad9  60         RTS         A:f0 X:ff Y:b8 P:e5 SP:f9
ed2a  f7 48      ISC $48,X   A:f0 X:ff Y:b8 P:e5 SP:fb
ed2c  ea         NOP         A:b8 X:ff Y:b8 P:a5 SP:fb
ed2d  ea         NOP         A:b8 X:ff Y:b8 P:a5 SP:fb
ed2e  ea         NOP         A:b8 X:ff Y:b8 P:a5 SP:fb
ed2f  ea         NOP         A:b8 X:ff Y:b8 P:a5 SP:fb
ed30  20 da fa   JSR $fada   A:b8 X:ff Y:b8 P:a5 SP:fb
fada  70 0a      BVS $fae6   A:b8 X:ff Y:b8 P:a5 SP:f9
fadc  f0 08      BEQ $fae6   A:b8 X:ff Y:b8 P:a5 SP:f9
fade  10 06      BPL $fae6   A:b8 X:ff Y:b8 P:a5 SP:f9
fae0  90 04      BCC $fae6   A:b8 X:ff Y:b8 P:a5 SP:f9
fae2  c9 b8      CMP #$b8    A:b8 X:ff Y:b8 P:a5 SP:f9
fae4  f0 02      BEQ $fae8   A:b8 X:ff Y:b8 P:27 SP:f9
fae8  60         RTS         A:b8 X:ff Y:b8 P:27 SP:f9
ed33  a5 47      LDA $47     A:b8 X:ff Y:b8 P:27 SP:fb
ed35  c9 38      CMP #$38    A:38 X:ff Y:b8 P:25 SP:fb
ed37  f0 02      BEQ $ed3b   A:38 X:ff Y:b8 P:27 SP:fb
ed3b  a9 eb      LDA #$eb    A:38 X:ff Y:b8 P:27 SP:fb
ed3d  8d 47 06   STA $0647   A:eb X:ff Y:b8 P:a5 SP:fb
ed40  a0 ff      LDY #$ff    A:eb X:ff Y:b8 P:a5 SP:fb
ed42  20 b1 fa   JSR $fab1   A:eb X:ff Y:ff P:a5 SP:fb
fab1  24 01      BIT $01     A:eb X:ff Y:ff P:a5 SP:f9
fab3  18         CLC         A:eb X:ff Y:ff P:e5 SP:f9
fab4  a9 40      LDA #$40    A:eb X:ff Y:ff P:e4 SP:f9
fab6  60         RTS         A:40 X:ff Y:ff P:64 SP:f9
ed45  fb 48 05   ISC $0548,Y A:40 X:ff Y:ff P:64 SP:fb
ed48  ea         NOP         A:53 X:ff Y:ff P:24 SP:fb
ed49  ea         NOP         A:53 X:ff Y:ff P:24 SP:fb
ed4a  08         PHP         A:53 X:ff Y:ff P:24 SP:fb
ed4b  48         PHA         A:53 X:ff Y:ff P:24 SP:fa
ed4c  a0 b9      LDY #$b9    A:53 X:ff Y:ff P:24 SP:f9
ed4e  68         PLA         A:53 X:ff Y:b9 P:a4 SP:f9
ed4f  28         PLP         A:53 X:ff Y:b9 P:24 SP:fa
ed50  20 b7 fa   JSR $fab7   A:53 X:ff Y:b9 P:24 SP:fb
fab7  70 2d      BVS $fae6   A:53 X:ff Y:b9 P:24 SP:f9
fab9  b0 2b      BCS $fae6   A:53 X:ff Y:b9 P:24 SP:f9
fabb  30 29      BMI $fae6   A:53 X:ff Y:b9 P:24 SP:f9
fabd  c9 53      CMP #$53    A:53 X:ff Y:b9 P:24 SP:f9
fabf  d0 25      BNE $fae6   A:53 X:ff Y:b9 P:27 SP:f9
fac1  60         RTS         A:53 X:ff Y:b9 P:27 SP:f9
ed53  ad 47 06   LDA $0647   A:53 X:ff Y:b9 P:27 SP:fb
ed56  c9 ec      CMP #$ec    A:ec X:ff Y:b9 P:a5 SP:fb
ed58  f0 02      BEQ $ed5c   A:ec X:ff Y:b9 P:27 SP:fb
ed5c  a0 ff      LDY #$ff    A:ec X:ff Y:b9 P:27 SP:fb
ed5e  a9 ff      LDA #$ff    A:ec X:ff Y:ff P:a5 SP:fb
ed60  8d 47 06   STA $0647   A:ff X:ff Y:ff P:a5 SP:fb
ed63  20 c2 fa   JSR $fac2   A:ff X:ff Y:ff P:a5 SP:fb
fac2  b8         CLV         A:ff X:ff Y:ff P:a5 SP:f9
fac3  38         SEC         A:ff X:ff Y:ff P:a5 SP:f9
fac4  a9 ff      LDA #$ff    A:ff X:ff Y:ff P:a5 SP:f9
fac6  60         RTS         A:ff X:ff Y:ff P:a5 SP:f9
ed66  fb 48 05   ISC $0548,Y A:ff X:ff Y:ff P:a5 SP:fb
ed69  ea         NOP         A:ff X:ff Y:ff P:a5 SP:fb
ed6a  ea         NOP         A:ff X:ff Y:ff P:a5 SP:fb
ed6b  08         PHP         A:ff X:ff Y:ff P:a5 SP:fb
ed6c  48         PHA         A:ff X:ff Y:ff P:a5 SP:fa
ed6d  a0 ba      LDY #$ba    A:ff X:ff Y:ff P:a5 SP:f9
ed6f  68         PLA         A:ff X:ff Y:ba P:a5 SP:f9
ed70  28         PLP         A:ff X:ff Y:ba P:a5 SP:fa
ed71  20 c7 fa   JSR $fac7   A:ff X:ff Y:ba P:a5 SP:fb
fac7  70 1d      BVS $fae6   A:ff X:ff Y:ba P:a5 SP:f9
fac9  f0 1b      BEQ $fae6   A:ff X:ff Y:ba P:a5 SP:f9
facb  10 19      BPL $fae6   A:ff X:ff Y:ba P:a5 SP:f9
facd  90 17      BCC $fae6   A:ff X:ff Y:ba P:a5 SP:f9
facf  c9 ff      CMP #$ff    A:ff X:ff Y:ba P:a5 SP:f9
fad1  d0 13      BNE $fae6   A:ff X:ff Y:ba P:27 SP:f9
fad3  60         RTS         A:ff X:ff Y:ba P:27 SP:f9
ed74  ad 47 06   LDA $0647   A:ff X:ff Y:ba P:27 SP:fb
ed77  c9 00      CMP #$00    A:00 X:ff Y:ba P:27 SP:fb
ed79  f0 02      BEQ $ed7d   A:00 X:ff Y:ba P:27 SP:fb
ed7d  a0 ff      LDY #$ff    A:00 X:ff Y:ba P:27 SP:fb
ed7f  a9 37      LDA #$37    A:00 X:ff Y:ff P:a5 SP:fb
ed81  8d 47 06   STA $0647   A:37 X:ff Y:ff P:25 SP:fb
ed84  20 d4 fa   JSR $fad4   A:37 X:ff Y:ff P:25 SP:fb
fad4  24 01      BIT $01     A:37 X:ff Y:ff P:25 SP:f9
fad6  38         SEC         A:37 X:ff Y:ff P:e5 SP:f9
fad7  a9 f0      LDA #$f0    A:37 X:ff Y:ff P:e5 SP:f9
fad9  60         RTS         A:f0 X:ff Y:ff P:e5 SP:f9
ed87  fb 48 05   ISC $0548,Y A:f0 X:ff Y:ff P:e5 SP:fb
ed8a  ea         NOP         A:b8 X:ff Y:ff P:a5 SP:fb
ed8b  ea         NOP         A:b8 X:ff Y:ff P:a5 SP:fb
ed8c  08         PHP         A:b8 X:ff Y:ff P:a5 SP:fb
ed8d  48         PHA         A:b8 X:ff Y:ff P:a5 SP:fa
ed8e  a0 bb      LDY #$bb    A:b8 X:ff Y:ff P:a5 SP:f9
ed90  68         PLA         A:b8 X:ff Y:bb P:a5 SP:f9
ed91  28         PLP         A:b8 X:ff Y:bb P:a5 SP:fa
ed92  20 da fa   JSR $fada   A:b8 X:ff Y:bb P:a5 SP:fb
fada  70 0a      BVS $fae6   A:b8 X:ff Y:bb P:a5 SP:f9
fadc  f0 08      BEQ $fae6   A:b8 X:ff Y:bb P:a5 SP:f9
fade  10 06      BPL $fae6   A:b8 X:ff Y:bb P:a5 SP:f9
fae0  90 04      BCC $fae6   A:b8 X:ff Y:bb P:a5 SP:f9
fae2  c9 b8      CMP #$b8    A:b8 X:ff Y:bb P:a5 SP:f9
fae4  f0 02      BEQ $fae8   A:b8 X:ff Y:bb P:27 SP:f9
fae8  60         RTS         A:b8 X:ff Y:bb P:27 SP:f9
ed95  ad 47 06   LDA $0647   A:b8 X:ff Y:bb P:27 SP:fb
ed98  c9 38      CMP #$38    A:38 X:ff Y:bb P:25 SP:fb
ed9a  f0 02      BEQ $ed9e   A:38 X:ff Y:bb P:27 SP:fb
ed9e  a0 bc      LDY #$bc    A:38 X:ff Y:bb P:27 SP:fb
eda0  a2 ff      LDX #$ff    A:38 X:ff Y:bc P:a5 SP:fb
eda2  a9 eb      LDA #$eb    A:38 X:ff Y:bc P:a5 SP:fb
eda4  8d 47 06   STA $0647   A:eb X:ff Y:bc P:a5 SP:fb
eda7  20 b1 fa   JSR $fab1   A:eb X:ff Y:bc P:a5 SP:fb
fab1  24 01      BIT $01     A:eb X:ff Y:bc P:a5 SP:f9
fab3  18         CLC         A:eb X:ff Y:bc P:e5 SP:f9
fab4  a9 40      LDA #$40    A:eb X:ff Y:bc P:e4 SP:f9
fab6  60         RTS         A:40 X:ff Y:bc P:64 SP:f9
edaa  ff 48 05   ISC $0548,X A:40 X:ff Y:bc P:64 SP:fb
edad  ea         NOP         A:53 X:ff Y:bc P:24 SP:fb
edae  ea         NOP         A:53 X:ff Y:bc P:24 SP:fb
edaf  ea         NOP         A:53 X:ff Y:bc P:24 SP:fb
edb0  ea         NOP         A:53 X:ff Y:bc P:24 SP:fb
edb1  20 b7 fa   JSR $fab7   A:53 X:ff Y:bc P:24 SP:fb
fab7  70 2d      BVS $fae6   A:53 X:ff Y:bc P:24 SP:f9
fab9  b0 2b      BCS $fae6   A:53 X:ff Y:bc P:24 SP:f9
fabb  30 29      BMI $fae6   A:53 X:ff Y:bc P:24 SP:f9
fabd  c9 53      CMP #$53    A:53 X:ff Y:bc P:24 SP:f9
fabf  d0 25      BNE $fae6   A:53 X:ff Y:bc P:27 SP:f9
fac1  60         RTS         A:53 X:ff Y:bc P:27 SP:f9
edb4  ad 47 06   LDA $0647   A:53 X:ff Y:bc P:27 SP:fb
edb7  c9 ec      CMP #$ec    A:ec X:ff Y:bc P:a5 SP:fb
edb9  f0 02      BEQ $edbd   A:ec X:ff Y:bc P:27 SP:fb
edbd  c8         INY         A:ec X:ff Y:bc P:27 SP:fb
edbe  a9 ff      LDA #$ff    A:ec X:ff Y:bd P:a5 SP:fb
edc0  8d 47 06   STA $0647   A:ff X:ff Y:bd P:a5 SP:fb
edc3  20 c2 fa   JSR $fac2   A:ff X:ff Y:bd P:a5 SP:fb
fac2  b8         CLV         A:ff X:ff Y:bd P:a5 SP:f9
fac3  38         SEC         A:ff X:ff Y:bd P:a5 SP:f9
fac4  a9 ff      LDA #$ff    A:ff X:ff Y:bd P:a5 SP:f9
fac6  60         RTS         A:ff X:ff Y:bd P:a5 SP:f9
edc6  ff 48 05   ISC $0548,X A:ff X:ff Y:bd P:a5 SP:fb
edc9  ea         NOP         A:ff X:ff Y:bd P:a5 SP:fb
edca  ea         NOP         A:ff X:ff Y:bd P:a5 SP:fb
edcb  ea         NOP         A:ff X:ff Y:bd P:a5 SP:fb
edcc  ea         NOP         A:ff X:ff Y:bd P:a5 SP:fb
edcd  20 c7 fa   JSR $fac7   A:ff X:ff Y:bd P:a5 SP:fb
fac7  70 1d      BVS $fae6   A:ff X:ff Y:bd P:a5 SP:f9
fac9  f0 1b      BEQ $fae6   A:ff X:ff Y:bd P:a5 SP:f9
facb  10 19      BPL $fae6   A:ff X:ff Y:bd P:a5 SP:f9
facd  90 17      BCC $fae6   A:ff X:ff Y:bd P:a5 SP:f9
facf  c9 ff      CMP #$ff    A:ff X:ff Y:bd P:a5 SP:f9
fad1  d0 13      BNE $fae6   A:ff X:ff Y:bd P:27 SP:f9
fad3  60         RTS         A:ff X:ff Y:bd P:27 SP:f9
edd0  ad 47 06   LDA $0647   A:ff X:ff Y:bd P:27 SP:fb
edd3  c9 00      CMP #$00    A:00 X:ff Y:bd P:27 SP:fb
edd5  f0 02      BEQ $edd9   A:00 X:ff Y:bd P:27 SP:fb
edd9  c8         INY         A:00 X:ff Y:bd P:27 SP:fb
edda  a9 37      LDA #$37    A:00 X:ff Y:be P:a5 SP:fb
eddc  8d 47 06   STA $0647   A:37 X:ff Y:be P:25 SP:fb
eddf  20 d4 fa   JSR $fad4   A:37 X:ff Y:be P:25 SP:fb
fad4  24 01      BIT $01     A:37 X:ff Y:be P:25 SP:f9
fad6  38         SEC         A:37 X:ff Y:be P:e5 SP:f9
fad7  a9 f0      LDA #$f0    A:37 X:ff Y:be P:e5 SP:f9
fad9  60         RTS         A:f0 X:ff Y:be P:e5 SP:f9
ede2  ff 48 05   ISC $0548,X A:f0 X:ff Y:be P:e5 SP:fb
ede5  ea         NOP         A:b8 X:ff Y:be P:a5 SP:fb
ede6  ea         NOP         A:b8 X:ff Y:be P:a5 SP:fb
ede7  ea         NOP         A:b8 X:ff Y:be P:a5 SP:fb
ede8  ea         NOP         A:b8 X:ff Y:be P:a5 SP:fb
ede9  20 da fa   JSR $fada   A:b8 X:ff Y:be P:a5 SP:fb
fada  70 0a      BVS $fae6   A:b8 X:ff Y:be P:a5 SP:f9
fadc  f0 08      BEQ $fae6   A:b8 X:ff Y:be P:a5 SP:f9
fade  10 06      BPL $fae6   A:b8 X:ff Y:be P:a5 SP:f9
fae0  90 04      BCC $fae6   A:b8 X:ff Y:be P:a5 SP:f9
fae2  c9 b8      CMP #$b8    A:b8 X:ff Y:be P:a5 SP:f9
fae4  f0 02      BEQ $fae8   A:b8 X:ff Y:be P:27 SP:f9
fae8  60         RTS         A:b8 X:ff Y:be P:27 SP:f9
edec  ad 47 06   LDA $0647   A:b8 X:ff Y:be P:27 SP:fb
edef  c9 38      CMP #$38    A:38 X:ff Y:be P:25 SP:fb
edf1  f0 02      BEQ $edf5   A:38 X:ff Y:be P:27 SP:fb
edf5  60         RTS         A:38 X:ff Y:be P:27 SP:fb
c641  20 f6 ed   JSR $edf6   A:38 X:ff Y:be P:27 SP:fd
edf6  a9 ff      LDA #$ff    A:38 X:ff Y:be P:27 SP:fb
edf8  85 01      STA $01     A:ff X:ff Y:be P:a5 SP:fb
edfa  a0 bf      LDY #$bf    A:ff X:ff Y:be P:a5 SP:fb
edfc  a2 02      LDX #$02    A:ff X:ff Y:bf P:a5 SP:fb
edfe  a9 47      LDA #$47    A:ff X:02 Y:bf P:25 SP:fb
ee00  85 47      STA $47     A:47 X:02 Y:bf P:25 SP:fb
ee02  a9 06      LDA #$06    A:47 X:02 Y:bf P:25 SP:fb
ee04  85 48      STA $48     A:06 X:02 Y:bf P:25 SP:fb
ee06  a9 a5      LDA #$a5    A:06 X:02 Y:bf P:25 SP:fb
ee08  8d 47 06   STA $0647   A:a5 X:02 Y:bf P:a5 SP:fb
ee0b  20 7b fa   JSR $fa7b   A:a5 X:02 Y:bf P:a5 SP:fb
fa7b  24 01      BIT $01     A:a5 X:02 Y:bf P:a5 SP:f9
fa7d  18         CLC         A:a5 X:02 Y:bf P:e5 SP:f9
fa7e  a9 b3      LDA #$b3    A:a5 X:02 Y:bf P:e4 SP:f9
fa80  60         RTS         A:b3 X:02 Y:bf P:e4 SP:f9
ee0e  03 45      SLO ($45,X) A:b3 X:02 Y:bf P:e4 SP:fb
ee10  ea         NOP         A:fb X:02 Y:bf P:e5 SP:fb
ee11  ea         NOP         A:fb X:02 Y:bf P:e5 SP:fb
ee12  ea         NOP         A:fb X:02 Y:bf P:e5 SP:fb
ee13  ea         NOP         A:fb X:02 Y:bf P:e5 SP:fb
ee14  20 81 fa   JSR $fa81   A:fb X:02 Y:bf P:e5 SP:fb
fa81  50 63      BVC $fae6   A:fb X:02 Y:bf P:e5 SP:f9
fa83  90 61      BCC $fae6   A:fb X:02 Y:bf P:e5 SP:f9
fa85  10 5f      BPL $fae6   A:fb X:02 Y:bf P:e5 SP:f9
fa87  c9 fb      CMP #$fb    A:fb X:02 Y:bf P:e5 SP:f9
fa89  d0 5b      BNE $fae6   A:fb X:02 Y:bf P:67 SP:f9
fa8b  60         RTS         A:fb X:02 Y:bf P:67 SP:f9
ee17  ad 47 06   LDA $0647   A:fb X:02 Y:bf P:67 SP:fb
ee1a  c9 4a      CMP #$4a    A:4a X:02 Y:bf P:65 SP:fb
ee1c  f0 02      BEQ $ee20   A:4a X:02 Y:bf P:67 SP:fb
ee20  c8         INY         A:4a X:02 Y:bf P:67 SP:fb
ee21  a9 29      LDA #$29    A:4a X:02 Y:c0 P:e5 SP:fb
ee23  8d 47 06   STA $0647   A:29 X:02 Y:c0 P:65 SP:fb
ee26  20 8c fa   JSR $fa8c   A:29 X:02 Y:c0 P:65 SP:fb
fa8c  b8         CLV         A:29 X:02 Y:c0 P:65 SP:f9
fa8d  18         CLC         A:29 X:02 Y:c0 P:25 SP:f9
fa8e  a9 c3      LDA #$c3    A:29 X:02 Y:c0 P:24 SP:f9
fa90  60         RTS         A:c3 X:02 Y:c0 P:a4 SP:f9
ee29  03 45      SLO ($45,X) A:c3 X:02 Y:c0 P:a4 SP:fb
ee2b  ea         NOP         A:d3 X:02 Y:c0 P:a4 SP:fb
ee2c  ea         NOP         A:d3 X:02 Y:c0 P:a4 SP:fb
ee2d  ea         NOP         A:d3 X:02 Y:c0 P:a4 SP:fb
ee2e  ea         NOP         A:d3 X:02 Y:c0 P:a4 SP:fb
ee2f  20 91 fa   JSR $fa91   A:d3 X:02 Y:c0 P:a4 SP:fb
fa91  70 53      BVS $fae6   A:d3 X:02 Y:c0 P:a4 SP:f9
fa93  f0 51      BEQ $fae6   A:d3 X:02 Y:c0 P:a4 SP:f9
fa95  10 4f      BPL $fae6   A:d3 X:02 Y:c0 P:a4 SP:f9
fa97  b0 4d      BCS $fae6   A:d3 X:02 Y:c0 P:a4 SP:f9
fa99  c9 d3      CMP #$d3    A:d3 X:02 Y:c0 P:a4 SP:f9
fa9b  d0 49      BNE $fae6   A:d3 X:02 Y:c0 P:27 SP:f9
fa9d  60         RTS         A:d3 X:02 Y:c0 P:27 SP:f9
ee32  ad 47 06   LDA $0647   A:d3 X:02 Y:c0 P:27 SP:fb
ee35  c9 52      CMP #$52    A:52 X:02 Y:c0 P:25 SP:fb
ee37  f0 02      BEQ $ee3b   A:52 X:02 Y:c0 P:27 SP:fb
ee3b  c8         INY         A:52 X:02 Y:c0 P:27 SP:fb
ee3c  a9 37      LDA #$37    A:52 X:02 Y:c1 P:a5 SP:fb
ee3e  8d 47 06   STA $0647   A:37 X:02 Y:c1 P:25 SP:fb
ee41  20 9e fa   JSR $fa9e   A:37 X:02 Y:c1 P:25 SP:fb
fa9e  24 01      BIT $01     A:37 X:02 Y:c1 P:25 SP:f9
faa0  38         SEC         A:37 X:02 Y:c1 P:e5 SP:f9
faa1  a9 10      LDA #$10    A:37 X:02 Y:c1 P:e5 SP:f9
faa3  60         RTS         A:10 X:02 Y:c1 P:65 SP:f9
ee44  03 45      SLO ($45,X) A:10 X:02 Y:c1 P:65 SP:fb
ee46  ea         NOP         A:7e X:02 Y:c1 P:64 SP:fb
ee47  ea         NOP         A:7e X:02 Y:c1 P:64 SP:fb
ee48  ea         NOP         A:7e X:02 Y:c1 P:64 SP:fb
ee49  ea         NOP         A:7e X:02 Y:c1 P:64 SP:fb
ee4a  20 a4 fa   JSR $faa4   A:7e X:02 Y:c1 P:64 SP:fb
faa4  50 40      BVC $fae6   A:7e X:02 Y:c1 P:64 SP:f9
faa6  f0 3e      BEQ $fae6   A:7e X:02 Y:c1 P:64 SP:f9
faa8  30 3c      BMI $fae6   A:7e X:02 Y:c1 P:64 SP:f9
faaa  b0 3a      BCS $fae6   A:7e X:02 Y:c1 P:64 SP:f9
faac  c9 7e      CMP #$7e    A:7e X:02 Y:c1 P:64 SP:f9
faae  d0 36      BNE $fae6   A:7e X:02 Y:c1 P:67 SP:f9
fab0  60         RTS         A:7e X:02 Y:c1 P:67 SP:f9
ee4d  ad 47 06   LDA $0647   A:7e X:02 Y:c1 P:67 SP:fb
ee50  c9 6e      CMP #$6e    A:6e X:02 Y:c1 P:65 SP:fb
ee52  f0 02      BEQ $ee56   A:6e X:02 Y:c1 P:67 SP:fb
ee56  c8         INY         A:6e X:02 Y:c1 P:67 SP:fb
ee57  a9 a5      LDA #$a5    A:6e X:02 Y:c2 P:e5 SP:fb
ee59  85 47      STA $47     A:a5 X:02 Y:c2 P:e5 SP:fb
ee5b  20 7b fa   JSR $fa7b   A:a5 X:02 Y:c2 P:e5 SP:fb
fa7b  24 01      BIT $01     A:a5 X:02 Y:c2 P:e5 SP:f9
fa7d  18         CLC         A:a5 X:02 Y:c2 P:e5 SP:f9
fa7e  a9 b3      LDA #$b3    A:a5 X:02 Y:c2 P:e4 SP:f9
fa80  60         RTS         A:b3 X:02 Y:c2 P:e4 SP:f9
ee5e  07 47      SLO $47     A:b3 X:02 Y:c2 P:e4 SP:fb
ee60  ea         NOP         A:fb X:02 Y:c2 P:e5 SP:fb
ee61  ea         NOP         A:fb X:02 Y:c2 P:e5 SP:fb
ee62  ea         NOP         A:fb X:02 Y:c2 P:e5 SP:fb
ee63  ea         NOP         A:fb X:02 Y:c2 P:e5 SP:fb
ee64  20 81 fa   JSR $fa81   A:fb X:02 Y:c2 P:e5 SP:fb
fa81  50 63      BVC $fae6   A:fb X:02 Y:c2 P:e5 SP:f9
fa83  90 61      BCC $fae6   A:fb X:02 Y:c2 P:e5 SP:f9
fa85  10 5f      BPL $fae6   A:fb X:02 Y:c2 P:e5 SP:f9
fa87  c9 fb      CMP #$fb    A:fb X:02 Y:c2 P:e5 SP:f9
fa89  d0 5b      BNE $fae6   A:fb X:02 Y:c2 P:67 SP:f9
fa8b  60         RTS         A:fb X:02 Y:c2 P:67 SP:f9
ee67  a5 47      LDA $47     A:fb X:02 Y:c2 P:67 SP:fb
ee69  c9 4a      CMP #$4a    A:4a X:02 Y:c2 P:65 SP:fb
ee6b  f0 02      BEQ $ee6f   A:4a X:02 Y:c2 P:67 SP:fb
ee6f  c8         INY         A:4a X:02 Y:c2 P:67 SP:fb
ee70  a9 29      LDA #$29    A:4a X:02 Y:c3 P:e5 SP:fb
ee72  85 47      STA $47     A:29 X:02 Y:c3 P:65 SP:fb
ee74  20 8c fa   JSR $fa8c   A:29 X:02 Y:c3 P:65 SP:fb
fa8c  b8         CLV         A:29 X:02 Y:c3 P:65 SP:f9
fa8d  18         CLC         A:29 X:02 Y:c3 P:25 SP:f9
fa8e  a9 c3      LDA #$c3    A:29 X:02 Y:c3 P:24 SP:f9
fa90  60         RTS         A:c3 X:02 Y:c3 P:a4 SP:f9
ee77  07 47      SLO $47     A:c3 X:02 Y:c3 P:a4 SP:fb
ee79  ea         NOP         A:d3 X:02 Y:c3 P:a4 SP:fb
ee7a  ea         NOP         A:d3 X:02 Y:c3 P:a4 SP:fb
ee7b  ea         NOP         A:d3 X:02 Y:c3 P:a4 SP:fb
ee7c  ea         NOP         A:d3 X:02 Y:c3 P:a4 SP:fb
ee7d  20 91 fa   JSR $fa91   A:d3 X:02 Y:c3 P:a4 SP:fb
fa91  70 53      BVS $fae6   A:d3 X:02 Y:c3 P:a4 SP:f9
fa93  f0 51      BEQ $fae6   A:d3 X:02 Y:c3 P:a4 SP:f9
fa95  10 4f      BPL $fae6   A:d3 X:02 Y:c3 P:a4 SP:f9
fa97  b0 4d      BCS $fae6   A:d3 X:02 Y:c3 P:a4 SP:f9
fa99  c9 d3      CMP #$d3    A:d3 X:02 Y:c3 P:a4 SP:f9
fa9b  d0 49      BNE $fae6   A:d3 X:02 Y:c3 P:27 SP:f9
fa9d  60         RTS         A:d3 X:02 Y:c3 P:27 SP:f9
ee80  a5 47      LDA $47     A:d3 X:02 Y:c3 P:27 SP:fb
ee82  c9 52      CMP #$52    A:52 X:02 Y:c3 P:25 SP:fb
ee84  f0 02      BEQ $ee88   A:52 X:02 Y:c3 P:27 SP:fb
ee88  c8         INY         A:52 X:02 Y:c3 P:27 SP:fb
ee89  a9 37      LDA #$37    A:52 X:02 Y:c4 P:a5 SP:fb
ee8b  85 47      STA $47     A:37 X:02 Y:c4 P:25 SP:fb
ee8d  20 9e fa   JSR $fa9e   A:37 X:02 Y:c4 P:25 SP:fb
fa9e  24 01      BIT $01     A:37 X:02 Y:c4 P:25 SP:f9
faa0  38         SEC         A:37 X:02 Y:c4 P:e5 SP:f9
faa1  a9 10      LDA #$10    A:37 X:02 Y:c4 P:e5 SP:f9
faa3  60         RTS         A:10 X:02 Y:c4 P:65 SP:f9
ee90  07 47      SLO $47     A:10 X:02 Y:c4 P:65 SP:fb
ee92  ea         NOP         A:7e X:02 Y:c4 P:64 SP:fb
ee93  ea         NOP         A:7e X:02 Y:c4 P:64 SP:fb
ee94  ea         NOP         A:7e X:02 Y:c4 P:64 SP:fb
ee95  ea         NOP         A:7e X:02 Y:c4 P:64 SP:fb
ee96  20 a4 fa   JSR $faa4   A:7e X:02 Y:c4 P:64 SP:fb
faa4  50 40      BVC $fae6   A:7e X:02 Y:c4 P:64 SP:f9
faa6  f0 3e      BEQ $fae6   A:7e X:02 Y:c4 P:64 SP:f9
faa8  30 3c      BMI $fae6   A:7e X:02 Y:c4 P:64 SP:f9
faaa  b0 3a      BCS $fae6   A:7e X:02 Y:c4 P:64 SP:f9
faac  c9 7e      CMP #$7e    A:7e X:02 Y:c4 P:64 SP:f9
faae  d0 36      BNE $fae6   A:7e X:02 Y:c4 P:67 SP:f9
fab0  60         RTS         A:7e X:02 Y:c4 P:67 SP:f9
ee99  a5 47      LDA $47     A:7e X:02 Y:c4 P:67 SP:fb
ee9b  c9 6e      CMP #$6e    A:6e X:02 Y:c4 P:65 SP:fb
ee9d  f0 02      BEQ $eea1   A:6e X:02 Y:c4 P:67 SP:fb
eea1  c8         INY         A:6e X:02 Y:c4 P:67 SP:fb
eea2  a9 a5      LDA #$a5    A:6e X:02 Y:c5 P:e5 SP:fb
eea4  8d 47 06   STA $0647   A:a5 X:02 Y:c5 P:e5 SP:fb
eea7  20 7b fa   JSR $fa7b   A:a5 X:02 Y:c5 P:e5 SP:fb
fa7b  24 01      BIT $01     A:a5 X:02 Y:c5 P:e5 SP:f9
fa7d  18         CLC         A:a5 X:02 Y:c5 P:e5 SP:f9
fa7e  a9 b3      LDA #$b3    A:a5 X:02 Y:c5 P:e4 SP:f9
fa80  60         RTS         A:b3 X:02 Y:c5 P:e4 SP:f9
eeaa  0f 47 06   SLO $0647   A:b3 X:02 Y:c5 P:e4 SP:fb
eead  ea         NOP         A:fb X:02 Y:c5 P:e5 SP:fb
eeae  ea         NOP         A:fb X:02 Y:c5 P:e5 SP:fb
eeaf  ea         NOP         A:fb X:02 Y:c5 P:e5 SP:fb
eeb0  ea         NOP         A:fb X:02 Y:c5 P:e5 SP:fb
eeb1  20 81 fa   JSR $fa81   A:fb X:02 Y:c5 P:e5 SP:fb
fa81  50 63      BVC $fae6   A:fb X:02 Y:c5 P:e5 SP:f9
fa83  90 61      BCC $fae6   A:fb X:02 Y:c5 P:e5 SP:f9
fa85  10 5f      BPL $fae6   A:fb X:02 Y:c5 P:e5 SP:f9
fa87  c9 fb      CMP #$fb    A:fb X:02 Y:c5 P:e5 SP:f9
fa89  d0 5b      BNE $fae6   A:fb X:02 Y:c5 P:67 SP:f9
fa8b  60         RTS         A:fb X:02 Y:c5 P:67 SP:f9
eeb4  ad 47 06   LDA $0647   A:fb X:02 Y:c5 P:67 SP:fb
eeb7  c9 4a      CMP #$4a    A:4a X:02 Y:c5 P:65 SP:fb
eeb9  f0 02      BEQ $eebd   A:4a X:02 Y:c5 P:67 SP:fb
eebd  c8         INY         A:4a X:02 Y:c5 P:67 SP:fb
eebe  a9 29      LDA #$29    A:4a X:02 Y:c6 P:e5 SP:fb
eec0  8d 47 06   STA $0647   A:29 X:02 Y:c6 P:65 SP:fb
eec3  20 8c fa   JSR $fa8c   A:29 X:02 Y:c6 P:65 SP:fb
fa8c  b8         CLV         A:29 X:02 Y:c6 P:65 SP:f9
fa8d  18         CLC         A:29 X:02 Y:c6 P:25 SP:f9
fa8e  a9 c3      LDA #$c3    A:29 X:02 Y:c6 P:24 SP:f9
fa90  60         RTS         A:c3 X:02 Y:c6 P:a4 SP:f9
eec6  0f 47 06   SLO $0647   A:c3 X:02 Y:c6 P:a4 SP:fb
eec9  ea         NOP         A:d3 X:02 Y:c6 P:a4 SP:fb
eeca  ea         NOP         A:d3 X:02 Y:c6 P:a4 SP:fb
eecb  ea         NOP         A:d3 X:02 Y:c6 P:a4 SP:fb
eecc  ea         NOP         A:d3 X:02 Y:c6 P:a4 SP:fb
eecd  20 91 fa   JSR $fa91   A:d3 X:02 Y:c6 P:a4 SP:fb
fa91  70 53      BVS $fae6   A:d3 X:02 Y:c6 P:a4 SP:f9
fa93  f0 51      BEQ $fae6   A:d3 X:02 Y:c6 P:a4 SP:f9
fa95  10 4f      BPL $fae6   A:d3 X:02 Y:c6 P:a4 SP:f9
fa97  b0 4d      BCS $fae6   A:d3 X:02 Y:c6 P:a4 SP:f9
fa99  c9 d3      CMP #$d3    A:d3 X:02 Y:c6 P:a4 SP:f9
fa9b  d0 49      BNE $fae6   A:d3 X:02 Y:c6 P:27 SP:f9
fa9d  60         RTS         A:d3 X:02 Y:c6 P:27 SP:f9
eed0  ad 47 06   LDA $0647   A:d3 X:02 Y:c6 P:27 SP:fb
eed3  c9 52      CMP #$52    A:52 X:02 Y:c6 P:25 SP:fb
eed5  f0 02      BEQ $eed9   A:52 X:02 Y:c6 P:27 SP:fb
eed9  c8         INY         A:52 X:02 Y:c6 P:27 SP:fb
eeda  a9 37      LDA #$37    A:52 X:02 Y:c7 P:a5 SP:fb
eedc  8d 47 06   STA $0647   A:37 X:02 Y:c7 P:25 SP:fb
eedf  20 9e fa   JSR $fa9e   A:37 X:02 Y:c7 P:25 SP:fb
fa9e  24 01      BIT $01     A:37 X:02 Y:c7 P:25 SP:f9
faa0  38         SEC         A:37 X:02 Y:c7 P:e5 SP:f9
faa1  a9 10      LDA #$10    A:37 X:02 Y:c7 P:e5 SP:f9
faa3  60         RTS         A:10 X:02 Y:c7 P:65 SP:f9
eee2  0f 47 06   SLO $0647   A:10 X:02 Y:c7 P:65 SP:fb
eee5  ea         NOP         A:7e X:02 Y:c7 P:64 SP:fb
eee6  ea         NOP         A:7e X:02 Y:c7 P:64 SP:fb
eee7  ea         NOP         A:7e X:02 Y:c7 P:64 SP:fb
eee8  ea         NOP         A:7e X:02 Y:c7 P:64 SP:fb
eee9  20 a4 fa   JSR $faa4   A:7e X:02 Y:c7 P:64 SP:fb
faa4  50 40      BVC $fae6   A:7e X:02 Y:c7 P:64 SP:f9
faa6  f0 3e      BEQ $fae6   A:7e X:02 Y:c7 P:64 SP:f9
faa8  30 3c      BMI $fae6   A:7e X:02 Y:c7 P:64 SP:f9
faaa  b0 3a      BCS $fae6   A:7e X:02 Y:c7 P:64 SP:f9
faac  c9 7e      CMP #$7e    A:7e X:02 Y:c7 P:64 SP:f9
faae  d0 36      BNE $fae6   A:7e X:02 Y:c7 P:67 SP:f9
fab0  60         RTS         A:7e X:02 Y:c7 P:67 SP:f9
eeec  ad 47 06   LDA $0647   A:7e X:02 Y:c7 P:67 SP:fb
eeef  c9 6e      CMP #$6e    A:6e X:02 Y:c7 P:65 SP:fb
eef1  f0 02      BEQ $eef5   A:6e X:02 Y:c7 P:67 SP:fb
eef5  a9 a5      LDA #$a5    A:6e X:02 Y:c7 P:67 SP:fb
eef7  8d 47 06   STA $0647   A:a5 X:02 Y:c7 P:e5 SP:fb
eefa  a9 48      LDA #$48    A:a5 X:02 Y:c7 P:e5 SP:fb
eefc  85 45      STA $45     A:48 X:02 Y:c7 P:65 SP:fb
eefe  a9 05      LDA #$05    A:48 X:02 Y:c7 P:65 SP:fb
ef00  85 46      STA $46     A:05 X:02 Y:c7 P:65 SP:fb
ef02  a0 ff      LDY #$ff    A:05 X:02 Y:c7 P:65 SP:fb
ef04  20 7b fa   JSR $fa7b   A:05 X:02 Y:ff P:e5 SP:fb
fa7b  24 01      BIT $01     A:05 X:02 Y:ff P:e5 SP:f9
fa7d  18         CLC         A:05 X:02 Y:ff P:e5 SP:f9
fa7e  a9 b3      LDA #$b3    A:05 X:02 Y:ff P:e4 SP:f9
fa80  60         RTS         A:b3 X:02 Y:ff P:e4 SP:f9
ef07  13 45      SLO ($45),Y A:b3 X:02 Y:ff P:e4 SP:fb
ef09  ea         NOP         A:fb X:02 Y:ff P:e5 SP:fb
ef0a  ea         NOP         A:fb X:02 Y:ff P:e5 SP:fb
ef0b  08         PHP         A:fb X:02 Y:ff P:e5 SP:fb
ef0c  48         PHA         A:fb X:02 Y:ff P:e5 SP:fa
ef0d  a0 c8      LDY #$c8    A:fb X:02 Y:ff P:e5 SP:f9
ef0f  68         PLA         A:fb X:02 Y:c8 P:e5 SP:f9
ef10  28         PLP         A:fb X:02 Y:c8 P:e5 SP:fa
ef11  20 81 fa   JSR $fa81   A:fb X:02 Y:c8 P:e5 SP:fb
fa81  50 63      BVC $fae6   A:fb X:02 Y:c8 P:e5 SP:f9
fa83  90 61      BCC $fae6   A:fb X:02 Y:c8 P:e5 SP:f9
fa85  10 5f      BPL $fae6   A:fb X:02 Y:c8 P:e5 SP:f9
fa87  c9 fb      CMP #$fb    A:fb X:02 Y:c8 P:e5 SP:f9
fa89  d0 5b      BNE $fae6   A:fb X:02 Y:c8 P:67 SP:f9
fa8b  60         RTS         A:fb X:02 Y:c8 P:67 SP:f9
ef14  ad 47 06   LDA $0647   A:fb X:02 Y:c8 P:67 SP:fb
ef17  c9 4a      CMP #$4a    A:4a X:02 Y:c8 P:65 SP:fb
ef19  f0 02      BEQ $ef1d   A:4a X:02 Y:c8 P:67 SP:fb
ef1d  a0 ff      LDY #$ff    A:4a X:02 Y:c8 P:67 SP:fb
ef1f  a9 29      LDA #$29    A:4a X:02 Y:ff P:e5 SP:fb
ef21  8d 47 06   STA $0647   A:29 X:02 Y:ff P:65 SP:fb
ef24  20 8c fa   JSR $fa8c   A:29 X:02 Y:ff P:65 SP:fb
fa8c  b8         CLV         A:29 X:02 Y:ff P:65 SP:f9
fa8d  18         CLC         A:29 X:02 Y:ff P:25 SP:f9
fa8e  a9 c3      LDA #$c3    A:29 X:02 Y:ff P:24 SP:f9
fa90  60         RTS         A:c3 X:02 Y:ff P:a4 SP:f9
ef27  13 45      SLO ($45),Y A:c3 X:02 Y:ff P:a4 SP:fb
ef29  ea         NOP         A:d3 X:02 Y:ff P:a4 SP:fb
ef2a  ea         NOP         A:d3 X:02 Y:ff P:a4 SP:fb
ef2b  08         PHP         A:d3 X:02 Y:ff P:a4 SP:fb
ef2c  48         PHA         A:d3 X:02 Y:ff P:a4 SP:fa
ef2d  a0 c9      LDY #$c9    A:d3 X:02 Y:ff P:a4 SP:f9
ef2f  68         PLA         A:d3 X:02 Y:c9 P:a4 SP:f9
ef30  28         PLP         A:d3 X:02 Y:c9 P:a4 SP:fa
ef31  20 91 fa   JSR $fa91   A:d3 X:02 Y:c9 P:a4 SP:fb
fa91  70 53      BVS $fae6   A:d3 X:02 Y:c9 P:a4 SP:f9
fa93  f0 51      BEQ $fae6   A:d3 X:02 Y:c9 P:a4 SP:f9
fa95  10 4f      BPL $fae6   A:d3 X:02 Y:c9 P:a4 SP:f9
fa97  b0 4d      BCS $fae6   A:d3 X:02 Y:c9 P:a4 SP:f9
fa99  c9 d3      CMP #$d3    A:d3 X:02 Y:c9 P:a4 SP:f9
fa9b  d0 49      BNE $fae6   A:d3 X:02 Y:c9 P:27 SP:f9
fa9d  60         RTS         A:d3 X:02 Y:c9 P:27 SP:f9
ef34  ad 47 06   LDA $0647   A:d3 X:02 Y:c9 P:27 SP:fb
ef37  c9 52      CMP #$52    A:52 X:02 Y:c9 P:25 SP:fb
ef39  f0 02      BEQ $ef3d   A:52 X:02 Y:c9 P:27 SP:fb
ef3d  a0 ff      LDY #$ff    A:52 X:02 Y:c9 P:27 SP:fb
ef3f  a9 37      LDA #$37    A:52 X:02 Y:ff P:a5 SP:fb
ef41  8d 47 06   STA $0647   A:37 X:02 Y:ff P:25 SP:fb
ef44  20 9e fa   JSR $fa9e   A:37 X:02 Y:ff P:25 SP:fb
fa9e  24 01      BIT $01     A:37 X:02 Y:ff P:25 SP:f9
faa0  38         SEC         A:37 X:02 Y:ff P:e5 SP:f9
faa1  a9 10      LDA #$10    A:37 X:02 Y:ff P:e5 SP:f9
faa3  60         RTS         A:10 X:02 Y:ff P:65 SP:f9
ef47  13 45      SLO ($45),Y A:10 X:02 Y:ff P:65 SP:fb
ef49  ea         NOP         A:7e X:02 Y:ff P:64 SP:fb
ef4a  ea         NOP         A:7e X:02 Y:ff P:64 SP:fb
ef4b  08         PHP         A:7e X:02 Y:ff P:64 SP:fb
ef4c  48         PHA         A:7e X:02 Y:ff P:64 SP:fa
ef4d  a0 ca      LDY #$ca    A:7e X:02 Y:ff P:64 SP:f9
ef4f  68         PLA         A:7e X:02 Y:ca P:e4 SP:f9
ef50  28         PLP         A:7e X:02 Y:ca P:64 SP:fa
ef51  20 a4 fa   JSR $faa4   A:7e X:02 Y:ca P:64 SP:fb
faa4  50 40      BVC $fae6   A:7e X:02 Y:ca P:64 SP:f9
faa6  f0 3e      BEQ $fae6   A:7e X:02 Y:ca P:64 SP:f9
faa8  30 3c      BMI $fae6   A:7e X:02 Y:ca P:64 SP:f9
faaa  b0 3a      BCS $fae6   A:7e X:02 Y:ca P:64 SP:f9
faac  c9 7e      CMP #$7e    A:7e X:02 Y:ca P:64 SP:f9
faae  d0 36      BNE $fae6   A:7e X:02 Y:ca P:67 SP:f9
fab0  60         RTS         A:7e X:02 Y:ca P:67 SP:f9
ef54  ad 47 06   LDA $0647   A:7e X:02 Y:ca P:67 SP:fb
ef57  c9 6e      CMP #$6e    A:6e X:02 Y:ca P:65 SP:fb
ef59  f0 02      BEQ $ef5d   A:6e X:02 Y:ca P:67 SP:fb
ef5d  a0 cb      LDY #$cb    A:6e X:02 Y:ca P:67 SP:fb
ef5f  a2 ff      LDX #$ff    A:6e X:02 Y:cb P:e5 SP:fb
ef61  a9 a5      LDA #$a5    A:6e X:ff Y:cb P:e5 SP:fb
ef63  85 47      STA $47     A:a5 X:ff Y:cb P:e5 SP:fb
ef65  20 7b fa   JSR $fa7b   A:a5 X:ff Y:cb P:e5 SP:fb
fa7b  24 01      BIT $01     A:a5 X:ff Y:cb P:e5 SP:f9
fa7d  18         CLC         A:a5 X:ff Y:cb P:e5 SP:f9
fa7e  a9 b3      LDA #$b3    A:a5 X:ff Y:cb P:e4 SP:f9
fa80  60         RTS         A:b3 X:ff Y:cb P:e4 SP:f9
ef68  17 48      SLO $48,X   A:b3 X:ff Y:cb P:e4 SP:fb
ef6a  ea         NOP         A:fb X:ff Y:cb P:e5 SP:fb
ef6b  ea         NOP         A:fb X:ff Y:cb P:e5 SP:fb
ef6c  ea         NOP         A:fb X:ff Y:cb P:e5 SP:fb
ef6d  ea         NOP         A:fb X:ff Y:cb P:e5 SP:fb
ef6e  20 81 fa   JSR $fa81   A:fb X:ff Y:cb P:e5 SP:fb
fa81  50 63      BVC $fae6   A:fb X:ff Y:cb P:e5 SP:f9
fa83  90 61      BCC $fae6   A:fb X:ff Y:cb P:e5 SP:f9
fa85  10 5f      BPL $fae6   A:fb X:ff Y:cb P:e5 SP:f9
fa87  c9 fb      CMP #$fb    A:fb X:ff Y:cb P:e5 SP:f9
fa89  d0 5b      BNE $fae6   A:fb X:ff Y:cb P:67 SP:f9
fa8b  60         RTS         A:fb X:ff Y:cb P:67 SP:f9
ef71  a5 47      LDA $47     A:fb X:ff Y:cb P:67 SP:fb
ef73  c9 4a      CMP #$4a    A:4a X:ff Y:cb P:65 SP:fb
ef75  f0 02      BEQ $ef79   A:4a X:ff Y:cb P:67 SP:fb
ef79  c8         INY         A:4a X:ff Y:cb P:67 SP:fb
ef7a  a9 29      LDA #$29    A:4a X:ff Y:cc P:e5 SP:fb
ef7c  85 47      STA $47     A:29 X:ff Y:cc P:65 SP:fb
ef7e  20 8c fa   JSR $fa8c   A:29 X:ff Y:cc P:65 SP:fb
fa8c  b8         CLV         A:29 X:ff Y:cc P:65 SP:f9
fa8d  18         CLC         A:29 X:ff Y:cc P:25 SP:f9
fa8e  a9 c3      LDA #$c3    A:29 X:ff Y:cc P:24 SP:f9
fa90  60         RTS         A:c3 X:ff Y:cc P:a4 SP:f9
ef81  17 48      SLO $48,X   A:c3 X:ff Y:cc P:a4 SP:fb
ef83  ea         NOP         A:d3 X:ff Y:cc P:a4 SP:fb
ef84  ea         NOP         A:d3 X:ff Y:cc P:a4 SP:fb
ef85  ea         NOP         A:d3 X:ff Y:cc P:a4 SP:fb
ef86  ea         NOP         A:d3 X:ff Y:cc P:a4 SP:fb
ef87  20 91 fa   JSR $fa91   A:d3 X:ff Y:cc P:a4 SP:fb
fa91  70 53      BVS $fae6   A:d3 X:ff Y:cc P:a4 SP:f9
fa93  f0 51      BEQ $fae6   A:d3 X:ff Y:cc P:a4 SP:f9
fa95  10 4f      BPL $fae6   A:d3 X:ff Y:cc P:a4 SP:f9
fa97  b0 4d      BCS $fae6   A:d3 X:ff Y:cc P:a4 SP:f9
fa99  c9 d3      CMP #$d3    A:d3 X:ff Y:cc P:a4 SP:f9
fa9b  d0 49      BNE $fae6   A:d3 X:ff Y:cc P:27 SP:f9
fa9d  60         RTS         A:d3 X:ff Y:cc P:27 SP:f9
ef8a  a5 47      LDA $47     A:d3 X:ff Y:cc P:27 SP:fb
ef8c  c9 52      CMP #$52    A:52 X:ff Y:cc P:25 SP:fb
ef8e  f0 02      BEQ $ef92   A:52 X:ff Y:cc P:27 SP:fb
ef92  c8         INY         A:52 X:ff Y:cc P:27 SP:fb
ef93  a9 37      LDA #$37    A:52 X:ff Y:cd P:a5 SP:fb
ef95  85 47      STA $47     A:37 X:ff Y:cd P:25 SP:fb
ef97  20 9e fa   JSR $fa9e   A:37 X:ff Y:cd P:25 SP:fb
fa9e  24 01      BIT $01     A:37 X:ff Y:cd P:25 SP:f9
faa0  38         SEC         A:37 X:ff Y:cd P:e5 SP:f9
faa1  a9 10      LDA #$10    A:37 X:ff Y:cd P:e5 SP:f9
faa3  60         RTS         A:10 X:ff Y:cd P:65 SP:f9
ef9a  17 48      SLO $48,X   A:10 X:ff Y:cd P:65 SP:fb
ef9c  ea         NOP         A:7e X:ff Y:cd P:64 SP:fb
ef9d  ea         NOP         A:7e X:ff Y:cd P:64 SP:fb
ef9e  ea         NOP         A:7e X:ff Y:cd P:64 SP:fb
ef9f  ea         NOP         A:7e X:ff Y:cd P:64 SP:fb
efa0  20 a4 fa   JSR $faa4   A:7e X:ff Y:cd P:64 SP:fb
faa4  50 40      BVC $fae6   A:7e X:ff Y:cd P:64 SP:f9
faa6  f0 3e      BEQ $fae6   A:7e X:ff Y:cd P:64 SP:f9
faa8  30 3c      BMI $fae6   A:7e X:ff Y:cd P:64 SP:f9
faaa  b0 3a      BCS $fae6   A:7e X:ff Y:cd P:64 SP:f9
faac  c9 7e      CMP #$7e    A:7e X:ff Y:cd P:64 SP:f9
faae  d0 36      BNE $fae6   A:7e X:ff Y:cd P:67 SP:f9
fab0  60         RTS         A:7e X:ff Y:cd P:67 SP:f9
efa3  a5 47      LDA $47     A:7e X:ff Y:cd P:67 SP:fb
efa5  c9 6e      CMP #$6e    A:6e X:ff Y:cd P:65 SP:fb
efa7  f0 02      BEQ $efab   A:6e X:ff Y:cd P:67 SP:fb
efab  a9 a5      LDA #$a5    A:6e X:ff Y:cd P:67 SP:fb
efad  8d 47 06   STA $0647   A:a5 X:ff Y:cd P:e5 SP:fb
efb0  a0 ff      LDY #$ff    A:a5 X:ff Y:cd P:e5 SP:fb
efb2  20 7b fa   JSR $fa7b   A:a5 X:ff Y:ff P:e5 SP:fb
fa7b  24 01      BIT $01     A:a5 X:ff Y:ff P:e5 SP:f9
fa7d  18         CLC         A:a5 X:ff Y:ff P:e5 SP:f9
fa7e  a9 b3      LDA #$b3    A:a5 X:ff Y:ff P:e4 SP:f9
fa80  60         RTS         A:b3 X:ff Y:ff P:e4 SP:f9
efb5  1b 48 05   SLO $0548,Y A:b3 X:ff Y:ff P:e4 SP:fb
efb8  ea         NOP         A:fb X:ff Y:ff P:e5 SP:fb
efb9  ea         NOP         A:fb X:ff Y:ff P:e5 SP:fb
efba  08         PHP         A:fb X:ff Y:ff P:e5 SP:fb
efbb  48         PHA         A:fb X:ff Y:ff P:e5 SP:fa
efbc  a0 ce      LDY #$ce    A:fb X:ff Y:ff P:e5 SP:f9
efbe  68         PLA         A:fb X:ff Y:ce P:e5 SP:f9
efbf  28         PLP         A:fb X:ff Y:ce P:e5 SP:fa
efc0  20 81 fa   JSR $fa81   A:fb X:ff Y:ce P:e5 SP:fb
fa81  50 63      BVC $fae6   A:fb X:ff Y:ce P:e5 SP:f9
fa83  90 61      BCC $fae6   A:fb X:ff Y:ce P:e5 SP:f9
fa85  10 5f      BPL $fae6   A:fb X:ff Y:ce P:e5 SP:f9
fa87  c9 fb      CMP #$fb    A:fb X:ff Y:ce P:e5 SP:f9
fa89  d0 5b      BNE $fae6   A:fb X:ff Y:ce P:67 SP:f9
fa8b  60         RTS         A:fb X:ff Y:ce P:67 SP:f9
efc3  ad 47 06   LDA $0647   A:fb X:ff Y:ce P:67 SP:fb
efc6  c9 4a      CMP #$4a    A:4a X:ff Y:ce P:65 SP:fb
efc8  f0 02      BEQ $efcc   A:4a X:ff Y:ce P:67 SP:fb
efcc  a0 ff      LDY #$ff    A:4a X:ff Y:ce P:67 SP:fb
efce  a9 29      LDA #$29    A:4a X:ff Y:ff P:e5 SP:fb
efd0  8d 47 06   STA $0647   A:29 X:ff Y:ff P:65 SP:fb
efd3  20 8c fa   JSR $fa8c   A:29 X:ff Y:ff P:65 SP:fb
fa8c  b8         CLV         A:29 X:ff Y:ff P:65 SP:f9
fa8d  18         CLC         A:29 X:ff Y:ff P:25 SP:f9
fa8e  a9 c3      LDA #$c3    A:29 X:ff Y:ff P:24 SP:f9
fa90  60         RTS         A:c3 X:ff Y:ff P:a4 SP:f9
efd6  1b 48 05   SLO $0548,Y A:c3 X:ff Y:ff P:a4 SP:fb
efd9  ea         NOP         A:d3 X:ff Y:ff P:a4 SP:fb
efda  ea         NOP         A:d3 X:ff Y:ff P:a4 SP:fb
efdb  08         PHP         A:d3 X:ff Y:ff P:a4 SP:fb
efdc  48         PHA         A:d3 X:ff Y:ff P:a4 SP:fa
efdd  a0 cf      LDY #$cf    A:d3 X:ff Y:ff P:a4 SP:f9
efdf  68         PLA         A:d3 X:ff Y:cf P:a4 SP:f9
efe0  28         PLP         A:d3 X:ff Y:cf P:a4 SP:fa
efe1  20 91 fa   JSR $fa91   A:d3 X:ff Y:cf P:a4 SP:fb
fa91  70 53      BVS $fae6   A:d3 X:ff Y:cf P:a4 SP:f9
fa93  f0 51      BEQ $fae6   A:d3 X:ff Y:cf P:a4 SP:f9
fa95  10 4f      BPL $fae6   A:d3 X:ff Y:cf P:a4 SP:f9
fa97  b0 4d      BCS $fae6   A:d3 X:ff Y:cf P:a4 SP:f9
fa99  c9 d3      CMP #$d3    A:d3 X:ff Y:cf P:a4 SP:f9
fa9b  d0 49      BNE $fae6   A:d3 X:ff Y:cf P:27 SP:f9
fa9d  60         RTS         A:d3 X:ff Y:cf P:27 SP:f9
efe4  ad 47 06   LDA $0647   A:d3 X:ff Y:cf P:27 SP:fb
efe7  c9 52      CMP #$52    A:52 X:ff Y:cf P:25 SP:fb
efe9  f0 02      BEQ $efed   A:52 X:ff Y:cf P:27 SP:fb
efed  a0 ff      LDY #$ff    A:52 X:ff Y:cf P:27 SP:fb
efef  a9 37      LDA #$37    A:52 X:ff Y:ff P:a5 SP:fb
eff1  8d 47 06   STA $0647   A:37 X:ff Y:ff P:25 SP:fb
eff4  20 9e fa   JSR $fa9e   A:37 X:ff Y:ff P:25 SP:fb
fa9e  24 01      BIT $01     A:37 X:ff Y:ff P:25 SP:f9
faa0  38         SEC         A:37 X:ff Y:ff P:e5 SP:f9
faa1  a9 10      LDA #$10    A:37 X:ff Y:ff P:e5 SP:f9
faa3  60         RTS         A:10 X:ff Y:ff P:65 SP:f9
eff7  1b 48 05   SLO $0548,Y A:10 X:ff Y:ff P:65 SP:fb
effa  ea         NOP         A:7e X:ff Y:ff P:64 SP:fb
effb  ea         NOP         A:7e X:ff Y:ff P:64 SP:fb
effc  08         PHP         A:7e X:ff Y:ff P:64 SP:fb
effd  48         PHA         A:7e X:ff Y:ff P:64 SP:fa
effe  a0 d0      LDY #$d0    A:7e X:ff Y:ff P:64 SP:f9
f000  68         PLA         A:7e X:ff Y:d0 P:e4 SP:f9
f001  28         PLP         A:7e X:ff Y:d0 P:64 SP:fa
f002  20 a4 fa   JSR $faa4   A:7e X:ff Y:d0 P:64 SP:fb
faa4  50 40      BVC $fae6   A:7e X:ff Y:d0 P:64 SP:f9
faa6  f0 3e      BEQ $fae6   A:7e X:ff Y:d0 P:64 SP:f9
faa8  30 3c      BMI $fae6   A:7e X:ff Y:d0 P:64 SP:f9
faaa  b0 3a      BCS $fae6   A:7e X:ff Y:d0 P:64 SP:f9
faac  c9 7e      CMP #$7e    A:7e X:ff Y:d0 P:64 SP:f9
faae  d0 36      BNE $fae6   A:7e X:ff Y:d0 P:67 SP:f9
fab0  60         RTS         A:7e X:ff Y:d0 P:67 SP:f9
f005  ad 47 06   LDA $0647   A:7e X:ff Y:d0 P:67 SP:fb
f008  c9 6e      CMP #$6e    A:6e X:ff Y:d0 P:65 SP:fb
f00a  f0 02      BEQ $f00e   A:6e X:ff Y:d0 P:67 SP:fb
f00e  a0 d1      LDY #$d1    A:6e X:ff Y:d0 P:67 SP:fb
f010  a2 ff      LDX #$ff    A:6e X:ff Y:d1 P:e5 SP:fb
f012  a9 a5      LDA #$a5    A:6e X:ff Y:d1 P:e5 SP:fb
f014  8d 47 06   STA $0647   A:a5 X:ff Y:d1 P:e5 SP:fb
f017  20 7b fa   JSR $fa7b   A:a5 X:ff Y:d1 P:e5 SP:fb
fa7b  24 01      BIT $01     A:a5 X:ff Y:d1 P:e5 SP:f9
fa7d  18         CLC         A:a5 X:ff Y:d1 P:e5 SP:f9
fa7e  a9 b3      LDA #$b3    A:a5 X:ff Y:d1 P:e4 SP:f9
fa80  60         RTS         A:b3 X:ff Y:d1 P:e4 SP:f9
f01a  1f 48 05   SLO $0548,X A:b3 X:ff Y:d1 P:e4 SP:fb
f01d  ea         NOP         A:fb X:ff Y:d1 P:e5 SP:fb
f01e  ea         NOP         A:fb X:ff Y:d1 P:e5 SP:fb
f01f  ea         NOP         A:fb X:ff Y:d1 P:e5 SP:fb
f020  ea         NOP         A:fb X:ff Y:d1 P:e5 SP:fb
f021  20 81 fa   JSR $fa81   A:fb X:ff Y:d1 P:e5 SP:fb
fa81  50 63      BVC $fae6   A:fb X:ff Y:d1 P:e5 SP:f9
fa83  90 61      BCC $fae6   A:fb X:ff Y:d1 P:e5 SP:f9
fa85  10 5f      BPL $fae6   A:fb X:ff Y:d1 P:e5 SP:f9
fa87  c9 fb      CMP #$fb    A:fb X:ff Y:d1 P:e5 SP:f9
fa89  d0 5b      BNE $fae6   A:fb X:ff Y:d1 P:67 SP:f9
fa8b  60         RTS         A:fb X:ff Y:d1 P:67 SP:f9
f024  ad 47 06   LDA $0647   A:fb X:ff Y:d1 P:67 SP:fb
f027  c9 4a      CMP #$4a    A:4a X:ff Y:d1 P:65 SP:fb
f029  f0 02      BEQ $f02d   A:4a X:ff Y:d1 P:67 SP:fb
f02d  c8         INY         A:4a X:ff Y:d1 P:67 SP:fb
f02e  a9 29      LDA #$29    A:4a X:ff Y:d2 P:e5 SP:fb
f030  8d 47 06   STA $0647   A:29 X:ff Y:d2 P:65 SP:fb
f033  20 8c fa   JSR $fa8c   A:29 X:ff Y:d2 P:65 SP:fb
fa8c  b8         CLV         A:29 X:ff Y:d2 P:65 SP:f9
fa8d  18         CLC         A:29 X:ff Y:d2 P:25 SP:f9
fa8e  a9 c3      LDA #$c3    A:29 X:ff Y:d2 P:24 SP:f9
fa90  60         RTS         A:c3 X:ff Y:d2 P:a4 SP:f9
f036  1f 48 05   SLO $0548,X A:c3 X:ff Y:d2 P:a4 SP:fb
f039  ea         NOP         A:d3 X:ff Y:d2 P:a4 SP:fb
f03a  ea         NOP         A:d3 X:ff Y:d2 P:a4 SP:fb
f03b  ea         NOP         A:d3 X:ff Y:d2 P:a4 SP:fb
f03c  ea         NOP         A:d3 X:ff Y:d2 P:a4 SP:fb
f03d  20 91 fa   JSR $fa91   A:d3 X:ff Y:d2 P:a4 SP:fb
fa91  70 53      BVS $fae6   A:d3 X:ff Y:d2 P:a4 SP:f9
fa93  f0 51      BEQ $fae6   A:d3 X:ff Y:d2 P:a4 SP:f9
fa95  10 4f      BPL $fae6   A:d3 X:ff Y:d2 P:a4 SP:f9
fa97  b0 4d      BCS $fae6   A:d3 X:ff Y:d2 P:a4 SP:f9
fa99  c9 d3      CMP #$d3    A:d3 X:ff Y:d2 P:a4 SP:f9
fa9b  d0 49      BNE $fae6   A:d3 X:ff Y:d2 P:27 SP:f9
fa9d  60         RTS         A:d3 X:ff Y:d2 P:27 SP:f9
f040  ad 47 06   LDA $0647   A:d3 X:ff Y:d2 P:27 SP:fb
f043  c9 52      CMP #$52    A:52 X:ff Y:d2 P:25 SP:fb
f045  f0 02      BEQ $f049   A:52 X:ff Y:d2 P:27 SP:fb
f049  c8         INY         A:52 X:ff Y:d2 P:27 SP:fb
f04a  a9 37      LDA #$37    A:52 X:ff Y:d3 P:a5 SP:fb
f04c  8d 47 06   STA $0647   A:37 X:ff Y:d3 P:25 SP:fb
f04f  20 9e fa   JSR $fa9e   A:37 X:ff Y:d3 P:25 SP:fb
fa9e  24 01      BIT $01     A:37 X:ff Y:d3 P:25 SP:f9
faa0  38         SEC         A:37 X:ff Y:d3 P:e5 SP:f9
faa1  a9 10      LDA #$10    A:37 X:ff Y:d3 P:e5 SP:f9
faa3  60         RTS         A:10 X:ff Y:d3 P:65 SP:f9
f052  1f 48 05   SLO $0548,X A:10 X:ff Y:d3 P:65 SP:fb
f055  ea         NOP         A:7e X:ff Y:d3 P:64 SP:fb
f056  ea         NOP         A:7e X:ff Y:d3 P:64 SP:fb
f057  ea         NOP         A:7e X:ff Y:d3 P:64 SP:fb
f058  ea         NOP         A:7e X:ff Y:d3 P:64 SP:fb
f059  20 a4 fa   JSR $faa4   A:7e X:ff Y:d3 P:64 SP:fb
faa4  50 40      BVC $fae6   A:7e X:ff Y:d3 P:64 SP:f9
faa6  f0 3e      BEQ $fae6   A:7e X:ff Y:d3 P:64 SP:f9
faa8  30 3c      BMI $fae6   A:7e X:ff Y:d3 P:64 SP:f9
faaa  b0 3a      BCS $fae6   A:7e X:ff Y:d3 P:64 SP:f9
faac  c9 7e      CMP #$7e    A:7e X:ff Y:d3 P:64 SP:f9
faae  d0 36      BNE $fae6   A:7e X:ff Y:d3 P:67 SP:f9
fab0  60         RTS         A:7e X:ff Y:d3 P:67 SP:f9
f05c  ad 47 06   LDA $0647   A:7e X:ff Y:d3 P:67 SP:fb
f05f  c9 6e      CMP #$6e    A:6e X:ff Y:d3 P:65 SP:fb
f061  f0 02      BEQ $f065   A:6e X:ff Y:d3 P:67 SP:fb
f065  60         RTS         A:6e X:ff Y:d3 P:67 SP:fb
c644  20 66 f0   JSR $f066   A:6e X:ff Y:d3 P:67 SP:fd
f066  a9 ff      LDA #$ff    A:6e X:ff Y:d3 P:67 SP:fb
f068  85 01      STA $01     A:ff X:ff Y:d3 P:e5 SP:fb
f06a  a0 d4      LDY #$d4    A:ff X:ff Y:d3 P:e5 SP:fb
f06c  a2 02      LDX #$02    A:ff X:ff Y:d4 P:e5 SP:fb
f06e  a9 47      LDA #$47    A:ff X:02 Y:d4 P:65 SP:fb
f070  85 47      STA $47     A:47 X:02 Y:d4 P:65 SP:fb
f072  a9 06      LDA #$06    A:47 X:02 Y:d4 P:65 SP:fb
f074  85 48      STA $48     A:06 X:02 Y:d4 P:65 SP:fb
f076  a9 a5      LDA #$a5    A:06 X:02 Y:d4 P:65 SP:fb
f078  8d 47 06   STA $0647   A:a5 X:02 Y:d4 P:e5 SP:fb
f07b  20 53 fb   JSR $fb53   A:a5 X:02 Y:d4 P:e5 SP:fb
fb53  24 01      BIT $01     A:a5 X:02 Y:d4 P:e5 SP:f9
fb55  18         CLC         A:a5 X:02 Y:d4 P:e5 SP:f9
fb56  a9 b3      LDA #$b3    A:a5 X:02 Y:d4 P:e4 SP:f9
fb58  60         RTS         A:b3 X:02 Y:d4 P:e4 SP:f9
f07e  23 45      RLA ($45,X) A:b3 X:02 Y:d4 P:e4 SP:fb
f080  ea         NOP         A:02 X:02 Y:d4 P:65 SP:fb
f081  ea         NOP         A:02 X:02 Y:d4 P:65 SP:fb
f082  ea         NOP         A:02 X:02 Y:d4 P:65 SP:fb
f083  ea         NOP         A:02 X:02 Y:d4 P:65 SP:fb
f084  20 59 fb   JSR $fb59   A:02 X:02 Y:d4 P:65 SP:fb
fb59  50 1a      BVC $fb75   A:02 X:02 Y:d4 P:65 SP:f9
fb5b  90 18      BCC $fb75   A:02 X:02 Y:d4 P:65 SP:f9
fb5d  30 16      BMI $fb75   A:02 X:02 Y:d4 P:65 SP:f9
fb5f  c9 02      CMP #$02    A:02 X:02 Y:d4 P:65 SP:f9
fb61  d0 12      BNE $fb75   A:02 X:02 Y:d4 P:67 SP:f9
fb63  60         RTS         A:02 X:02 Y:d4 P:67 SP:f9
f087  ad 47 06   LDA $0647   A:02 X:02 Y:d4 P:67 SP:fb
f08a  c9 4a      CMP #$4a    A:4a X:02 Y:d4 P:65 SP:fb
f08c  f0 02      BEQ $f090   A:4a X:02 Y:d4 P:67 SP:fb
f090  c8         INY         A:4a X:02 Y:d4 P:67 SP:fb
f091  a9 29      LDA #$29    A:4a X:02 Y:d5 P:e5 SP:fb
f093  8d 47 06   STA $0647   A:29 X:02 Y:d5 P:65 SP:fb
f096  20 64 fb   JSR $fb64   A:29 X:02 Y:d5 P:65 SP:fb
fb64  b8         CLV         A:29 X:02 Y:d5 P:65 SP:f9
fb65  18         CLC         A:29 X:02 Y:d5 P:25 SP:f9
fb66  a9 42      LDA #$42    A:29 X:02 Y:d5 P:24 SP:f9
fb68  60         RTS         A:42 X:02 Y:d5 P:24 SP:f9
f099  23 45      RLA ($45,X) A:42 X:02 Y:d5 P:24 SP:fb
f09b  ea         NOP         A:42 X:02 Y:d5 P:24 SP:fb
f09c  ea         NOP         A:42 X:02 Y:d5 P:24 SP:fb
f09d  ea         NOP         A:42 X:02 Y:d5 P:24 SP:fb
f09e  ea         NOP         A:42 X:02 Y:d5 P:24 SP:fb
f09f  20 69 fb   JSR $fb69   A:42 X:02 Y:d5 P:24 SP:fb
fb69  70 0a      BVS $fb75   A:42 X:02 Y:d5 P:24 SP:f9
fb6b  f0 08      BEQ $fb75   A:42 X:02 Y:d5 P:24 SP:f9
fb6d  30 06      BMI $fb75   A:42 X:02 Y:d5 P:24 SP:f9
fb6f  b0 04      BCS $fb75   A:42 X:02 Y:d5 P:24 SP:f9
fb71  c9 42      CMP #$42    A:42 X:02 Y:d5 P:24 SP:f9
fb73  f0 02      BEQ $fb77   A:42 X:02 Y:d5 P:27 SP:f9
fb77  60         RTS         A:42 X:02 Y:d5 P:27 SP:f9
f0a2  ad 47 06   LDA $0647   A:42 X:02 Y:d5 P:27 SP:fb
f0a5  c9 52      CMP #$52    A:52 X:02 Y:d5 P:25 SP:fb
f0a7  f0 02      BEQ $f0ab   A:52 X:02 Y:d5 P:27 SP:fb
f0ab  c8         INY         A:52 X:02 Y:d5 P:27 SP:fb
f0ac  a9 37      LDA #$37    A:52 X:02 Y:d6 P:a5 SP:fb
f0ae  8d 47 06   STA $0647   A:37 X:02 Y:d6 P:25 SP:fb
f0b1  20 68 fa   JSR $fa68   A:37 X:02 Y:d6 P:25 SP:fb
fa68  24 01      BIT $01     A:37 X:02 Y:d6 P:25 SP:f9
fa6a  38         SEC         A:37 X:02 Y:d6 P:e5 SP:f9
fa6b  a9 75      LDA #$75    A:37 X:02 Y:d6 P:e5 SP:f9
fa6d  60         RTS         A:75 X:02 Y:d6 P:65 SP:f9
f0b4  23 45      RLA ($45,X) A:75 X:02 Y:d6 P:65 SP:fb
f0b6  ea         NOP         A:65 X:02 Y:d6 P:64 SP:fb
f0b7  ea         NOP         A:65 X:02 Y:d6 P:64 SP:fb
f0b8  ea         NOP         A:65 X:02 Y:d6 P:64 SP:fb
f0b9  ea         NOP         A:65 X:02 Y:d6 P:64 SP:fb
f0ba  20 6e fa   JSR $fa6e   A:65 X:02 Y:d6 P:64 SP:fb
fa6e  50 76      BVC $fae6   A:65 X:02 Y:d6 P:64 SP:f9
fa70  f0 74      BEQ $fae6   A:65 X:02 Y:d6 P:64 SP:f9
fa72  30 72      BMI $fae6   A:65 X:02 Y:d6 P:64 SP:f9
fa74  b0 70      BCS $fae6   A:65 X:02 Y:d6 P:64 SP:f9
fa76  c9 65      CMP #$65    A:65 X:02 Y:d6 P:64 SP:f9
fa78  d0 6c      BNE $fae6   A:65 X:02 Y:d6 P:67 SP:f9
fa7a  60         RTS         A:65 X:02 Y:d6 P:67 SP:f9
f0bd  ad 47 06   LDA $0647   A:65 X:02 Y:d6 P:67 SP:fb
f0c0  c9 6f      CMP #$6f    A:6f X:02 Y:d6 P:65 SP:fb
f0c2  f0 02      BEQ $f0c6   A:6f X:02 Y:d6 P:67 SP:fb
f0c6  c8         INY         A:6f X:02 Y:d6 P:67 SP:fb
f0c7  a9 a5      LDA #$a5    A:6f X:02 Y:d7 P:e5 SP:fb
f0c9  85 47      STA $47     A:a5 X:02 Y:d7 P:e5 SP:fb
f0cb  20 53 fb   JSR $fb53   A:a5 X:02 Y:d7 P:e5 SP:fb
fb53  24 01      BIT $01     A:a5 X:02 Y:d7 P:e5 SP:f9
fb55  18         CLC         A:a5 X:02 Y:d7 P:e5 SP:f9
fb56  a9 b3      LDA #$b3    A:a5 X:02 Y:d7 P:e4 SP:f9
fb58  60         RTS         A:b3 X:02 Y:d7 P:e4 SP:f9
f0ce  27 47      RLA $47     A:b3 X:02 Y:d7 P:e4 SP:fb
f0d0  ea         NOP         A:02 X:02 Y:d7 P:65 SP:fb
f0d1  ea         NOP         A:02 X:02 Y:d7 P:65 SP:fb
f0d2  ea         NOP         A:02 X:02 Y:d7 P:65 SP:fb
f0d3  ea         NOP         A:02 X:02 Y:d7 P:65 SP:fb
f0d4  20 59 fb   JSR $fb59   A:02 X:02 Y:d7 P:65 SP:fb
fb59  50 1a      BVC $fb75   A:02 X:02 Y:d7 P:65 SP:f9
fb5b  90 18      BCC $fb75   A:02 X:02 Y:d7 P:65 SP:f9
fb5d  30 16      BMI $fb75   A:02 X:02 Y:d7 P:65 SP:f9
fb5f  c9 02      CMP #$02    A:02 X:02 Y:d7 P:65 SP:f9
fb61  d0 12      BNE $fb75   A:02 X:02 Y:d7 P:67 SP:f9
fb63  60         RTS         A:02 X:02 Y:d7 P:67 SP:f9
f0d7  a5 47      LDA $47     A:02 X:02 Y:d7 P:67 SP:fb
f0d9  c9 4a      CMP #$4a    A:4a X:02 Y:d7 P:65 SP:fb
f0db  f0 02      BEQ $f0df   A:4a X:02 Y:d7 P:67 SP:fb
f0df  c8         INY         A:4a X:02 Y:d7 P:67 SP:fb
f0e0  a9 29      LDA #$29    A:4a X:02 Y:d8 P:e5 SP:fb
f0e2  85 47      STA $47     A:29 X:02 Y:d8 P:65 SP:fb
f0e4  20 64 fb   JSR $fb64   A:29 X:02 Y:d8 P:65 SP:fb
fb64  b8         CLV         A:29 X:02 Y:d8 P:65 SP:f9
fb65  18         CLC         A:29 X:02 Y:d8 P:25 SP:f9
fb66  a9 42      LDA #$42    A:29 X:02 Y:d8 P:24 SP:f9
fb68  60         RTS         A:42 X:02 Y:d8 P:24 SP:f9
f0e7  27 47      RLA $47     A:42 X:02 Y:d8 P:24 SP:fb
f0e9  ea         NOP         A:42 X:02 Y:d8 P:24 SP:fb
f0ea  ea         NOP         A:42 X:02 Y:d8 P:24 SP:fb
f0eb  ea         NOP         A:42 X:02 Y:d8 P:24 SP:fb
f0ec  ea         NOP         A:42 X:02 Y:d8 P:24 SP:fb
f0ed  20 69 fb   JSR $fb69   A:42 X:02 Y:d8 P:24 SP:fb
fb69  70 0a      BVS $fb75   A:42 X:02 Y:d8 P:24 SP:f9
fb6b  f0 08      BEQ $fb75   A:42 X:02 Y:d8 P:24 SP:f9
fb6d  30 06      BMI $fb75   A:42 X:02 Y:d8 P:24 SP:f9
fb6f  b0 04      BCS $fb75   A:42 X:02 Y:d8 P:24 SP:f9
fb71  c9 42      CMP #$42    A:42 X:02 Y:d8 P:24 SP:f9
fb73  f0 02      BEQ $fb77   A:42 X:02 Y:d8 P:27 SP:f9
fb77  60         RTS         A:42 X:02 Y:d8 P:27 SP:f9
f0f0  a5 47      LDA $47     A:42 X:02 Y:d8 P:27 SP:fb
f0f2  c9 52      CMP #$52    A:52 X:02 Y:d8 P:25 SP:fb
f0f4  f0 02      BEQ $f0f8   A:52 X:02 Y:d8 P:27 SP:fb
f0f8  c8         INY         A:52 X:02 Y:d8 P:27 SP:fb
f0f9  a9 37      LDA #$37    A:52 X:02 Y:d9 P:a5 SP:fb
f0fb  85 47      STA $47     A:37 X:02 Y:d9 P:25 SP:fb
f0fd  20 68 fa   JSR $fa68   A:37 X:02 Y:d9 P:25 SP:fb
fa68  24 01      BIT $01     A:37 X:02 Y:d9 P:25 SP:f9
fa6a  38         SEC         A:37 X:02 Y:d9 P:e5 SP:f9
fa6b  a9 75      LDA #$75    A:37 X:02 Y:d9 P:e5 SP:f9
fa6d  60         RTS         A:75 X:02 Y:d9 P:65 SP:f9
f100  27 47      RLA $47     A:75 X:02 Y:d9 P:65 SP:fb
f102  ea         NOP         A:65 X:02 Y:d9 P:64 SP:fb
f103  ea         NOP         A:65 X:02 Y:d9 P:64 SP:fb
f104  ea         NOP         A:65 X:02 Y:d9 P:64 SP:fb
f105  ea         NOP         A:65 X:02 Y:d9 P:64 SP:fb
f106  20 6e fa   JSR $fa6e   A:65 X:02 Y:d9 P:64 SP:fb
fa6e  50 76      BVC $fae6   A:65 X:02 Y:d9 P:64 SP:f9
fa70  f0 74      BEQ $fae6   A:65 X:02 Y:d9 P:64 SP:f9
fa72  30 72      BMI $fae6   A:65 X:02 Y:d9 P:64 SP:f9
fa74  b0 70      BCS $fae6   A:65 X:02 Y:d9 P:64 SP:f9
fa76  c9 65      CMP #$65    A:65 X:02 Y:d9 P:64 SP:f9
fa78  d0 6c      BNE $fae6   A:65 X:02 Y:d9 P:67 SP:f9
fa7a  60         RTS         A:65 X:02 Y:d9 P:67 SP:f9
f109  a5 47      LDA $47     A:65 X:02 Y:d9 P:67 SP:fb
f10b  c9 6f      CMP #$6f    A:6f X:02 Y:d9 P:65 SP:fb
f10d  f0 02      BEQ $f111   A:6f X:02 Y:d9 P:67 SP:fb
f111  c8         INY         A:6f X:02 Y:d9 P:67 SP:fb
f112  a9 a5      LDA #$a5    A:6f X:02 Y:da P:e5 SP:fb
f114  8d 47 06   STA $0647   A:a5 X:02 Y:da P:e5 SP:fb
f117  20 53 fb   JSR $fb53   A:a5 X:02 Y:da P:e5 SP:fb
fb53  24 01      BIT $01     A:a5 X:02 Y:da P:e5 SP:f9
fb55  18         CLC         A:a5 X:02 Y:da P:e5 SP:f9
fb56  a9 b3      LDA #$b3    A:a5 X:02 Y:da P:e4 SP:f9
fb58  60         RTS         A:b3 X:02 Y:da P:e4 SP:f9
f11a  2f 47 06   RLA $0647   A:b3 X:02 Y:da P:e4 SP:fb
f11d  ea         NOP         A:02 X:02 Y:da P:65 SP:fb
f11e  ea         NOP         A:02 X:02 Y:da P:65 SP:fb
f11f  ea         NOP         A:02 X:02 Y:da P:65 SP:fb
f120  ea         NOP         A:02 X:02 Y:da P:65 SP:fb
f121  20 59 fb   JSR $fb59   A:02 X:02 Y:da P:65 SP:fb
fb59  50 1a      BVC $fb75   A:02 X:02 Y:da P:65 SP:f9
fb5b  90 18      BCC $fb75   A:02 X:02 Y:da P:65 SP:f9
fb5d  30 16      BMI $fb75   A:02 X:02 Y:da P:65 SP:f9
fb5f  c9 02      CMP #$02    A:02 X:02 Y:da P:65 SP:f9
fb61  d0 12      BNE $fb75   A:02 X:02 Y:da P:67 SP:f9
fb63  60         RTS         A:02 X:02 Y:da P:67 SP:f9
f124  ad 47 06   LDA $0647   A:02 X:02 Y:da P:67 SP:fb
f127  c9 4a      CMP #$4a    A:4a X:02 Y:da P:65 SP:fb
f129  f0 02      BEQ $f12d   A:4a X:02 Y:da P:67 SP:fb
f12d  c8         INY         A:4a X:02 Y:da P:67 SP:fb
f12e  a9 29      LDA #$29    A:4a X:02 Y:db P:e5 SP:fb
f130  8d 47 06   STA $0647   A:29 X:02 Y:db P:65 SP:fb
f133  20 64 fb   JSR $fb64   A:29 X:02 Y:db P:65 SP:fb
fb64  b8         CLV         A:29 X:02 Y:db P:65 SP:f9
fb65  18         CLC         A:29 X:02 Y:db P:25 SP:f9
fb66  a9 42      LDA #$42    A:29 X:02 Y:db P:24 SP:f9
fb68  60         RTS         A:42 X:02 Y:db P:24 SP:f9
f136  2f 47 06   RLA $0647   A:42 X:02 Y:db P:24 SP:fb
f139  ea         NOP         A:42 X:02 Y:db P:24 SP:fb
f13a  ea         NOP         A:42 X:02 Y:db P:24 SP:fb
f13b  ea         NOP         A:42 X:02 Y:db P:24 SP:fb
f13c  ea         NOP         A:42 X:02 Y:db P:24 SP:fb
f13d  20 69 fb   JSR $fb69   A:42 X:02 Y:db P:24 SP:fb
fb69  70 0a      BVS $fb75   A:42 X:02 Y:db P:24 SP:f9
fb6b  f0 08      BEQ $fb75   A:42 X:02 Y:db P:24 SP:f9
fb6d  30 06      BMI $fb75   A:42 X:02 Y:db P:24 SP:f9
fb6f  b0 04      BCS $fb75   A:42 X:02 Y:db P:24 SP:f9
fb71  c9 42      CMP #$42    A:42 X:02 Y:db P:24 SP:f9
fb73  f0 02      BEQ $fb77   A:42 X:02 Y:db P:27 SP:f9
fb77  60         RTS         A:42 X:02 Y:db P:27 SP:f9
f140  ad 47 06   LDA $0647   A:42 X:02 Y:db P:27 SP:fb
f143  c9 52      CMP #$52    A:52 X:02 Y:db P:25 SP:fb
f145  f0 02      BEQ $f149   A:52 X:02 Y:db P:27 SP:fb
f149  c8         INY         A:52 X:02 Y:db P:27 SP:fb
f14a  a9 37      LDA #$37    A:52 X:02 Y:dc P:a5 SP:fb
f14c  8d 47 06   STA $0647   A:37 X:02 Y:dc P:25 SP:fb
f14f  20 68 fa   JSR $fa68   A:37 X:02 Y:dc P:25 SP:fb
fa68  24 01      BIT $01     A:37 X:02 Y:dc P:25 SP:f9
fa6a  38         SEC         A:37 X:02 Y:dc P:e5 SP:f9
fa6b  a9 75      LDA #$75    A:37 X:02 Y:dc P:e5 SP:f9
fa6d  60         RTS         A:75 X:02 Y:dc P:65 SP:f9
f152  2f 47 06   RLA $0647   A:75 X:02 Y:dc P:65 SP:fb
f155  ea         NOP         A:65 X:02 Y:dc P:64 SP:fb
f156  ea         NOP         A:65 X:02 Y:dc P:64 SP:fb
f157  ea         NOP         A:65 X:02 Y:dc P:64 SP:fb
f158  ea         NOP         A:65 X:02 Y:dc P:64 SP:fb
f159  20 6e fa   JSR $fa6e   A:65 X:02 Y:dc P:64 SP:fb
fa6e  50 76      BVC $fae6   A:65 X:02 Y:dc P:64 SP:f9
fa70  f0 74      BEQ $fae6   A:65 X:02 Y:dc P:64 SP:f9
fa72  30 72      BMI $fae6   A:65 X:02 Y:dc P:64 SP:f9
fa74  b0 70      BCS $fae6   A:65 X:02 Y:dc P:64 SP:f9
fa76  c9 65      CMP #$65    A:65 X:02 Y:dc P:64 SP:f9
fa78  d0 6c      BNE $fae6   A:65 X:02 Y:dc P:67 SP:f9
fa7a  60         RTS         A:65 X:02 Y:dc P:67 SP:f9
f15c  ad 47 06   LDA $0647   A:65 X:02 Y:dc P:67 SP:fb
f15f  c9 6f      CMP #$6f    A:6f X:02 Y:dc P:65 SP:fb
f161  f0 02      BEQ $f165   A:6f X:02 Y:dc P:67 SP:fb
f165  a9 a5      LDA #$a5    A:6f X:02 Y:dc P:67 SP:fb
f167  8d 47 06   STA $0647   A:a5 X:02 Y:dc P:e5 SP:fb
f16a  a9 48      LDA #$48    A:a5 X:02 Y:dc P:e5 SP:fb
f16c  85 45      STA $45     A:48 X:02 Y:dc P:65 SP:fb
f16e  a9 05      LDA #$05    A:48 X:02 Y:dc P:65 SP:fb
f170  85 46      STA $46     A:05 X:02 Y:dc P:65 SP:fb
f172  a0 ff      LDY #$ff    A:05 X:02 Y:dc P:65 SP:fb
f174  20 53 fb   JSR $fb53   A:05 X:02 Y:ff P:e5 SP:fb
fb53  24 01      BIT $01     A:05 X:02 Y:ff P:e5 SP:f9
fb55  18         CLC         A:05 X:02 Y:ff P:e5 SP:f9
fb56  a9 b3      LDA #$b3    A:05 X:02 Y:ff P:e4 SP:f9
fb58  60         RTS         A:b3 X:02 Y:ff P:e4 SP:f9
f177  33 45      RLA ($45),Y A:b3 X:02 Y:ff P:e4 SP:fb
f179  ea         NOP         A:02 X:02 Y:ff P:65 SP:fb
f17a  ea         NOP         A:02 X:02 Y:ff P:65 SP:fb
f17b  08         PHP         A:02 X:02 Y:ff P:65 SP:fb
f17c  48         PHA         A:02 X:02 Y:ff P:65 SP:fa
f17d  a0 dd      LDY #$dd    A:02 X:02 Y:ff P:65 SP:f9
f17f  68         PLA         A:02 X:02 Y:dd P:e5 SP:f9
f180  28         PLP         A:02 X:02 Y:dd P:65 SP:fa
f181  20 59 fb   JSR $fb59   A:02 X:02 Y:dd P:65 SP:fb
fb59  50 1a      BVC $fb75   A:02 X:02 Y:dd P:65 SP:f9
fb5b  90 18      BCC $fb75   A:02 X:02 Y:dd P:65 SP:f9
fb5d  30 16      BMI $fb75   A:02 X:02 Y:dd P:65 SP:f9
fb5f  c9 02      CMP #$02    A:02 X:02 Y:dd P:65 SP:f9
fb61  d0 12      BNE $fb75   A:02 X:02 Y:dd P:67 SP:f9
fb63  60         RTS         A:02 X:02 Y:dd P:67 SP:f9
f184  ad 47 06   LDA $0647   A:02 X:02 Y:dd P:67 SP:fb
f187  c9 4a      CMP #$4a    A:4a X:02 Y:dd P:65 SP:fb
f189  f0 02      BEQ $f18d   A:4a X:02 Y:dd P:67 SP:fb
f18d  a0 ff      LDY #$ff    A:4a X:02 Y:dd P:67 SP:fb
f18f  a9 29      LDA #$29    A:4a X:02 Y:ff P:e5 SP:fb
f191  8d 47 06   STA $0647   A:29 X:02 Y:ff P:65 SP:fb
f194  20 64 fb   JSR $fb64   A:29 X:02 Y:ff P:65 SP:fb
fb64  b8         CLV         A:29 X:02 Y:ff P:65 SP:f9
fb65  18         CLC         A:29 X:02 Y:ff P:25 SP:f9
fb66  a9 42      LDA #$42    A:29 X:02 Y:ff P:24 SP:f9
fb68  60         RTS         A:42 X:02 Y:ff P:24 SP:f9
f197  33 45      RLA ($45),Y A:42 X:02 Y:ff P:24 SP:fb
f199  ea         NOP         A:42 X:02 Y:ff P:24 SP:fb
f19a  ea         NOP         A:42 X:02 Y:ff P:24 SP:fb
f19b  08         PHP         A:42 X:02 Y:ff P:24 SP:fb
f19c  48         PHA         A:42 X:02 Y:ff P:24 SP:fa
f19d  a0 de      LDY #$de    A:42 X:02 Y:ff P:24 SP:f9
f19f  68         PLA         A:42 X:02 Y:de P:a4 SP:f9
f1a0  28         PLP         A:42 X:02 Y:de P:24 SP:fa
f1a1  20 69 fb   JSR $fb69   A:42 X:02 Y:de P:24 SP:fb
fb69  70 0a      BVS $fb75   A:42 X:02 Y:de P:24 SP:f9
fb6b  f0 08      BEQ $fb75   A:42 X:02 Y:de P:24 SP:f9
fb6d  30 06      BMI $fb75   A:42 X:02 Y:de P:24 SP:f9
fb6f  b0 04      BCS $fb75   A:42 X:02 Y:de P:24 SP:f9
fb71  c9 42      CMP #$42    A:42 X:02 Y:de P:24 SP:f9
fb73  f0 02      BEQ $fb77   A:42 X:02 Y:de P:27 SP:f9
fb77  60         RTS         A:42 X:02 Y:de P:27 SP:f9
f1a4  ad 47 06   LDA $0647   A:42 X:02 Y:de P:27 SP:fb
f1a7  c9 52      CMP #$52    A:52 X:02 Y:de P:25 SP:fb
f1a9  f0 02      BEQ $f1ad   A:52 X:02 Y:de P:27 SP:fb
f1ad  a0 ff      LDY #$ff    A:52 X:02 Y:de P:27 SP:fb
f1af  a9 37      LDA #$37    A:52 X:02 Y:ff P:a5 SP:fb
f1b1  8d 47 06   STA $0647   A:37 X:02 Y:ff P:25 SP:fb
f1b4  20 68 fa   JSR $fa68   A:37 X:02 Y:ff P:25 SP:fb
fa68  24 01      BIT $01     A:37 X:02 Y:ff P:25 SP:f9
fa6a  38         SEC         A:37 X:02 Y:ff P:e5 SP:f9
fa6b  a9 75      LDA #$75    A:37 X:02 Y:ff P:e5 SP:f9
fa6d  60         RTS         A:75 X:02 Y:ff P:65 SP:f9
f1b7  33 45      RLA ($45),Y A:75 X:02 Y:ff P:65 SP:fb
f1b9  ea         NOP         A:65 X:02 Y:ff P:64 SP:fb
f1ba  ea         NOP         A:65 X:02 Y:ff P:64 SP:fb
f1bb  08         PHP         A:65 X:02 Y:ff P:64 SP:fb
f1bc  48         PHA         A:65 X:02 Y:ff P:64 SP:fa
f1bd  a0 df      LDY #$df    A:65 X:02 Y:ff P:64 SP:f9
f1bf  68         PLA         A:65 X:02 Y:df P:e4 SP:f9
f1c0  28         PLP         A:65 X:02 Y:df P:64 SP:fa
f1c1  20 6e fa   JSR $fa6e   A:65 X:02 Y:df P:64 SP:fb
fa6e  50 76      BVC $fae6   A:65 X:02 Y:df P:64 SP:f9
fa70  f0 74      BEQ $fae6   A:65 X:02 Y:df P:64 SP:f9
fa72  30 72      BMI $fae6   A:65 X:02 Y:df P:64 SP:f9
fa74  b0 70      BCS $fae6   A:65 X:02 Y:df P:64 SP:f9
fa76  c9 65      CMP #$65    A:65 X:02 Y:df P:64 SP:f9
fa78  d0 6c      BNE $fae6   A:65 X:02 Y:df P:67 SP:f9
fa7a  60         RTS         A:65 X:02 Y:df P:67 SP:f9
f1c4  ad 47 06   LDA $0647   A:65 X:02 Y:df P:67 SP:fb
f1c7  c9 6f      CMP #$6f    A:6f X:02 Y:df P:65 SP:fb
f1c9  f0 02      BEQ $f1cd   A:6f X:02 Y:df P:67 SP:fb
f1cd  a0 e0      LDY #$e0    A:6f X:02 Y:df P:67 SP:fb
f1cf  a2 ff      LDX #$ff    A:6f X:02 Y:e0 P:e5 SP:fb
f1d1  a9 a5      LDA #$a5    A:6f X:ff Y:e0 P:e5 SP:fb
f1d3  85 47      STA $47     A:a5 X:ff Y:e0 P:e5 SP:fb
f1d5  20 53 fb   JSR $fb53   A:a5 X:ff Y:e0 P:e5 SP:fb
fb53  24 01      BIT $01     A:a5 X:ff Y:e0 P:e5 SP:f9
fb55  18         CLC         A:a5 X:ff Y:e0 P:e5 SP:f9
fb56  a9 b3      LDA #$b3    A:a5 X:ff Y:e0 P:e4 SP:f9
fb58  60         RTS         A:b3 X:ff Y:e0 P:e4 SP:f9
f1d8  37 48      RLA $48,X   A:b3 X:ff Y:e0 P:e4 SP:fb
f1da  ea         NOP         A:02 X:ff Y:e0 P:65 SP:fb
f1db  ea         NOP         A:02 X:ff Y:e0 P:65 SP:fb
f1dc  ea         NOP         A:02 X:ff Y:e0 P:65 SP:fb
f1dd  ea         NOP         A:02 X:ff Y:e0 P:65 SP:fb
f1de  20 59 fb   JSR $fb59   A:02 X:ff Y:e0 P:65 SP:fb
fb59  50 1a      BVC $fb75   A:02 X:ff Y:e0 P:65 SP:f9
fb5b  90 18      BCC $fb75   A:02 X:ff Y:e0 P:65 SP:f9
fb5d  30 16      BMI $fb75   A:02 X:ff Y:e0 P:65 SP:f9
fb5f  c9 02      CMP #$02    A:02 X:ff Y:e0 P:65 SP:f9
fb61  d0 12      BNE $fb75   A:02 X:ff Y:e0 P:67 SP:f9
fb63  60         RTS         A:02 X:ff Y:e0 P:67 SP:f9
f1e1  a5 47      LDA $47     A:02 X:ff Y:e0 P:67 SP:fb
f1e3  c9 4a      CMP #$4a    A:4a X:ff Y:e0 P:65 SP:fb
f1e5  f0 02      BEQ $f1e9   A:4a X:ff Y:e0 P:67 SP:fb
f1e9  c8         INY         A:4a X:ff Y:e0 P:67 SP:fb
f1ea  a9 29      LDA #$29    A:4a X:ff Y:e1 P:e5 SP:fb
f1ec  85 47      STA $47     A:29 X:ff Y:e1 P:65 SP:fb
f1ee  20 64 fb   JSR $fb64   A:29 X:ff Y:e1 P:65 SP:fb
fb64  b8         CLV         A:29 X:ff Y:e1 P:65 SP:f9
fb65  18         CLC         A:29 X:ff Y:e1 P:25 SP:f9
fb66  a9 42      LDA #$42    A:29 X:ff Y:e1 P:24 SP:f9
fb68  60         RTS         A:42 X:ff Y:e1 P:24 SP:f9
f1f1  37 48      RLA $48,X   A:42 X:ff Y:e1 P:24 SP:fb
f1f3  ea         NOP         A:42 X:ff Y:e1 P:24 SP:fb
f1f4  ea         NOP         A:42 X:ff Y:e1 P:24 SP:fb
f1f5  ea         NOP         A:42 X:ff Y:e1 P:24 SP:fb
f1f6  ea         NOP         A:42 X:ff Y:e1 P:24 SP:fb
f1f7  20 69 fb   JSR $fb69   A:42 X:ff Y:e1 P:24 SP:fb
fb69  70 0a      BVS $fb75   A:42 X:ff Y:e1 P:24 SP:f9
fb6b  f0 08      BEQ $fb75   A:42 X:ff Y:e1 P:24 SP:f9
fb6d  30 06      BMI $fb75   A:42 X:ff Y:e1 P:24 SP:f9
fb6f  b0 04      BCS $fb75   A:42 X:ff Y:e1 P:24 SP:f9
fb71  c9 42      CMP #$42    A:42 X:ff Y:e1 P:24 SP:f9
fb73  f0 02      BEQ $fb77   A:42 X:ff Y:e1 P:27 SP:f9
fb77  60         RTS         A:42 X:ff Y:e1 P:27 SP:f9
f1fa  a5 47      LDA $47     A:42 X:ff Y:e1 P:27 SP:fb
f1fc  c9 52      CMP #$52    A:52 X:ff Y:e1 P:25 SP:fb
f1fe  f0 02      BEQ $f202   A:52 X:ff Y:e1 P:27 SP:fb
f202  c8         INY         A:52 X:ff Y:e1 P:27 SP:fb
f203  a9 37      LDA #$37    A:52 X:ff Y:e2 P:a5 SP:fb
f205  85 47      STA $47     A:37 X:ff Y:e2 P:25 SP:fb
f207  20 68 fa   JSR $fa68   A:37 X:ff Y:e2 P:25 SP:fb
fa68  24 01      BIT $01     A:37 X:ff Y:e2 P:25 SP:f9
fa6a  38         SEC         A:37 X:ff Y:e2 P:e5 SP:f9
fa6b  a9 75      LDA #$75    A:37 X:ff Y:e2 P:e5 SP:f9
fa6d  60         RTS         A:75 X:ff Y:e2 P:65 SP:f9
f20a  37 48      RLA $48,X   A:75 X:ff Y:e2 P:65 SP:fb
f20c  ea         NOP         A:65 X:ff Y:e2 P:64 SP:fb
f20d  ea         NOP         A:65 X:ff Y:e2 P:64 SP:fb
f20e  ea         NOP         A:65 X:ff Y:e2 P:64 SP:fb
f20f  ea         NOP         A:65 X:ff Y:e2 P:64 SP:fb
f210  20 6e fa   JSR $fa6e   A:65 X:ff Y:e2 P:64 SP:fb
fa6e  50 76      BVC $fae6   A:65 X:ff Y:e2 P:64 SP:f9
fa70  f0 74      BEQ $fae6   A:65 X:ff Y:e2 P:64 SP:f9
fa72  30 72      BMI $fae6   A:65 X:ff Y:e2 P:64 SP:f9
fa74  b0 70      BCS $fae6   A:65 X:ff Y:e2 P:64 SP:f9
fa76  c9 65      CMP #$65    A:65 X:ff Y:e2 P:64 SP:f9
fa78  d0 6c      BNE $fae6   A:65 X:ff Y:e2 P:67 SP:f9
fa7a  60         RTS         A:65 X:ff Y:e2 P:67 SP:f9
f213  a5 47      LDA $47     A:65 X:ff Y:e2 P:67 SP:fb
f215  c9 6f      CMP #$6f    A:6f X:ff Y:e2 P:65 SP:fb
f217  f0 02      BEQ $f21b   A:6f X:ff Y:e2 P:67 SP:fb
f21b  a9 a5      LDA #$a5    A:6f X:ff Y:e2 P:67 SP:fb
f21d  8d 47 06   STA $0647   A:a5 X:ff Y:e2 P:e5 SP:fb
f220  a0 ff      LDY #$ff    A:a5 X:ff Y:e2 P:e5 SP:fb
f222  20 53 fb   JSR $fb53   A:a5 X:ff Y:ff P:e5 SP:fb
fb53  24 01      BIT $01     A:a5 X:ff Y:ff P:e5 SP:f9
fb55  18         CLC         A:a5 X:ff Y:ff P:e5 SP:f9
fb56  a9 b3      LDA #$b3    A:a5 X:ff Y:ff P:e4 SP:f9
fb58  60         RTS         A:b3 X:ff Y:ff P:e4 SP:f9
f225  3b 48 05   RLA $0548,Y A:b3 X:ff Y:ff P:e4 SP:fb
f228  ea         NOP         A:02 X:ff Y:ff P:65 SP:fb
f229  ea         NOP         A:02 X:ff Y:ff P:65 SP:fb
f22a  08         PHP         A:02 X:ff Y:ff P:65 SP:fb
f22b  48         PHA         A:02 X:ff Y:ff P:65 SP:fa
f22c  a0 e3      LDY #$e3    A:02 X:ff Y:ff P:65 SP:f9
f22e  68         PLA         A:02 X:ff Y:e3 P:e5 SP:f9
f22f  28         PLP         A:02 X:ff Y:e3 P:65 SP:fa
f230  20 59 fb   JSR $fb59   A:02 X:ff Y:e3 P:65 SP:fb
fb59  50 1a      BVC $fb75   A:02 X:ff Y:e3 P:65 SP:f9
fb5b  90 18      BCC $fb75   A:02 X:ff Y:e3 P:65 SP:f9
fb5d  30 16      BMI $fb75   A:02 X:ff Y:e3 P:65 SP:f9
fb5f  c9 02      CMP #$02    A:02 X:ff Y:e3 P:65 SP:f9
fb61  d0 12      BNE $fb75   A:02 X:ff Y:e3 P:67 SP:f9
fb63  60         RTS         A:02 X:ff Y:e3 P:67 SP:f9
f233  ad 47 06   LDA $0647   A:02 X:ff Y:e3 P:67 SP:fb
f236  c9 4a      CMP #$4a    A:4a X:ff Y:e3 P:65 SP:fb
f238  f0 02      BEQ $f23c   A:4a X:ff Y:e3 P:67 SP:fb
f23c  a0 ff      LDY #$ff    A:4a X:ff Y:e3 P:67 SP:fb
f23e  a9 29      LDA #$29    A:4a X:ff Y:ff P:e5 SP:fb
f240  8d 47 06   STA $0647   A:29 X:ff Y:ff P:65 SP:fb
f243  20 64 fb   JSR $fb64   A:29 X:ff Y:ff P:65 SP:fb
fb64  b8         CLV         A:29 X:ff Y:ff P:65 SP:f9
fb65  18         CLC         A:29 X:ff Y:ff P:25 SP:f9
fb66  a9 42      LDA #$42    A:29 X:ff Y:ff P:24 SP:f9
fb68  60         RTS         A:42 X:ff Y:ff P:24 SP:f9
f246  3b 48 05   RLA $0548,Y A:42 X:ff Y:ff P:24 SP:fb
f249  ea         NOP         A:42 X:ff Y:ff P:24 SP:fb
f24a  ea         NOP         A:42 X:ff Y:ff P:24 SP:fb
f24b  08         PHP         A:42 X:ff Y:ff P:24 SP:fb
f24c  48         PHA         A:42 X:ff Y:ff P:24 SP:fa
f24d  a0 e4      LDY #$e4    A:42 X:ff Y:ff P:24 SP:f9
f24f  68         PLA         A:42 X:ff Y:e4 P:a4 SP:f9
f250  28         PLP         A:42 X:ff Y:e4 P:24 SP:fa
f251  20 69 fb   JSR $fb69   A:42 X:ff Y:e4 P:24 SP:fb
fb69  70 0a      BVS $fb75   A:42 X:ff Y:e4 P:24 SP:f9
fb6b  f0 08      BEQ $fb75   A:42 X:ff Y:e4 P:24 SP:f9
fb6d  30 06      BMI $fb75   A:42 X:ff Y:e4 P:24 SP:f9
fb6f  b0 04      BCS $fb75   A:42 X:ff Y:e4 P:24 SP:f9
fb71  c9 42      CMP #$42    A:42 X:ff Y:e4 P:24 SP:f9
fb73  f0 02      BEQ $fb77   A:42 X:ff Y:e4 P:27 SP:f9
fb77  60         RTS         A:42 X:ff Y:e4 P:27 SP:f9
f254  ad 47 06   LDA $0647   A:42 X:ff Y:e4 P:27 SP:fb
f257  c9 52      CMP #$52    A:52 X:ff Y:e4 P:25 SP:fb
f259  f0 02      BEQ $f25d   A:52 X:ff Y:e4 P:27 SP:fb
f25d  a0 ff      LDY #$ff    A:52 X:ff Y:e4 P:27 SP:fb
f25f  a9 37      LDA #$37    A:52 X:ff Y:ff P:a5 SP:fb
f261  8d 47 06   STA $0647   A:37 X:ff Y:ff P:25 SP:fb
f264  20 68 fa   JSR $fa68   A:37 X:ff Y:ff P:25 SP:fb
fa68  24 01      BIT $01     A:37 X:ff Y:ff P:25 SP:f9
fa6a  38         SEC         A:37 X:ff Y:ff P:e5 SP:f9
fa6b  a9 75      LDA #$75    A:37 X:ff Y:ff P:e5 SP:f9
fa6d  60         RTS         A:75 X:ff Y:ff P:65 SP:f9
f267  3b 48 05   RLA $0548,Y A:75 X:ff Y:ff P:65 SP:fb
f26a  ea         NOP         A:65 X:ff Y:ff P:64 SP:fb
f26b  ea         NOP         A:65 X:ff Y:ff P:64 SP:fb
f26c  08         PHP         A:65 X:ff Y:ff P:64 SP:fb
f26d  48         PHA         A:65 X:ff Y:ff P:64 SP:fa
f26e  a0 e5      LDY #$e5    A:65 X:ff Y:ff P:64 SP:f9
f270  68         PLA         A:65 X:ff Y:e5 P:e4 SP:f9
f271  28         PLP         A:65 X:ff Y:e5 P:64 SP:fa
f272  20 6e fa   JSR $fa6e   A:65 X:ff Y:e5 P:64 SP:fb
fa6e  50 76      BVC $fae6   A:65 X:ff Y:e5 P:64 SP:f9
fa70  f0 74      BEQ $fae6   A:65 X:ff Y:e5 P:64 SP:f9
fa72  30 72      BMI $fae6   A:65 X:ff Y:e5 P:64 SP:f9
fa74  b0 70      BCS $fae6   A:65 X:ff Y:e5 P:64 SP:f9
fa76  c9 65      CMP #$65    A:65 X:ff Y:e5 P:64 SP:f9
fa78  d0 6c      BNE $fae6   A:65 X:ff Y:e5 P:67 SP:f9
fa7a  60         RTS         A:65 X:ff Y:e5 P:67 SP:f9
f275  ad 47 06   LDA $0647   A:65 X:ff Y:e5 P:67 SP:fb
f278  c9 6f      CMP #$6f    A:6f X:ff Y:e5 P:65 SP:fb
f27a  f0 02      BEQ $f27e   A:6f X:ff Y:e5 P:67 SP:fb
f27e  a0 e6      LDY #$e6    A:6f X:ff Y:e5 P:67 SP:fb
f280  a2 ff      LDX #$ff    A:6f X:ff Y:e6 P:e5 SP:fb
f282  a9 a5      LDA #$a5    A:6f X:ff Y:e6 P:e5 SP:fb
f284  8d 47 06   STA $0647   A:a5 X:ff Y:e6 P:e5 SP:fb
f287  20 53 fb   JSR $fb53   A:a5 X:ff Y:e6 P:e5 SP:fb
fb53  24 01      BIT $01     A:a5 X:ff Y:e6 P:e5 SP:f9
fb55  18         CLC         A:a5 X:ff Y:e6 P:e5 SP:f9
fb56  a9 b3      LDA #$b3    A:a5 X:ff Y:e6 P:e4 SP:f9
fb58  60         RTS         A:b3 X:ff Y:e6 P:e4 SP:f9
f28a  3f 48 05   RLA $0548,X A:b3 X:ff Y:e6 P:e4 SP:fb
f28d  ea         NOP         A:02 X:ff Y:e6 P:65 SP:fb
f28e  ea         NOP         A:02 X:ff Y:e6 P:65 SP:fb
f28f  ea         NOP         A:02 X:ff Y:e6 P:65 SP:fb
f290  ea         NOP         A:02 X:ff Y:e6 P:65 SP:fb
f291  20 59 fb   JSR $fb59   A:02 X:ff Y:e6 P:65 SP:fb
fb59  50 1a      BVC $fb75   A:02 X:ff Y:e6 P:65 SP:f9
fb5b  90 18      BCC $fb75   A:02 X:ff Y:e6 P:65 SP:f9
fb5d  30 16      BMI $fb75   A:02 X:ff Y:e6 P:65 SP:f9
fb5f  c9 02      CMP #$02    A:02 X:ff Y:e6 P:65 SP:f9
fb61  d0 12      BNE $fb75   A:02 X:ff Y:e6 P:67 SP:f9
fb63  60         RTS         A:02 X:ff Y:e6 P:67 SP:f9
f294  ad 47 06   LDA $0647   A:02 X:ff Y:e6 P:67 SP:fb
f297  c9 4a      CMP #$4a    A:4a X:ff Y:e6 P:65 SP:fb
f299  f0 02      BEQ $f29d   A:4a X:ff Y:e6 P:67 SP:fb
f29d  c8         INY         A:4a X:ff Y:e6 P:67 SP:fb
f29e  a9 29      LDA #$29    A:4a X:ff Y:e7 P:e5 SP:fb
f2a0  8d 47 06   STA $0647   A:29 X:ff Y:e7 P:65 SP:fb
f2a3  20 64 fb   JSR $fb64   A:29 X:ff Y:e7 P:65 SP:fb
fb64  b8         CLV         A:29 X:ff Y:e7 P:65 SP:f9
fb65  18         CLC         A:29 X:ff Y:e7 P:25 SP:f9
fb66  a9 42      LDA #$42    A:29 X:ff Y:e7 P:24 SP:f9
fb68  60         RTS         A:42 X:ff Y:e7 P:24 SP:f9
f2a6  3f 48 05   RLA $0548,X A:42 X:ff Y:e7 P:24 SP:fb
f2a9  ea         NOP         A:42 X:ff Y:e7 P:24 SP:fb
f2aa  ea         NOP         A:42 X:ff Y:e7 P:24 SP:fb
f2ab  ea         NOP         A:42 X:ff Y:e7 P:24 SP:fb
f2ac  ea         NOP         A:42 X:ff Y:e7 P:24 SP:fb
f2ad  20 69 fb   JSR $fb69   A:42 X:ff Y:e7 P:24 SP:fb
fb69  70 0a      BVS $fb75   A:42 X:ff Y:e7 P:24 SP:f9
fb6b  f0 08      BEQ $fb75   A:42 X:ff Y:e7 P:24 SP:f9
fb6d  30 06      BMI $fb75   A:42 X:ff Y:e7 P:24 SP:f9
fb6f  b0 04      BCS $fb75   A:42 X:ff Y:e7 P:24 SP:f9
fb71  c9 42      CMP #$42    A:42 X:ff Y:e7 P:24 SP:f9
fb73  f0 02      BEQ $fb77   A:42 X:ff Y:e7 P:27 SP:f9
fb77  60         RTS         A:42 X:ff Y:e7 P:27 SP:f9
f2b0  ad 47 06   LDA $0647   A:42 X:ff Y:e7 P:27 SP:fb
f2b3  c9 52      CMP #$52    A:52 X:ff Y:e7 P:25 SP:fb
f2b5  f0 02      BEQ $f2b9   A:52 X:ff Y:e7 P:27 SP:fb
f2b9  c8         INY         A:52 X:ff Y:e7 P:27 SP:fb
f2ba  a9 37      LDA #$37    A:52 X:ff Y:e8 P:a5 SP:fb
f2bc  8d 47 06   STA $0647   A:37 X:ff Y:e8 P:25 SP:fb
f2bf  20 68 fa   JSR $fa68   A:37 X:ff Y:e8 P:25 SP:fb
fa68  24 01      BIT $01     A:37 X:ff Y:e8 P:25 SP:f9
fa6a  38         SEC         A:37 X:ff Y:e8 P:e5 SP:f9
fa6b  a9 75      LDA #$75    A:37 X:ff Y:e8 P:e5 SP:f9
fa6d  60         RTS         A:75 X:ff Y:e8 P:65 SP:f9
f2c2  3f 48 05   RLA $0548,X A:75 X:ff Y:e8 P:65 SP:fb
f2c5  ea         NOP         A:65 X:ff Y:e8 P:64 SP:fb
f2c6  ea         NOP         A:65 X:ff Y:e8 P:64 SP:fb
f2c7  ea         NOP         A:65 X:ff Y:e8 P:64 SP:fb
f2c8  ea         NOP         A:65 X:ff Y:e8 P:64 SP:fb
f2c9  20 6e fa   JSR $fa6e   A:65 X:ff Y:e8 P:64 SP:fb
fa6e  50 76      BVC $fae6   A:65 X:ff Y:e8 P:64 SP:f9
fa70  f0 74      BEQ $fae6   A:65 X:ff Y:e8 P:64 SP:f9
fa72  30 72      BMI $fae6   A:65 X:ff Y:e8 P:64 SP:f9
fa74  b0 70      BCS $fae6   A:65 X:ff Y:e8 P:64 SP:f9
fa76  c9 65      CMP #$65    A:65 X:ff Y:e8 P:64 SP:f9
fa78  d0 6c      BNE $fae6   A:65 X:ff Y:e8 P:67 SP:f9
fa7a  60         RTS         A:65 X:ff Y:e8 P:67 SP:f9
f2cc  ad 47 06   LDA $0647   A:65 X:ff Y:e8 P:67 SP:fb
f2cf  c9 6f      CMP #$6f    A:6f X:ff Y:e8 P:65 SP:fb
f2d1  f0 02      BEQ $f2d5   A:6f X:ff Y:e8 P:67 SP:fb
f2d5  60         RTS         A:6f X:ff Y:e8 P:67 SP:fb
c647  20 d6 f2   JSR $f2d6   A:6f X:ff Y:e8 P:67 SP:fd
f2d6  a9 ff      LDA #$ff    A:6f X:ff Y:e8 P:67 SP:fb
f2d8  85 01      STA $01     A:ff X:ff Y:e8 P:e5 SP:fb
f2da  a0 e9      LDY #$e9    A:ff X:ff Y:e8 P:e5 SP:fb
f2dc  a2 02      LDX #$02    A:ff X:ff Y:e9 P:e5 SP:fb
f2de  a9 47      LDA #$47    A:ff X:02 Y:e9 P:65 SP:fb
f2e0  85 47      STA $47     A:47 X:02 Y:e9 P:65 SP:fb
f2e2  a9 06      LDA #$06    A:47 X:02 Y:e9 P:65 SP:fb
f2e4  85 48      STA $48     A:06 X:02 Y:e9 P:65 SP:fb
f2e6  a9 a5      LDA #$a5    A:06 X:02 Y:e9 P:65 SP:fb
f2e8  8d 47 06   STA $0647   A:a5 X:02 Y:e9 P:e5 SP:fb
f2eb  20 1d fb   JSR $fb1d   A:a5 X:02 Y:e9 P:e5 SP:fb
fb1d  24 01      BIT $01     A:a5 X:02 Y:e9 P:e5 SP:f9
fb1f  18         CLC         A:a5 X:02 Y:e9 P:e5 SP:f9
fb20  a9 b3      LDA #$b3    A:a5 X:02 Y:e9 P:e4 SP:f9
fb22  60         RTS         A:b3 X:02 Y:e9 P:e4 SP:f9
f2ee  43 45      SRE ($45,X) A:b3 X:02 Y:e9 P:e4 SP:fb
f2f0  ea         NOP         A:e1 X:02 Y:e9 P:e5 SP:fb
f2f1  ea         NOP         A:e1 X:02 Y:e9 P:e5 SP:fb
f2f2  ea         NOP         A:e1 X:02 Y:e9 P:e5 SP:fb
f2f3  ea         NOP         A:e1 X:02 Y:e9 P:e5 SP:fb
f2f4  20 23 fb   JSR $fb23   A:e1 X:02 Y:e9 P:e5 SP:fb
fb23  50 50      BVC $fb75   A:e1 X:02 Y:e9 P:e5 SP:f9
fb25  90 4e      BCC $fb75   A:e1 X:02 Y:e9 P:e5 SP:f9
fb27  10 4c      BPL $fb75   A:e1 X:02 Y:e9 P:e5 SP:f9
fb29  c9 e1      CMP #$e1    A:e1 X:02 Y:e9 P:e5 SP:f9
fb2b  d0 48      BNE $fb75   A:e1 X:02 Y:e9 P:67 SP:f9
fb2d  60         RTS         A:e1 X:02 Y:e9 P:67 SP:f9
f2f7  ad 47 06   LDA $0647   A:e1 X:02 Y:e9 P:67 SP:fb
f2fa  c9 52      CMP #$52    A:52 X:02 Y:e9 P:65 SP:fb
f2fc  f0 02      BEQ $f300   A:52 X:02 Y:e9 P:67 SP:fb
f300  c8         INY         A:52 X:02 Y:e9 P:67 SP:fb
f301  a9 29      LDA #$29    A:52 X:02 Y:ea P:e5 SP:fb
f303  8d 47 06   STA $0647   A:29 X:02 Y:ea P:65 SP:fb
f306  20 2e fb   JSR $fb2e   A:29 X:02 Y:ea P:65 SP:fb
fb2e  b8         CLV         A:29 X:02 Y:ea P:65 SP:f9
fb2f  18         CLC         A:29 X:02 Y:ea P:25 SP:f9
fb30  a9 42      LDA #$42    A:29 X:02 Y:ea P:24 SP:f9
fb32  60         RTS         A:42 X:02 Y:ea P:24 SP:f9
f309  43 45      SRE ($45,X) A:42 X:02 Y:ea P:24 SP:fb
f30b  ea         NOP         A:56 X:02 Y:ea P:25 SP:fb
f30c  ea         NOP         A:56 X:02 Y:ea P:25 SP:fb
f30d  ea         NOP         A:56 X:02 Y:ea P:25 SP:fb
f30e  ea         NOP         A:56 X:02 Y:ea P:25 SP:fb
f30f  20 33 fb   JSR $fb33   A:56 X:02 Y:ea P:25 SP:fb
fb33  70 40      BVS $fb75   A:56 X:02 Y:ea P:25 SP:f9
fb35  f0 3e      BEQ $fb75   A:56 X:02 Y:ea P:25 SP:f9
fb37  30 3c      BMI $fb75   A:56 X:02 Y:ea P:25 SP:f9
fb39  90 3a      BCC $fb75   A:56 X:02 Y:ea P:25 SP:f9
fb3b  c9 56      CMP #$56    A:56 X:02 Y:ea P:25 SP:f9
fb3d  d0 36      BNE $fb75   A:56 X:02 Y:ea P:27 SP:f9
fb3f  60         RTS         A:56 X:02 Y:ea P:27 SP:f9
f312  ad 47 06   LDA $0647   A:56 X:02 Y:ea P:27 SP:fb
f315  c9 14      CMP #$14    A:14 X:02 Y:ea P:25 SP:fb
f317  f0 02      BEQ $f31b   A:14 X:02 Y:ea P:27 SP:fb
f31b  c8         INY         A:14 X:02 Y:ea P:27 SP:fb
f31c  a9 37      LDA #$37    A:14 X:02 Y:eb P:a5 SP:fb
f31e  8d 47 06   STA $0647   A:37 X:02 Y:eb P:25 SP:fb
f321  20 40 fb   JSR $fb40   A:37 X:02 Y:eb P:25 SP:fb
fb40  24 01      BIT $01     A:37 X:02 Y:eb P:25 SP:f9
fb42  38         SEC         A:37 X:02 Y:eb P:e5 SP:f9
fb43  a9 75      LDA #$75    A:37 X:02 Y:eb P:e5 SP:f9
fb45  60         RTS         A:75 X:02 Y:eb P:65 SP:f9
f324  43 45      SRE ($45,X) A:75 X:02 Y:eb P:65 SP:fb
f326  ea         NOP         A:6e X:02 Y:eb P:65 SP:fb
f327  ea         NOP         A:6e X:02 Y:eb P:65 SP:fb
f328  ea         NOP         A:6e X:02 Y:eb P:65 SP:fb
f329  ea         NOP         A:6e X:02 Y:eb P:65 SP:fb
f32a  20 46 fb   JSR $fb46   A:6e X:02 Y:eb P:65 SP:fb
fb46  50 2d      BVC $fb75   A:6e X:02 Y:eb P:65 SP:f9
fb48  f0 2b      BEQ $fb75   A:6e X:02 Y:eb P:65 SP:f9
fb4a  30 29      BMI $fb75   A:6e X:02 Y:eb P:65 SP:f9
fb4c  90 27      BCC $fb75   A:6e X:02 Y:eb P:65 SP:f9
fb4e  c9 6e      CMP #$6e    A:6e X:02 Y:eb P:65 SP:f9
fb50  d0 23      BNE $fb75   A:6e X:02 Y:eb P:67 SP:f9
fb52  60         RTS         A:6e X:02 Y:eb P:67 SP:f9
f32d  ad 47 06   LDA $0647   A:6e X:02 Y:eb P:67 SP:fb
f330  c9 1b      CMP #$1b    A:1b X:02 Y:eb P:65 SP:fb
f332  f0 02      BEQ $f336   A:1b X:02 Y:eb P:67 SP:fb
f336  c8         INY         A:1b X:02 Y:eb P:67 SP:fb
f337  a9 a5      LDA #$a5    A:1b X:02 Y:ec P:e5 SP:fb
f339  85 47      STA $47     A:a5 X:02 Y:ec P:e5 SP:fb
f33b  20 1d fb   JSR $fb1d   A:a5 X:02 Y:ec P:e5 SP:fb
fb1d  24 01      BIT $01     A:a5 X:02 Y:ec P:e5 SP:f9
fb1f  18         CLC         A:a5 X:02 Y:ec P:e5 SP:f9
fb20  a9 b3      LDA #$b3    A:a5 X:02 Y:ec P:e4 SP:f9
fb22  60         RTS         A:b3 X:02 Y:ec P:e4 SP:f9
f33e  47 47      SRE $47     A:b3 X:02 Y:ec P:e4 SP:fb
f340  ea         NOP         A:e1 X:02 Y:ec P:e5 SP:fb
f341  ea         NOP         A:e1 X:02 Y:ec P:e5 SP:fb
f342  ea         NOP         A:e1 X:02 Y:ec P:e5 SP:fb
f343  ea         NOP         A:e1 X:02 Y:ec P:e5 SP:fb
f344  20 23 fb   JSR $fb23   A:e1 X:02 Y:ec P:e5 SP:fb
fb23  50 50      BVC $fb75   A:e1 X:02 Y:ec P:e5 SP:f9
fb25  90 4e      BCC $fb75   A:e1 X:02 Y:ec P:e5 SP:f9
fb27  10 4c      BPL $fb75   A:e1 X:02 Y:ec P:e5 SP:f9
fb29  c9 e1      CMP #$e1    A:e1 X:02 Y:ec P:e5 SP:f9
fb2b  d0 48      BNE $fb75   A:e1 X:02 Y:ec P:67 SP:f9
fb2d  60         RTS         A:e1 X:02 Y:ec P:67 SP:f9
f347  a5 47      LDA $47     A:e1 X:02 Y:ec P:67 SP:fb
f349  c9 52      CMP #$52    A:52 X:02 Y:ec P:65 SP:fb
f34b  f0 02      BEQ $f34f   A:52 X:02 Y:ec P:67 SP:fb
f34f  c8         INY         A:52 X:02 Y:ec P:67 SP:fb
f350  a9 29      LDA #$29    A:52 X:02 Y:ed P:e5 SP:fb
f352  85 47      STA $47     A:29 X:02 Y:ed P:65 SP:fb
f354  20 2e fb   JSR $fb2e   A:29 X:02 Y:ed P:65 SP:fb
fb2e  b8         CLV         A:29 X:02 Y:ed P:65 SP:f9
fb2f  18         CLC         A:29 X:02 Y:ed P:25 SP:f9
fb30  a9 42      LDA #$42    A:29 X:02 Y:ed P:24 SP:f9
fb32  60         RTS         A:42 X:02 Y:ed P:24 SP:f9
f357  47 47      SRE $47     A:42 X:02 Y:ed P:24 SP:fb
f359  ea         NOP         A:56 X:02 Y:ed P:25 SP:fb
f35a  ea         NOP         A:56 X:02 Y:ed P:25 SP:fb
f35b  ea         NOP         A:56 X:02 Y:ed P:25 SP:fb
f35c  ea         NOP         A:56 X:02 Y:ed P:25 SP:fb
f35d  20 33 fb   JSR $fb33   A:56 X:02 Y:ed P:25 SP:fb
fb33  70 40      BVS $fb75   A:56 X:02 Y:ed P:25 SP:f9
fb35  f0 3e      BEQ $fb75   A:56 X:02 Y:ed P:25 SP:f9
fb37  30 3c      BMI $fb75   A:56 X:02 Y:ed P:25 SP:f9
fb39  90 3a      BCC $fb75   A:56 X:02 Y:ed P:25 SP:f9
fb3b  c9 56      CMP #$56    A:56 X:02 Y:ed P:25 SP:f9
fb3d  d0 36      BNE $fb75   A:56 X:02 Y:ed P:27 SP:f9
fb3f  60         RTS         A:56 X:02 Y:ed P:27 SP:f9
f360  a5 47      LDA $47     A:56 X:02 Y:ed P:27 SP:fb
f362  c9 14      CMP #$14    A:14 X:02 Y:ed P:25 SP:fb
f364  f0 02      BEQ $f368   A:14 X:02 Y:ed P:27 SP:fb
f368  c8         INY         A:14 X:02 Y:ed P:27 SP:fb
f369  a9 37      LDA #$37    A:14 X:02 Y:ee P:a5 SP:fb
f36b  85 47      STA $47     A:37 X:02 Y:ee P:25 SP:fb
f36d  20 40 fb   JSR $fb40   A:37 X:02 Y:ee P:25 SP:fb
fb40  24 01      BIT $01     A:37 X:02 Y:ee P:25 SP:f9
fb42  38         SEC         A:37 X:02 Y:ee P:e5 SP:f9
fb43  a9 75      LDA #$75    A:37 X:02 Y:ee P:e5 SP:f9
fb45  60         RTS         A:75 X:02 Y:ee P:65 SP:f9
f370  47 47      SRE $47     A:75 X:02 Y:ee P:65 SP:fb
f372  ea         NOP         A:6e X:02 Y:ee P:65 SP:fb
f373  ea         NOP         A:6e X:02 Y:ee P:65 SP:fb
f374  ea         NOP         A:6e X:02 Y:ee P:65 SP:fb
f375  ea         NOP         A:6e X:02 Y:ee P:65 SP:fb
f376  20 46 fb   JSR $fb46   A:6e X:02 Y:ee P:65 SP:fb
fb46  50 2d      BVC $fb75   A:6e X:02 Y:ee P:65 SP:f9
fb48  f0 2b      BEQ $fb75   A:6e X:02 Y:ee P:65 SP:f9
fb4a  30 29      BMI $fb75   A:6e X:02 Y:ee P:65 SP:f9
fb4c  90 27      BCC $fb75   A:6e X:02 Y:ee P:65 SP:f9
fb4e  c9 6e      CMP #$6e    A:6e X:02 Y:ee P:65 SP:f9
fb50  d0 23      BNE $fb75   A:6e X:02 Y:ee P:67 SP:f9
fb52  60         RTS         A:6e X:02 Y:ee P:67 SP:f9
f379  a5 47      LDA $47     A:6e X:02 Y:ee P:67 SP:fb
f37b  c9 1b      CMP #$1b    A:1b X:02 Y:ee P:65 SP:fb
f37d  f0 02      BEQ $f381   A:1b X:02 Y:ee P:67 SP:fb
f381  c8         INY         A:1b X:02 Y:ee P:67 SP:fb
f382  a9 a5      LDA #$a5    A:1b X:02 Y:ef P:e5 SP:fb
f384  8d 47 06   STA $0647   A:a5 X:02 Y:ef P:e5 SP:fb
f387  20 1d fb   JSR $fb1d   A:a5 X:02 Y:ef P:e5 SP:fb
fb1d  24 01      BIT $01     A:a5 X:02 Y:ef P:e5 SP:f9
fb1f  18         CLC         A:a5 X:02 Y:ef P:e5 SP:f9
fb20  a9 b3      LDA #$b3    A:a5 X:02 Y:ef P:e4 SP:f9
fb22  60         RTS         A:b3 X:02 Y:ef P:e4 SP:f9
f38a  4f 47 06   SRE $0647   A:b3 X:02 Y:ef P:e4 SP:fb
f38d  ea         NOP         A:e1 X:02 Y:ef P:e5 SP:fb
f38e  ea         NOP         A:e1 X:02 Y:ef P:e5 SP:fb
f38f  ea         NOP         A:e1 X:02 Y:ef P:e5 SP:fb
f390  ea         NOP         A:e1 X:02 Y:ef P:e5 SP:fb
f391  20 23 fb   JSR $fb23   A:e1 X:02 Y:ef P:e5 SP:fb
fb23  50 50      BVC $fb75   A:e1 X:02 Y:ef P:e5 SP:f9
fb25  90 4e      BCC $fb75   A:e1 X:02 Y:ef P:e5 SP:f9
fb27  10 4c      BPL $fb75   A:e1 X:02 Y:ef P:e5 SP:f9
fb29  c9 e1      CMP #$e1    A:e1 X:02 Y:ef P:e5 SP:f9
fb2b  d0 48      BNE $fb75   A:e1 X:02 Y:ef P:67 SP:f9
fb2d  60         RTS         A:e1 X:02 Y:ef P:67 SP:f9
f394  ad 47 06   LDA $0647   A:e1 X:02 Y:ef P:67 SP:fb
f397  c9 52      CMP #$52    A:52 X:02 Y:ef P:65 SP:fb
f399  f0 02      BEQ $f39d   A:52 X:02 Y:ef P:67 SP:fb
f39d  c8         INY         A:52 X:02 Y:ef P:67 SP:fb
f39e  a9 29      LDA #$29    A:52 X:02 Y:f0 P:e5 SP:fb
f3a0  8d 47 06   STA $0647   A:29 X:02 Y:f0 P:65 SP:fb
f3a3  20 2e fb   JSR $fb2e   A:29 X:02 Y:f0 P:65 SP:fb
fb2e  b8         CLV         A:29 X:02 Y:f0 P:65 SP:f9
fb2f  18         CLC         A:29 X:02 Y:f0 P:25 SP:f9
fb30  a9 42      LDA #$42    A:29 X:02 Y:f0 P:24 SP:f9
fb32  60         RTS         A:42 X:02 Y:f0 P:24 SP:f9
f3a6  4f 47 06   SRE $0647   A:42 X:02 Y:f0 P:24 SP:fb
f3a9  ea         NOP         A:56 X:02 Y:f0 P:25 SP:fb
f3aa  ea         NOP         A:56 X:02 Y:f0 P:25 SP:fb
f3ab  ea         NOP         A:56 X:02 Y:f0 P:25 SP:fb
f3ac  ea         NOP         A:56 X:02 Y:f0 P:25 SP:fb
f3ad  20 33 fb   JSR $fb33   A:56 X:02 Y:f0 P:25 SP:fb
fb33  70 40      BVS $fb75   A:56 X:02 Y:f0 P:25 SP:f9
fb35  f0 3e      BEQ $fb75   A:56 X:02 Y:f0 P:25 SP:f9
fb37  30 3c      BMI $fb75   A:56 X:02 Y:f0 P:25 SP:f9
fb39  90 3a      BCC $fb75   A:56 X:02 Y:f0 P:25 SP:f9
fb3b  c9 56      CMP #$56    A:56 X:02 Y:f0 P:25 SP:f9
fb3d  d0 36      BNE $fb75   A:56 X:02 Y:f0 P:27 SP:f9
fb3f  60         RTS         A:56 X:02 Y:f0 P:27 SP:f9
f3b0  ad 47 06   LDA $0647   A:56 X:02 Y:f0 P:27 SP:fb
f3b3  c9 14      CMP #$14    A:14 X:02 Y:f0 P:25 SP:fb
f3b5  f0 02      BEQ $f3b9   A:14 X:02 Y:f0 P:27 SP:fb
f3b9  c8         INY         A:14 X:02 Y:f0 P:27 SP:fb
f3ba  a9 37      LDA #$37    A:14 X:02 Y:f1 P:a5 SP:fb
f3bc  8d 47 06   STA $0647   A:37 X:02 Y:f1 P:25 SP:fb
f3bf  20 40 fb   JSR $fb40   A:37 X:02 Y:f1 P:25 SP:fb
fb40  24 01      BIT $01     A:37 X:02 Y:f1 P:25 SP:f9
fb42  38         SEC         A:37 X:02 Y:f1 P:e5 SP:f9
fb43  a9 75      LDA #$75    A:37 X:02 Y:f1 P:e5 SP:f9
fb45  60         RTS         A:75 X:02 Y:f1 P:65 SP:f9
f3c2  4f 47 06   SRE $0647   A:75 X:02 Y:f1 P:65 SP:fb
f3c5  ea         NOP         A:6e X:02 Y:f1 P:65 SP:fb
f3c6  ea         NOP         A:6e X:02 Y:f1 P:65 SP:fb
f3c7  ea         NOP         A:6e X:02 Y:f1 P:65 SP:fb
f3c8  ea         NOP         A:6e X:02 Y:f1 P:65 SP:fb
f3c9  20 46 fb   JSR $fb46   A:6e X:02 Y:f1 P:65 SP:fb
fb46  50 2d      BVC $fb75   A:6e X:02 Y:f1 P:65 SP:f9
fb48  f0 2b      BEQ $fb75   A:6e X:02 Y:f1 P:65 SP:f9
fb4a  30 29      BMI $fb75   A:6e X:02 Y:f1 P:65 SP:f9
fb4c  90 27      BCC $fb75   A:6e X:02 Y:f1 P:65 SP:f9
fb4e  c9 6e      CMP #$6e    A:6e X:02 Y:f1 P:65 SP:f9
fb50  d0 23      BNE $fb75   A:6e X:02 Y:f1 P:67 SP:f9
fb52  60         RTS         A:6e X:02 Y:f1 P:67 SP:f9
f3cc  ad 47 06   LDA $0647   A:6e X:02 Y:f1 P:67 SP:fb
f3cf  c9 1b      CMP #$1b    A:1b X:02 Y:f1 P:65 SP:fb
f3d1  f0 02      BEQ $f3d5   A:1b X:02 Y:f1 P:67 SP:fb
f3d5  a9 a5      LDA #$a5    A:1b X:02 Y:f1 P:67 SP:fb
f3d7  8d 47 06   STA $0647   A:a5 X:02 Y:f1 P:e5 SP:fb
f3da  a9 48      LDA #$48    A:a5 X:02 Y:f1 P:e5 SP:fb
f3dc  85 45      STA $45     A:48 X:02 Y:f1 P:65 SP:fb
f3de  a9 05      LDA #$05    A:48 X:02 Y:f1 P:65 SP:fb
f3e0  85 46      STA $46     A:05 X:02 Y:f1 P:65 SP:fb
f3e2  a0 ff      LDY #$ff    A:05 X:02 Y:f1 P:65 SP:fb
f3e4  20 1d fb   JSR $fb1d   A:05 X:02 Y:ff P:e5 SP:fb
fb1d  24 01      BIT $01     A:05 X:02 Y:ff P:e5 SP:f9
fb1f  18         CLC         A:05 X:02 Y:ff P:e5 SP:f9
fb20  a9 b3      LDA #$b3    A:05 X:02 Y:ff P:e4 SP:f9
fb22  60         RTS         A:b3 X:02 Y:ff P:e4 SP:f9
f3e7  53 45      SRE ($45),Y A:b3 X:02 Y:ff P:e4 SP:fb
f3e9  ea         NOP         A:e1 X:02 Y:ff P:e5 SP:fb
f3ea  ea         NOP         A:e1 X:02 Y:ff P:e5 SP:fb
f3eb  08         PHP         A:e1 X:02 Y:ff P:e5 SP:fb
f3ec  48         PHA         A:e1 X:02 Y:ff P:e5 SP:fa
f3ed  a0 f2      LDY #$f2    A:e1 X:02 Y:ff P:e5 SP:f9
f3ef  68         PLA         A:e1 X:02 Y:f2 P:e5 SP:f9
f3f0  28         PLP         A:e1 X:02 Y:f2 P:e5 SP:fa
f3f1  20 23 fb   JSR $fb23   A:e1 X:02 Y:f2 P:e5 SP:fb
fb23  50 50      BVC $fb75   A:e1 X:02 Y:f2 P:e5 SP:f9
fb25  90 4e      BCC $fb75   A:e1 X:02 Y:f2 P:e5 SP:f9
fb27  10 4c      BPL $fb75   A:e1 X:02 Y:f2 P:e5 SP:f9
fb29  c9 e1      CMP #$e1    A:e1 X:02 Y:f2 P:e5 SP:f9
fb2b  d0 48      BNE $fb75   A:e1 X:02 Y:f2 P:67 SP:f9
fb2d  60         RTS         A:e1 X:02 Y:f2 P:67 SP:f9
f3f4  ad 47 06   LDA $0647   A:e1 X:02 Y:f2 P:67 SP:fb
f3f7  c9 52      CMP #$52    A:52 X:02 Y:f2 P:65 SP:fb
f3f9  f0 02      BEQ $f3fd   A:52 X:02 Y:f2 P:67 SP:fb
f3fd  a0 ff      LDY #$ff    A:52 X:02 Y:f2 P:67 SP:fb
f3ff  a9 29      LDA #$29    A:52 X:02 Y:ff P:e5 SP:fb
f401  8d 47 06   STA $0647   A:29 X:02 Y:ff P:65 SP:fb
f404  20 2e fb   JSR $fb2e   A:29 X:02 Y:ff P:65 SP:fb
fb2e  b8         CLV         A:29 X:02 Y:ff P:65 SP:f9
fb2f  18         CLC         A:29 X:02 Y:ff P:25 SP:f9
fb30  a9 42      LDA #$42    A:29 X:02 Y:ff P:24 SP:f9
fb32  60         RTS         A:42 X:02 Y:ff P:24 SP:f9
f407  53 45      SRE ($45),Y A:42 X:02 Y:ff P:24 SP:fb
f409  ea         NOP         A:56 X:02 Y:ff P:25 SP:fb
f40a  ea         NOP         A:56 X:02 Y:ff P:25 SP:fb
f40b  08         PHP         A:56 X:02 Y:ff P:25 SP:fb
f40c  48         PHA         A:56 X:02 Y:ff P:25 SP:fa
f40d  a0 f3      LDY #$f3    A:56 X:02 Y:ff P:25 SP:f9
f40f  68         PLA         A:56 X:02 Y:f3 P:a5 SP:f9
f410  28         PLP         A:56 X:02 Y:f3 P:25 SP:fa
f411  20 33 fb   JSR $fb33   A:56 X:02 Y:f3 P:25 SP:fb
fb33  70 40      BVS $fb75   A:56 X:02 Y:f3 P:25 SP:f9
fb35  f0 3e      BEQ $fb75   A:56 X:02 Y:f3 P:25 SP:f9
fb37  30 3c      BMI $fb75   A:56 X:02 Y:f3 P:25 SP:f9
fb39  90 3a      BCC $fb75   A:56 X:02 Y:f3 P:25 SP:f9
fb3b  c9 56      CMP #$56    A:56 X:02 Y:f3 P:25 SP:f9
fb3d  d0 36      BNE $fb75   A:56 X:02 Y:f3 P:27 SP:f9
fb3f  60         RTS         A:56 X:02 Y:f3 P:27 SP:f9
f414  ad 47 06   LDA $0647   A:56 X:02 Y:f3 P:27 SP:fb
f417  c9 14      CMP #$14    A:14 X:02 Y:f3 P:25 SP:fb
f419  f0 02      BEQ $f41d   A:14 X:02 Y:f3 P:27 SP:fb
f41d  a0 ff      LDY #$ff    A:14 X:02 Y:f3 P:27 SP:fb
f41f  a9 37      LDA #$37    A:14 X:02 Y:ff P:a5 SP:fb
f421  8d 47 06   STA $0647   A:37 X:02 Y:ff P:25 SP:fb
f424  20 40 fb   JSR $fb40   A:37 X:02 Y:ff P:25 SP:fb
fb40  24 01      BIT $01     A:37 X:02 Y:ff P:25 SP:f9
fb42  38         SEC         A:37 X:02 Y:ff P:e5 SP:f9
fb43  a9 75      LDA #$75    A:37 X:02 Y:ff P:e5 SP:f9
fb45  60         RTS         A:75 X:02 Y:ff P:65 SP:f9
f427  53 45      SRE ($45),Y A:75 X:02 Y:ff P:65 SP:fb
f429  ea         NOP         A:6e X:02 Y:ff P:65 SP:fb
f42a  ea         NOP         A:6e X:02 Y:ff P:65 SP:fb
f42b  08         PHP         A:6e X:02 Y:ff P:65 SP:fb
f42c  48         PHA         A:6e X:02 Y:ff P:65 SP:fa
f42d  a0 f4      LDY #$f4    A:6e X:02 Y:ff P:65 SP:f9
f42f  68         PLA         A:6e X:02 Y:f4 P:e5 SP:f9
f430  28         PLP         A:6e X:02 Y:f4 P:65 SP:fa
f431  20 46 fb   JSR $fb46   A:6e X:02 Y:f4 P:65 SP:fb
fb46  50 2d      BVC $fb75   A:6e X:02 Y:f4 P:65 SP:f9
fb48  f0 2b      BEQ $fb75   A:6e X:02 Y:f4 P:65 SP:f9
fb4a  30 29      BMI $fb75   A:6e X:02 Y:f4 P:65 SP:f9
fb4c  90 27      BCC $fb75   A:6e X:02 Y:f4 P:65 SP:f9
fb4e  c9 6e      CMP #$6e    A:6e X:02 Y:f4 P:65 SP:f9
fb50  d0 23      BNE $fb75   A:6e X:02 Y:f4 P:67 SP:f9
fb52  60         RTS         A:6e X:02 Y:f4 P:67 SP:f9
f434  ad 47 06   LDA $0647   A:6e X:02 Y:f4 P:67 SP:fb
f437  c9 1b      CMP #$1b    A:1b X:02 Y:f4 P:65 SP:fb
f439  f0 02      BEQ $f43d   A:1b X:02 Y:f4 P:67 SP:fb
f43d  a0 f5      LDY #$f5    A:1b X:02 Y:f4 P:67 SP:fb
f43f  a2 ff      LDX #$ff    A:1b X:02 Y:f5 P:e5 SP:fb
f441  a9 a5      LDA #$a5    A:1b X:ff Y:f5 P:e5 SP:fb
f443  85 47      STA $47     A:a5 X:ff Y:f5 P:e5 SP:fb
f445  20 1d fb   JSR $fb1d   A:a5 X:ff Y:f5 P:e5 SP:fb
fb1d  24 01      BIT $01     A:a5 X:ff Y:f5 P:e5 SP:f9
fb1f  18         CLC         A:a5 X:ff Y:f5 P:e5 SP:f9
fb20  a9 b3      LDA #$b3    A:a5 X:ff Y:f5 P:e4 SP:f9
fb22  60         RTS         A:b3 X:ff Y:f5 P:e4 SP:f9
f448  57 48      SRE $48,X   A:b3 X:ff Y:f5 P:e4 SP:fb
f44a  ea         NOP         A:e1 X:ff Y:f5 P:e5 SP:fb
f44b  ea         NOP         A:e1 X:ff Y:f5 P:e5 SP:fb
f44c  ea         NOP         A:e1 X:ff Y:f5 P:e5 SP:fb
f44d  ea         NOP         A:e1 X:ff Y:f5 P:e5 SP:fb
f44e  20 23 fb   JSR $fb23   A:e1 X:ff Y:f5 P:e5 SP:fb
fb23  50 50      BVC $fb75   A:e1 X:ff Y:f5 P:e5 SP:f9
fb25  90 4e      BCC $fb75   A:e1 X:ff Y:f5 P:e5 SP:f9
fb27  10 4c      BPL $fb75   A:e1 X:ff Y:f5 P:e5 SP:f9
fb29  c9 e1      CMP #$e1    A:e1 X:ff Y:f5 P:e5 SP:f9
fb2b  d0 48      BNE $fb75   A:e1 X:ff Y:f5 P:67 SP:f9
fb2d  60         RTS         A:e1 X:ff Y:f5 P:67 SP:f9
f451  a5 47      LDA $47     A:e1 X:ff Y:f5 P:67 SP:fb
f453  c9 52      CMP #$52    A:52 X:ff Y:f5 P:65 SP:fb
f455  f0 02      BEQ $f459   A:52 X:ff Y:f5 P:67 SP:fb
f459  c8         INY         A:52 X:ff Y:f5 P:67 SP:fb
f45a  a9 29      LDA #$29    A:52 X:ff Y:f6 P:e5 SP:fb
f45c  85 47      STA $47     A:29 X:ff Y:f6 P:65 SP:fb
f45e  20 2e fb   JSR $fb2e   A:29 X:ff Y:f6 P:65 SP:fb
fb2e  b8         CLV         A:29 X:ff Y:f6 P:65 SP:f9
fb2f  18         CLC         A:29 X:ff Y:f6 P:25 SP:f9
fb30  a9 42      LDA #$42    A:29 X:ff Y:f6 P:24 SP:f9
fb32  60         RTS         A:42 X:ff Y:f6 P:24 SP:f9
f461  57 48      SRE $48,X   A:42 X:ff Y:f6 P:24 SP:fb
f463  ea         NOP         A:56 X:ff Y:f6 P:25 SP:fb
f464  ea         NOP         A:56 X:ff Y:f6 P:25 SP:fb
f465  ea         NOP         A:56 X:ff Y:f6 P:25 SP:fb
f466  ea         NOP         A:56 X:ff Y:f6 P:25 SP:fb
f467  20 33 fb   JSR $fb33   A:56 X:ff Y:f6 P:25 SP:fb
fb33  70 40      BVS $fb75   A:56 X:ff Y:f6 P:25 SP:f9
fb35  f0 3e      BEQ $fb75   A:56 X:ff Y:f6 P:25 SP:f9
fb37  30 3c      BMI $fb75   A:56 X:ff Y:f6 P:25 SP:f9
fb39  90 3a      BCC $fb75   A:56 X:ff Y:f6 P:25 SP:f9
fb3b  c9 56      CMP #$56    A:56 X:ff Y:f6 P:25 SP:f9
fb3d  d0 36      BNE $fb75   A:56 X:ff Y:f6 P:27 SP:f9
fb3f  60         RTS         A:56 X:ff Y:f6 P:27 SP:f9
f46a  a5 47      LDA $47     A:56 X:ff Y:f6 P:27 SP:fb
f46c  c9 14      CMP #$14    A:14 X:ff Y:f6 P:25 SP:fb
f46e  f0 02      BEQ $f472   A:14 X:ff Y:f6 P:27 SP:fb
f472  c8         INY         A:14 X:ff Y:f6 P:27 SP:fb
f473  a9 37      LDA #$37    A:14 X:ff Y:f7 P:a5 SP:fb
f475  85 47      STA $47     A:37 X:ff Y:f7 P:25 SP:fb
f477  20 40 fb   JSR $fb40   A:37 X:ff Y:f7 P:25 SP:fb
fb40  24 01      BIT $01     A:37 X:ff Y:f7 P:25 SP:f9
fb42  38         SEC         A:37 X:ff Y:f7 P:e5 SP:f9
fb43  a9 75      LDA #$75    A:37 X:ff Y:f7 P:e5 SP:f9
fb45  60         RTS         A:75 X:ff Y:f7 P:65 SP:f9
f47a  57 48      SRE $48,X   A:75 X:ff Y:f7 P:65 SP:fb
f47c  ea         NOP         A:6e X:ff Y:f7 P:65 SP:fb
f47d  ea         NOP         A:6e X:ff Y:f7 P:65 SP:fb
f47e  ea         NOP         A:6e X:ff Y:f7 P:65 SP:fb
f47f  ea         NOP         A:6e X:ff Y:f7 P:65 SP:fb
f480  20 46 fb   JSR $fb46   A:6e X:ff Y:f7 P:65 SP:fb
fb46  50 2d      BVC $fb75   A:6e X:ff Y:f7 P:65 SP:f9
fb48  f0 2b      BEQ $fb75   A:6e X:ff Y:f7 P:65 SP:f9
fb4a  30 29      BMI $fb75   A:6e X:ff Y:f7 P:65 SP:f9
fb4c  90 27      BCC $fb75   A:6e X:ff Y:f7 P:65 SP:f9
fb4e  c9 6e      CMP #$6e    A:6e X:ff Y:f7 P:65 SP:f9
fb50  d0 23      BNE $fb75   A:6e X:ff Y:f7 P:67 SP:f9
fb52  60         RTS         A:6e X:ff Y:f7 P:67 SP:f9
f483  a5 47      LDA $47     A:6e X:ff Y:f7 P:67 SP:fb
f485  c9 1b      CMP #$1b    A:1b X:ff Y:f7 P:65 SP:fb
f487  f0 02      BEQ $f48b   A:1b X:ff Y:f7 P:67 SP:fb
f48b  a9 a5      LDA #$a5    A:1b X:ff Y:f7 P:67 SP:fb
f48d  8d 47 06   STA $0647   A:a5 X:ff Y:f7 P:e5 SP:fb
f490  a0 ff      LDY #$ff    A:a5 X:ff Y:f7 P:e5 SP:fb
f492  20 1d fb   JSR $fb1d   A:a5 X:ff Y:ff P:e5 SP:fb
fb1d  24 01      BIT $01     A:a5 X:ff Y:ff P:e5 SP:f9
fb1f  18         CLC         A:a5 X:ff Y:ff P:e5 SP:f9
fb20  a9 b3      LDA #$b3    A:a5 X:ff Y:ff P:e4 SP:f9
fb22  60         RTS         A:b3 X:ff Y:ff P:e4 SP:f9
f495  5b 48 05   SRE $0548,Y A:b3 X:ff Y:ff P:e4 SP:fb
f498  ea         NOP         A:e1 X:ff Y:ff P:e5 SP:fb
f499  ea         NOP         A:e1 X:ff Y:ff P:e5 SP:fb
f49a  08         PHP         A:e1 X:ff Y:ff P:e5 SP:fb
f49b  48         PHA         A:e1 X:ff Y:ff P:e5 SP:fa
f49c  a0 f8      LDY #$f8    A:e1 X:ff Y:ff P:e5 SP:f9
f49e  68         PLA         A:e1 X:ff Y:f8 P:e5 SP:f9
f49f  28         PLP         A:e1 X:ff Y:f8 P:e5 SP:fa
f4a0  20 23 fb   JSR $fb23   A:e1 X:ff Y:f8 P:e5 SP:fb
fb23  50 50      BVC $fb75   A:e1 X:ff Y:f8 P:e5 SP:f9
fb25  90 4e      BCC $fb75   A:e1 X:ff Y:f8 P:e5 SP:f9
fb27  10 4c      BPL $fb75   A:e1 X:ff Y:f8 P:e5 SP:f9
fb29  c9 e1      CMP #$e1    A:e1 X:ff Y:f8 P:e5 SP:f9
fb2b  d0 48      BNE $fb75   A:e1 X:ff Y:f8 P:67 SP:f9
fb2d  60         RTS         A:e1 X:ff Y:f8 P:67 SP:f9
f4a3  ad 47 06   LDA $0647   A:e1 X:ff Y:f8 P:67 SP:fb
f4a6  c9 52      CMP #$52    A:52 X:ff Y:f8 P:65 SP:fb
f4a8  f0 02      BEQ $f4ac   A:52 X:ff Y:f8 P:67 SP:fb
f4ac  a0 ff      LDY #$ff    A:52 X:ff Y:f8 P:67 SP:fb
f4ae  a9 29      LDA #$29    A:52 X:ff Y:ff P:e5 SP:fb
f4b0  8d 47 06   STA $0647   A:29 X:ff Y:ff P:65 SP:fb
f4b3  20 2e fb   JSR $fb2e   A:29 X:ff Y:ff P:65 SP:fb
fb2e  b8         CLV         A:29 X:ff Y:ff P:65 SP:f9
fb2f  18         CLC         A:29 X:ff Y:ff P:25 SP:f9
fb30  a9 42      LDA #$42    A:29 X:ff Y:ff P:24 SP:f9
fb32  60         RTS         A:42 X:ff Y:ff P:24 SP:f9
f4b6  5b 48 05   SRE $0548,Y A:42 X:ff Y:ff P:24 SP:fb
f4b9  ea         NOP         A:56 X:ff Y:ff P:25 SP:fb
f4ba  ea         NOP         A:56 X:ff Y:ff P:25 SP:fb
f4bb  08         PHP         A:56 X:ff Y:ff P:25 SP:fb
f4bc  48         PHA         A:56 X:ff Y:ff P:25 SP:fa
f4bd  a0 f9      LDY #$f9    A:56 X:ff Y:ff P:25 SP:f9
f4bf  68         PLA         A:56 X:ff Y:f9 P:a5 SP:f9
f4c0  28         PLP         A:56 X:ff Y:f9 P:25 SP:fa
f4c1  20 33 fb   JSR $fb33   A:56 X:ff Y:f9 P:25 SP:fb
fb33  70 40      BVS $fb75   A:56 X:ff Y:f9 P:25 SP:f9
fb35  f0 3e      BEQ $fb75   A:56 X:ff Y:f9 P:25 SP:f9
fb37  30 3c      BMI $fb75   A:56 X:ff Y:f9 P:25 SP:f9
fb39  90 3a      BCC $fb75   A:56 X:ff Y:f9 P:25 SP:f9
fb3b  c9 56      CMP #$56    A:56 X:ff Y:f9 P:25 SP:f9
fb3d  d0 36      BNE $fb75   A:56 X:ff Y:f9 P:27 SP:f9
fb3f  60         RTS         A:56 X:ff Y:f9 P:27 SP:f9
f4c4  ad 47 06   LDA $0647   A:56 X:ff Y:f9 P:27 SP:fb
f4c7  c9 14      CMP #$14    A:14 X:ff Y:f9 P:25 SP:fb
f4c9  f0 02      BEQ $f4cd   A:14 X:ff Y:f9 P:27 SP:fb
f4cd  a0 ff      LDY #$ff    A:14 X:ff Y:f9 P:27 SP:fb
f4cf  a9 37      LDA #$37    A:14 X:ff Y:ff P:a5 SP:fb
f4d1  8d 47 06   STA $0647   A:37 X:ff Y:ff P:25 SP:fb
f4d4  20 40 fb   JSR $fb40   A:37 X:ff Y:ff P:25 SP:fb
fb40  24 01      BIT $01     A:37 X:ff Y:ff P:25 SP:f9
fb42  38         SEC         A:37 X:ff Y:ff P:e5 SP:f9
fb43  a9 75      LDA #$75    A:37 X:ff Y:ff P:e5 SP:f9
fb45  60         RTS         A:75 X:ff Y:ff P:65 SP:f9
f4d7  5b 48 05   SRE $0548,Y A:75 X:ff Y:ff P:65 SP:fb
f4da  ea         NOP         A:6e X:ff Y:ff P:65 SP:fb
f4db  ea         NOP         A:6e X:ff Y:ff P:65 SP:fb
f4dc  08         PHP         A:6e X:ff Y:ff P:65 SP:fb
f4dd  48         PHA         A:6e X:ff Y:ff P:65 SP:fa
f4de  a0 fa      LDY #$fa    A:6e X:ff Y:ff P:65 SP:f9
f4e0  68         PLA         A:6e X:ff Y:fa P:e5 SP:f9
f4e1  28         PLP         A:6e X:ff Y:fa P:65 SP:fa
f4e2  20 46 fb   JSR $fb46   A:6e X:ff Y:fa P:65 SP:fb
fb46  50 2d      BVC $fb75   A:6e X:ff Y:fa P:65 SP:f9
fb48  f0 2b      BEQ $fb75   A:6e X:ff Y:fa P:65 SP:f9
fb4a  30 29      BMI $fb75   A:6e X:ff Y:fa P:65 SP:f9
fb4c  90 27      BCC $fb75   A:6e X:ff Y:fa P:65 SP:f9
fb4e  c9 6e      CMP #$6e    A:6e X:ff Y:fa P:65 SP:f9
fb50  d0 23      BNE $fb75   A:6e X:ff Y:fa P:67 SP:f9
fb52  60         RTS         A:6e X:ff Y:fa P:67 SP:f9
f4e5  ad 47 06   LDA $0647   A:6e X:ff Y:fa P:67 SP:fb
f4e8  c9 1b      CMP #$1b    A:1b X:ff Y:fa P:65 SP:fb
f4ea  f0 02      BEQ $f4ee   A:1b X:ff Y:fa P:67 SP:fb
f4ee  a0 fb      LDY #$fb    A:1b X:ff Y:fa P:67 SP:fb
f4f0  a2 ff      LDX #$ff    A:1b X:ff Y:fb P:e5 SP:fb
f4f2  a9 a5      LDA #$a5    A:1b X:ff Y:fb P:e5 SP:fb
f4f4  8d 47 06   STA $0647   A:a5 X:ff Y:fb P:e5 SP:fb
f4f7  20 1d fb   JSR $fb1d   A:a5 X:ff Y:fb P:e5 SP:fb
fb1d  24 01      BIT $01     A:a5 X:ff Y:fb P:e5 SP:f9
fb1f  18         CLC         A:a5 X:ff Y:fb P:e5 SP:f9
fb20  a9 b3      LDA #$b3    A:a5 X:ff Y:fb P:e4 SP:f9
fb22  60         RTS         A:b3 X:ff Y:fb P:e4 SP:f9
f4fa  5f 48 05   SRE $0548,X A:b3 X:ff Y:fb P:e4 SP:fb
f4fd  ea         NOP         A:e1 X:ff Y:fb P:e5 SP:fb
f4fe  ea         NOP         A:e1 X:ff Y:fb P:e5 SP:fb
f4ff  ea         NOP         A:e1 X:ff Y:fb P:e5 SP:fb
f500  ea         NOP         A:e1 X:ff Y:fb P:e5 SP:fb
f501  20 23 fb   JSR $fb23   A:e1 X:ff Y:fb P:e5 SP:fb
fb23  50 50      BVC $fb75   A:e1 X:ff Y:fb P:e5 SP:f9
fb25  90 4e      BCC $fb75   A:e1 X:ff Y:fb P:e5 SP:f9
fb27  10 4c      BPL $fb75   A:e1 X:ff Y:fb P:e5 SP:f9
fb29  c9 e1      CMP #$e1    A:e1 X:ff Y:fb P:e5 SP:f9
fb2b  d0 48      BNE $fb75   A:e1 X:ff Y:fb P:67 SP:f9
fb2d  60         RTS         A:e1 X:ff Y:fb P:67 SP:f9
f504  ad 47 06   LDA $0647   A:e1 X:ff Y:fb P:67 SP:fb
f507  c9 52      CMP #$52    A:52 X:ff Y:fb P:65 SP:fb
f509  f0 02      BEQ $f50d   A:52 X:ff Y:fb P:67 SP:fb
f50d  c8         INY         A:52 X:ff Y:fb P:67 SP:fb
f50e  a9 29      LDA #$29    A:52 X:ff Y:fc P:e5 SP:fb
f510  8d 47 06   STA $0647   A:29 X:ff Y:fc P:65 SP:fb
f513  20 2e fb   JSR $fb2e   A:29 X:ff Y:fc P:65 SP:fb
fb2e  b8         CLV         A:29 X:ff Y:fc P:65 SP:f9
fb2f  18         CLC         A:29 X:ff Y:fc P:25 SP:f9
fb30  a9 42      LDA #$42    A:29 X:ff Y:fc P:24 SP:f9
fb32  60         RTS         A:42 X:ff Y:fc P:24 SP:f9
f516  5f 48 05   SRE $0548,X A:42 X:ff Y:fc P:24 SP:fb
f519  ea         NOP         A:56 X:ff Y:fc P:25 SP:fb
f51a  ea         NOP         A:56 X:ff Y:fc P:25 SP:fb
f51b  ea         NOP         A:56 X:ff Y:fc P:25 SP:fb
f51c  ea         NOP         A:56 X:ff Y:fc P:25 SP:fb
f51d  20 33 fb   JSR $fb33   A:56 X:ff Y:fc P:25 SP:fb
fb33  70 40      BVS $fb75   A:56 X:ff Y:fc P:25 SP:f9
fb35  f0 3e      BEQ $fb75   A:56 X:ff Y:fc P:25 SP:f9
fb37  30 3c      BMI $fb75   A:56 X:ff Y:fc P:25 SP:f9
fb39  90 3a      BCC $fb75   A:56 X:ff Y:fc P:25 SP:f9
fb3b  c9 56      CMP #$56    A:56 X:ff Y:fc P:25 SP:f9
fb3d  d0 36      BNE $fb75   A:56 X:ff Y:fc P:27 SP:f9
fb3f  60         RTS         A:56 X:ff Y:fc P:27 SP:f9
f520  ad 47 06   LDA $0647   A:56 X:ff Y:fc P:27 SP:fb
f523  c9 14      CMP #$14    A:14 X:ff Y:fc P:25 SP:fb
f525  f0 02      BEQ $f529   A:14 X:ff Y:fc P:27 SP:fb
f529  c8         INY         A:14 X:ff Y:fc P:27 SP:fb
f52a  a9 37      LDA #$37    A:14 X:ff Y:fd P:a5 SP:fb
f52c  8d 47 06   STA $0647   A:37 X:ff Y:fd P:25 SP:fb
f52f  20 40 fb   JSR $fb40   A:37 X:ff Y:fd P:25 SP:fb
fb40  24 01      BIT $01     A:37 X:ff Y:fd P:25 SP:f9
fb42  38         SEC         A:37 X:ff Y:fd P:e5 SP:f9
fb43  a9 75      LDA #$75    A:37 X:ff Y:fd P:e5 SP:f9
fb45  60         RTS         A:75 X:ff Y:fd P:65 SP:f9
f532  5f 48 05   SRE $0548,X A:75 X:ff Y:fd P:65 SP:fb
f535  ea         NOP         A:6e X:ff Y:fd P:65 SP:fb
f536  ea         NOP         A:6e X:ff Y:fd P:65 SP:fb
f537  ea         NOP         A:6e X:ff Y:fd P:65 SP:fb
f538  ea         NOP         A:6e X:ff Y:fd P:65 SP:fb
f539  20 46 fb   JSR $fb46   A:6e X:ff Y:fd P:65 SP:fb
fb46  50 2d      BVC $fb75   A:6e X:ff Y:fd P:65 SP:f9
fb48  f0 2b      BEQ $fb75   A:6e X:ff Y:fd P:65 SP:f9
fb4a  30 29      BMI $fb75   A:6e X:ff Y:fd P:65 SP:f9
fb4c  90 27      BCC $fb75   A:6e X:ff Y:fd P:65 SP:f9
fb4e  c9 6e      CMP #$6e    A:6e X:ff Y:fd P:65 SP:f9
fb50  d0 23      BNE $fb75   A:6e X:ff Y:fd P:67 SP:f9
fb52  60         RTS         A:6e X:ff Y:fd P:67 SP:f9
f53c  ad 47 06   LDA $0647   A:6e X:ff Y:fd P:67 SP:fb
f53f  c9 1b      CMP #$1b    A:1b X:ff Y:fd P:65 SP:fb
f541  f0 02      BEQ $f545   A:1b X:ff Y:fd P:67 SP:fb
f545  60         RTS         A:1b X:ff Y:fd P:67 SP:fb
c64a  a5 00      LDA $00     A:1b X:ff Y:fd P:67 SP:fd
c64c  85 11      STA $11     A:00 X:ff Y:fd P:67 SP:fd
c64e  a9 00      LDA #$00    A:00 X:ff Y:fd P:67 SP:fd
c650  85 00      STA $00     A:00 X:ff Y:fd P:67 SP:fd
c652  20 46 f5   JSR $f546   A:00 X:ff Y:fd P:67 SP:fd
f546  a9 ff      LDA #$ff    A:00 X:ff Y:fd P:67 SP:fb
f548  85 01      STA $01     A:ff X:ff Y:fd P:e5 SP:fb
f54a  a0 01      LDY #$01    A:ff X:ff Y:fd P:e5 SP:fb
f54c  a2 02      LDX #$02    A:ff X:ff Y:01 P:65 SP:fb
f54e  a9 47      LDA #$47    A:ff X:02 Y:01 P:65 SP:fb
f550  85 47      STA $47     A:47 X:02 Y:01 P:65 SP:fb
f552  a9 06      LDA #$06    A:47 X:02 Y:01 P:65 SP:fb
f554  85 48      STA $48     A:06 X:02 Y:01 P:65 SP:fb
f556  a9 a5      LDA #$a5    A:06 X:02 Y:01 P:65 SP:fb
f558  8d 47 06   STA $0647   A:a5 X:02 Y:01 P:e5 SP:fb
f55b  20 e9 fa   JSR $fae9   A:a5 X:02 Y:01 P:e5 SP:fb
fae9  24 01      BIT $01     A:a5 X:02 Y:01 P:e5 SP:f9
faeb  18         CLC         A:a5 X:02 Y:01 P:e5 SP:f9
faec  a9 b2      LDA #$b2    A:a5 X:02 Y:01 P:e4 SP:f9
faee  60         RTS         A:b2 X:02 Y:01 P:e4 SP:f9
f55e  63 45      RRA ($45,X) A:b2 X:02 Y:01 P:e4 SP:fb
f560  ea         NOP         A:05 X:02 Y:01 P:25 SP:fb
f561  ea         NOP         A:05 X:02 Y:01 P:25 SP:fb
f562  ea         NOP         A:05 X:02 Y:01 P:25 SP:fb
f563  ea         NOP         A:05 X:02 Y:01 P:25 SP:fb
f564  20 ef fa   JSR $faef   A:05 X:02 Y:01 P:25 SP:fb
faef  70 2a      BVS $fb1b   A:05 X:02 Y:01 P:25 SP:f9
faf1  90 28      BCC $fb1b   A:05 X:02 Y:01 P:25 SP:f9
faf3  30 26      BMI $fb1b   A:05 X:02 Y:01 P:25 SP:f9
faf5  c9 05      CMP #$05    A:05 X:02 Y:01 P:25 SP:f9
faf7  d0 22      BNE $fb1b   A:05 X:02 Y:01 P:27 SP:f9
faf9  60         RTS         A:05 X:02 Y:01 P:27 SP:f9
f567  ad 47 06   LDA $0647   A:05 X:02 Y:01 P:27 SP:fb
f56a  c9 52      CMP #$52    A:52 X:02 Y:01 P:25 SP:fb
f56c  f0 02      BEQ $f570   A:52 X:02 Y:01 P:27 SP:fb
f570  c8         INY         A:52 X:02 Y:01 P:27 SP:fb
f571  a9 29      LDA #$29    A:52 X:02 Y:02 P:25 SP:fb
f573  8d 47 06   STA $0647   A:29 X:02 Y:02 P:25 SP:fb
f576  20 fa fa   JSR $fafa   A:29 X:02 Y:02 P:25 SP:fb
fafa  b8         CLV         A:29 X:02 Y:02 P:25 SP:f9
fafb  18         CLC         A:29 X:02 Y:02 P:25 SP:f9
fafc  a9 42      LDA #$42    A:29 X:02 Y:02 P:24 SP:f9
fafe  60         RTS         A:42 X:02 Y:02 P:24 SP:f9
f579  63 45      RRA ($45,X) A:42 X:02 Y:02 P:24 SP:fb
f57b  ea         NOP         A:57 X:02 Y:02 P:24 SP:fb
f57c  ea         NOP         A:57 X:02 Y:02 P:24 SP:fb
f57d  ea         NOP         A:57 X:02 Y:02 P:24 SP:fb
f57e  ea         NOP         A:57 X:02 Y:02 P:24 SP:fb
f57f  20 ff fa   JSR $faff   A:57 X:02 Y:02 P:24 SP:fb
faff  70 1a      BVS $fb1b   A:57 X:02 Y:02 P:24 SP:f9
fb01  30 18      BMI $fb1b   A:57 X:02 Y:02 P:24 SP:f9
fb03  b0 16      BCS $fb1b   A:57 X:02 Y:02 P:24 SP:f9
fb05  c9 57      CMP #$57    A:57 X:02 Y:02 P:24 SP:f9
fb07  d0 12      BNE $fb1b   A:57 X:02 Y:02 P:27 SP:f9
fb09  60         RTS         A:57 X:02 Y:02 P:27 SP:f9
f582  ad 47 06   LDA $0647   A:57 X:02 Y:02 P:27 SP:fb
f585  c9 14      CMP #$14    A:14 X:02 Y:02 P:25 SP:fb
f587  f0 02      BEQ $f58b   A:14 X:02 Y:02 P:27 SP:fb
f58b  c8         INY         A:14 X:02 Y:02 P:27 SP:fb
f58c  a9 37      LDA #$37    A:14 X:02 Y:03 P:25 SP:fb
f58e  8d 47 06   STA $0647   A:37 X:02 Y:03 P:25 SP:fb
f591  20 0a fb   JSR $fb0a   A:37 X:02 Y:03 P:25 SP:fb
fb0a  24 01      BIT $01     A:37 X:02 Y:03 P:25 SP:f9
fb0c  38         SEC         A:37 X:02 Y:03 P:e5 SP:f9
fb0d  a9 75      LDA #$75    A:37 X:02 Y:03 P:e5 SP:f9
fb0f  60         RTS         A:75 X:02 Y:03 P:65 SP:f9
f594  63 45      RRA ($45,X) A:75 X:02 Y:03 P:65 SP:fb
f596  ea         NOP         A:11 X:02 Y:03 P:25 SP:fb
f597  ea         NOP         A:11 X:02 Y:03 P:25 SP:fb
f598  ea         NOP         A:11 X:02 Y:03 P:25 SP:fb
f599  ea         NOP         A:11 X:02 Y:03 P:25 SP:fb
f59a  20 10 fb   JSR $fb10   A:11 X:02 Y:03 P:25 SP:fb
fb10  70 09      BVS $fb1b   A:11 X:02 Y:03 P:25 SP:f9
fb12  30 07      BMI $fb1b   A:11 X:02 Y:03 P:25 SP:f9
fb14  90 05      BCC $fb1b   A:11 X:02 Y:03 P:25 SP:f9
fb16  c9 11      CMP #$11    A:11 X:02 Y:03 P:25 SP:f9
fb18  d0 01      BNE $fb1b   A:11 X:02 Y:03 P:27 SP:f9
fb1a  60         RTS         A:11 X:02 Y:03 P:27 SP:f9
f59d  ad 47 06   LDA $0647   A:11 X:02 Y:03 P:27 SP:fb
f5a0  c9 9b      CMP #$9b    A:9b X:02 Y:03 P:a5 SP:fb
f5a2  f0 02      BEQ $f5a6   A:9b X:02 Y:03 P:27 SP:fb
f5a6  c8         INY         A:9b X:02 Y:03 P:27 SP:fb
f5a7  a9 a5      LDA #$a5    A:9b X:02 Y:04 P:25 SP:fb
f5a9  85 47      STA $47     A:a5 X:02 Y:04 P:a5 SP:fb
f5ab  20 e9 fa   JSR $fae9   A:a5 X:02 Y:04 P:a5 SP:fb
fae9  24 01      BIT $01     A:a5 X:02 Y:04 P:a5 SP:f9
faeb  18         CLC         A:a5 X:02 Y:04 P:e5 SP:f9
faec  a9 b2      LDA #$b2    A:a5 X:02 Y:04 P:e4 SP:f9
faee  60         RTS         A:b2 X:02 Y:04 P:e4 SP:f9
f5ae  67 47      RRA $47     A:b2 X:02 Y:04 P:e4 SP:fb
f5b0  ea         NOP         A:05 X:02 Y:04 P:25 SP:fb
f5b1  ea         NOP         A:05 X:02 Y:04 P:25 SP:fb
f5b2  ea         NOP         A:05 X:02 Y:04 P:25 SP:fb
f5b3  ea         NOP         A:05 X:02 Y:04 P:25 SP:fb
f5b4  20 ef fa   JSR $faef   A:05 X:02 Y:04 P:25 SP:fb
faef  70 2a      BVS $fb1b   A:05 X:02 Y:04 P:25 SP:f9
faf1  90 28      BCC $fb1b   A:05 X:02 Y:04 P:25 SP:f9
faf3  30 26      BMI $fb1b   A:05 X:02 Y:04 P:25 SP:f9
faf5  c9 05      CMP #$05    A:05 X:02 Y:04 P:25 SP:f9
faf7  d0 22      BNE $fb1b   A:05 X:02 Y:04 P:27 SP:f9
faf9  60         RTS         A:05 X:02 Y:04 P:27 SP:f9
f5b7  a5 47      LDA $47     A:05 X:02 Y:04 P:27 SP:fb
f5b9  c9 52      CMP #$52    A:52 X:02 Y:04 P:25 SP:fb
f5bb  f0 02      BEQ $f5bf   A:52 X:02 Y:04 P:27 SP:fb
f5bf  c8         INY         A:52 X:02 Y:04 P:27 SP:fb
f5c0  a9 29      LDA #$29    A:52 X:02 Y:05 P:25 SP:fb
f5c2  85 47      STA $47     A:29 X:02 Y:05 P:25 SP:fb
f5c4  20 fa fa   JSR $fafa   A:29 X:02 Y:05 P:25 SP:fb
fafa  b8         CLV         A:29 X:02 Y:05 P:25 SP:f9
fafb  18         CLC         A:29 X:02 Y:05 P:25 SP:f9
fafc  a9 42      LDA #$42    A:29 X:02 Y:05 P:24 SP:f9
fafe  60         RTS         A:42 X:02 Y:05 P:24 SP:f9
f5c7  67 47      RRA $47     A:42 X:02 Y:05 P:24 SP:fb
f5c9  ea         NOP         A:57 X:02 Y:05 P:24 SP:fb
f5ca  ea         NOP         A:57 X:02 Y:05 P:24 SP:fb
f5cb  ea         NOP         A:57 X:02 Y:05 P:24 SP:fb
f5cc  ea         NOP         A:57 X:02 Y:05 P:24 SP:fb
f5cd  20 ff fa   JSR $faff   A:57 X:02 Y:05 P:24 SP:fb
faff  70 1a      BVS $fb1b   A:57 X:02 Y:05 P:24 SP:f9
fb01  30 18      BMI $fb1b   A:57 X:02 Y:05 P:24 SP:f9
fb03  b0 16      BCS $fb1b   A:57 X:02 Y:05 P:24 SP:f9
fb05  c9 57      CMP #$57    A:57 X:02 Y:05 P:24 SP:f9
fb07  d0 12      BNE $fb1b   A:57 X:02 Y:05 P:27 SP:f9
fb09  60         RTS         A:57 X:02 Y:05 P:27 SP:f9
f5d0  a5 47      LDA $47     A:57 X:02 Y:05 P:27 SP:fb
f5d2  c9 14      CMP #$14    A:14 X:02 Y:05 P:25 SP:fb
f5d4  f0 02      BEQ $f5d8   A:14 X:02 Y:05 P:27 SP:fb
f5d8  c8         INY         A:14 X:02 Y:05 P:27 SP:fb
f5d9  a9 37      LDA #$37    A:14 X:02 Y:06 P:25 SP:fb
f5db  85 47      STA $47     A:37 X:02 Y:06 P:25 SP:fb
f5dd  20 0a fb   JSR $fb0a   A:37 X:02 Y:06 P:25 SP:fb
fb0a  24 01      BIT $01     A:37 X:02 Y:06 P:25 SP:f9
fb0c  38         SEC         A:37 X:02 Y:06 P:e5 SP:f9
fb0d  a9 75      LDA #$75    A:37 X:02 Y:06 P:e5 SP:f9
fb0f  60         RTS         A:75 X:02 Y:06 P:65 SP:f9
f5e0  67 47      RRA $47     A:75 X:02 Y:06 P:65 SP:fb
f5e2  ea         NOP         A:11 X:02 Y:06 P:25 SP:fb
f5e3  ea         NOP         A:11 X:02 Y:06 P:25 SP:fb
f5e4  ea         NOP         A:11 X:02 Y:06 P:25 SP:fb
f5e5  ea         NOP         A:11 X:02 Y:06 P:25 SP:fb
f5e6  20 10 fb   JSR $fb10   A:11 X:02 Y:06 P:25 SP:fb
fb10  70 09      BVS $fb1b   A:11 X:02 Y:06 P:25 SP:f9
fb12  30 07      BMI $fb1b   A:11 X:02 Y:06 P:25 SP:f9
fb14  90 05      BCC $fb1b   A:11 X:02 Y:06 P:25 SP:f9
fb16  c9 11      CMP #$11    A:11 X:02 Y:06 P:25 SP:f9
fb18  d0 01      BNE $fb1b   A:11 X:02 Y:06 P:27 SP:f9
fb1a  60         RTS         A:11 X:02 Y:06 P:27 SP:f9
f5e9  a5 47      LDA $47     A:11 X:02 Y:06 P:27 SP:fb
f5eb  c9 9b      CMP #$9b    A:9b X:02 Y:06 P:a5 SP:fb
f5ed  f0 02      BEQ $f5f1   A:9b X:02 Y:06 P:27 SP:fb
f5f1  c8         INY         A:9b X:02 Y:06 P:27 SP:fb
f5f2  a9 a5      LDA #$a5    A:9b X:02 Y:07 P:25 SP:fb
f5f4  8d 47 06   STA $0647   A:a5 X:02 Y:07 P:a5 SP:fb
f5f7  20 e9 fa   JSR $fae9   A:a5 X:02 Y:07 P:a5 SP:fb
fae9  24 01      BIT $01     A:a5 X:02 Y:07 P:a5 SP:f9
faeb  18         CLC         A:a5 X:02 Y:07 P:e5 SP:f9
faec  a9 b2      LDA #$b2    A:a5 X:02 Y:07 P:e4 SP:f9
faee  60         RTS         A:b2 X:02 Y:07 P:e4 SP:f9
f5fa  6f 47 06   RRA $0647   A:b2 X:02 Y:07 P:e4 SP:fb
f5fd  ea         NOP         A:05 X:02 Y:07 P:25 SP:fb
f5fe  ea         NOP         A:05 X:02 Y:07 P:25 SP:fb
f5ff  ea         NOP         A:05 X:02 Y:07 P:25 SP:fb
f600  ea         NOP         A:05 X:02 Y:07 P:25 SP:fb
f601  20 ef fa   JSR $faef   A:05 X:02 Y:07 P:25 SP:fb
faef  70 2a      BVS $fb1b   A:05 X:02 Y:07 P:25 SP:f9
faf1  90 28      BCC $fb1b   A:05 X:02 Y:07 P:25 SP:f9
faf3  30 26      BMI $fb1b   A:05 X:02 Y:07 P:25 SP:f9
faf5  c9 05      CMP #$05    A:05 X:02 Y:07 P:25 SP:f9
faf7  d0 22      BNE $fb1b   A:05 X:02 Y:07 P:27 SP:f9
faf9  60         RTS         A:05 X:02 Y:07 P:27 SP:f9
f604  ad 47 06   LDA $0647   A:05 X:02 Y:07 P:27 SP:fb
f607  c9 52      CMP #$52    A:52 X:02 Y:07 P:25 SP:fb
f609  f0 02      BEQ $f60d   A:52 X:02 Y:07 P:27 SP:fb
f60d  c8         INY         A:52 X:02 Y:07 P:27 SP:fb
f60e  a9 29      LDA #$29    A:52 X:02 Y:08 P:25 SP:fb
f610  8d 47 06   STA $0647   A:29 X:02 Y:08 P:25 SP:fb
f613  20 fa fa   JSR $fafa   A:29 X:02 Y:08 P:25 SP:fb
fafa  b8         CLV         A:29 X:02 Y:08 P:25 SP:f9
fafb  18         CLC         A:29 X:02 Y:08 P:25 SP:f9
fafc  a9 42      LDA #$42    A:29 X:02 Y:08 P:24 SP:f9
fafe  60         RTS         A:42 X:02 Y:08 P:24 SP:f9
f616  6f 47 06   RRA $0647   A:42 X:02 Y:08 P:24 SP:fb
f619  ea         NOP         A:57 X:02 Y:08 P:24 SP:fb
f61a  ea         NOP         A:57 X:02 Y:08 P:24 SP:fb
f61b  ea         NOP         A:57 X:02 Y:08 P:24 SP:fb
f61c  ea         NOP         A:57 X:02 Y:08 P:24 SP:fb
f61d  20 ff fa   JSR $faff   A:57 X:02 Y:08 P:24 SP:fb
faff  70 1a      BVS $fb1b   A:57 X:02 Y:08 P:24 SP:f9
fb01  30 18      BMI $fb1b   A:57 X:02 Y:08 P:24 SP:f9
fb03  b0 16      BCS $fb1b   A:57 X:02 Y:08 P:24 SP:f9
fb05  c9 57      CMP #$57    A:57 X:02 Y:08 P:24 SP:f9
fb07  d0 12      BNE $fb1b   A:57 X:02 Y:08 P:27 SP:f9
fb09  60         RTS         A:57 X:02 Y:08 P:27 SP:f9
f620  ad 47 06   LDA $0647   A:57 X:02 Y:08 P:27 SP:fb
f623  c9 14      CMP #$14    A:14 X:02 Y:08 P:25 SP:fb
f625  f0 02      BEQ $f629   A:14 X:02 Y:08 P:27 SP:fb
f629  c8         INY         A:14 X:02 Y:08 P:27 SP:fb
f62a  a9 37      LDA #$37    A:14 X:02 Y:09 P:25 SP:fb
f62c  8d 47 06   STA $0647   A:37 X:02 Y:09 P:25 SP:fb
f62f  20 0a fb   JSR $fb0a   A:37 X:02 Y:09 P:25 SP:fb
fb0a  24 01      BIT $01     A:37 X:02 Y:09 P:25 SP:f9
fb0c  38         SEC         A:37 X:02 Y:09 P:e5 SP:f9
fb0d  a9 75      LDA #$75    A:37 X:02 Y:09 P:e5 SP:f9
fb0f  60         RTS         A:75 X:02 Y:09 P:65 SP:f9
f632  6f 47 06   RRA $0647   A:75 X:02 Y:09 P:65 SP:fb
f635  ea         NOP         A:11 X:02 Y:09 P:25 SP:fb
f636  ea         NOP         A:11 X:02 Y:09 P:25 SP:fb
f637  ea         NOP         A:11 X:02 Y:09 P:25 SP:fb
f638  ea         NOP         A:11 X:02 Y:09 P:25 SP:fb
f639  20 10 fb   JSR $fb10   A:11 X:02 Y:09 P:25 SP:fb
fb10  70 09      BVS $fb1b   A:11 X:02 Y:09 P:25 SP:f9
fb12  30 07      BMI $fb1b   A:11 X:02 Y:09 P:25 SP:f9
fb14  90 05      BCC $fb1b   A:11 X:02 Y:09 P:25 SP:f9
fb16  c9 11      CMP #$11    A:11 X:02 Y:09 P:25 SP:f9
fb18  d0 01      BNE $fb1b   A:11 X:02 Y:09 P:27 SP:f9
fb1a  60         RTS         A:11 X:02 Y:09 P:27 SP:f9
f63c  ad 47 06   LDA $0647   A:11 X:02 Y:09 P:27 SP:fb
f63f  c9 9b      CMP #$9b    A:9b X:02 Y:09 P:a5 SP:fb
f641  f0 02      BEQ $f645   A:9b X:02 Y:09 P:27 SP:fb
f645  a9 a5      LDA #$a5    A:9b X:02 Y:09 P:27 SP:fb
f647  8d 47 06   STA $0647   A:a5 X:02 Y:09 P:a5 SP:fb
f64a  a9 48      LDA #$48    A:a5 X:02 Y:09 P:a5 SP:fb
f64c  85 45      STA $45     A:48 X:02 Y:09 P:25 SP:fb
f64e  a9 05      LDA #$05    A:48 X:02 Y:09 P:25 SP:fb
f650  85 46      STA $46     A:05 X:02 Y:09 P:25 SP:fb
f652  a0 ff      LDY #$ff    A:05 X:02 Y:09 P:25 SP:fb
f654  20 e9 fa   JSR $fae9   A:05 X:02 Y:ff P:a5 SP:fb
fae9  24 01      BIT $01     A:05 X:02 Y:ff P:a5 SP:f9
faeb  18         CLC         A:05 X:02 Y:ff P:e5 SP:f9
faec  a9 b2      LDA #$b2    A:05 X:02 Y:ff P:e4 SP:f9
faee  60         RTS         A:b2 X:02 Y:ff P:e4 SP:f9
f657  73 45      RRA ($45),Y A:b2 X:02 Y:ff P:e4 SP:fb
f659  ea         NOP         A:05 X:02 Y:ff P:25 SP:fb
f65a  ea         NOP         A:05 X:02 Y:ff P:25 SP:fb
f65b  08         PHP         A:05 X:02 Y:ff P:25 SP:fb
f65c  48         PHA         A:05 X:02 Y:ff P:25 SP:fa
f65d  a0 0a      LDY #$0a    A:05 X:02 Y:ff P:25 SP:f9
f65f  68         PLA         A:05 X:02 Y:0a P:25 SP:f9
f660  28         PLP         A:05 X:02 Y:0a P:25 SP:fa
f661  20 ef fa   JSR $faef   A:05 X:02 Y:0a P:25 SP:fb
faef  70 2a      BVS $fb1b   A:05 X:02 Y:0a P:25 SP:f9
faf1  90 28      BCC $fb1b   A:05 X:02 Y:0a P:25 SP:f9
faf3  30 26      BMI $fb1b   A:05 X:02 Y:0a P:25 SP:f9
faf5  c9 05      CMP #$05    A:05 X:02 Y:0a P:25 SP:f9
faf7  d0 22      BNE $fb1b   A:05 X:02 Y:0a P:27 SP:f9
faf9  60         RTS         A:05 X:02 Y:0a P:27 SP:f9
f664  ad 47 06   LDA $0647   A:05 X:02 Y:0a P:27 SP:fb
f667  c9 52      CMP #$52    A:52 X:02 Y:0a P:25 SP:fb
f669  f0 02      BEQ $f66d   A:52 X:02 Y:0a P:27 SP:fb
f66d  a0 ff      LDY #$ff    A:52 X:02 Y:0a P:27 SP:fb
f66f  a9 29      LDA #$29    A:52 X:02 Y:ff P:a5 SP:fb
f671  8d 47 06   STA $0647   A:29 X:02 Y:ff P:25 SP:fb
f674  20 fa fa   JSR $fafa   A:29 X:02 Y:ff P:25 SP:fb
fafa  b8         CLV         A:29 X:02 Y:ff P:25 SP:f9
fafb  18         CLC         A:29 X:02 Y:ff P:25 SP:f9
fafc  a9 42      LDA #$42    A:29 X:02 Y:ff P:24 SP:f9
fafe  60         RTS         A:42 X:02 Y:ff P:24 SP:f9
f677  73 45      RRA ($45),Y A:42 X:02 Y:ff P:24 SP:fb
f679  ea         NOP         A:57 X:02 Y:ff P:24 SP:fb
f67a  ea         NOP         A:57 X:02 Y:ff P:24 SP:fb
f67b  08         PHP         A:57 X:02 Y:ff P:24 SP:fb
f67c  48         PHA         A:57 X:02 Y:ff P:24 SP:fa
f67d  a0 0b      LDY #$0b    A:57 X:02 Y:ff P:24 SP:f9
f67f  68         PLA         A:57 X:02 Y:0b P:24 SP:f9
f680  28         PLP         A:57 X:02 Y:0b P:24 SP:fa
f681  20 ff fa   JSR $faff   A:57 X:02 Y:0b P:24 SP:fb
faff  70 1a      BVS $fb1b   A:57 X:02 Y:0b P:24 SP:f9
fb01  30 18      BMI $fb1b   A:57 X:02 Y:0b P:24 SP:f9
fb03  b0 16      BCS $fb1b   A:57 X:02 Y:0b P:24 SP:f9
fb05  c9 57      CMP #$57    A:57 X:02 Y:0b P:24 SP:f9
fb07  d0 12      BNE $fb1b   A:57 X:02 Y:0b P:27 SP:f9
fb09  60         RTS         A:57 X:02 Y:0b P:27 SP:f9
f684  ad 47 06   LDA $0647   A:57 X:02 Y:0b P:27 SP:fb
f687  c9 14      CMP #$14    A:14 X:02 Y:0b P:25 SP:fb
f689  f0 02      BEQ $f68d   A:14 X:02 Y:0b P:27 SP:fb
f68d  a0 ff      LDY #$ff    A:14 X:02 Y:0b P:27 SP:fb
f68f  a9 37      LDA #$37    A:14 X:02 Y:ff P:a5 SP:fb
f691  8d 47 06   STA $0647   A:37 X:02 Y:ff P:25 SP:fb
f694  20 0a fb   JSR $fb0a   A:37 X:02 Y:ff P:25 SP:fb
fb0a  24 01      BIT $01     A:37 X:02 Y:ff P:25 SP:f9
fb0c  38         SEC         A:37 X:02 Y:ff P:e5 SP:f9
fb0d  a9 75      LDA #$75    A:37 X:02 Y:ff P:e5 SP:f9
fb0f  60         RTS         A:75 X:02 Y:ff P:65 SP:f9
f697  73 45      RRA ($45),Y A:75 X:02 Y:ff P:65 SP:fb
f699  ea         NOP         A:11 X:02 Y:ff P:25 SP:fb
f69a  ea         NOP         A:11 X:02 Y:ff P:25 SP:fb
f69b  08         PHP         A:11 X:02 Y:ff P:25 SP:fb
f69c  48         PHA         A:11 X:02 Y:ff P:25 SP:fa
f69d  a0 0c      LDY #$0c    A:11 X:02 Y:ff P:25 SP:f9
f69f  68         PLA         A:11 X:02 Y:0c P:25 SP:f9
f6a0  28         PLP         A:11 X:02 Y:0c P:25 SP:fa
f6a1  20 10 fb   JSR $fb10   A:11 X:02 Y:0c P:25 SP:fb
fb10  70 09      BVS $fb1b   A:11 X:02 Y:0c P:25 SP:f9
fb12  30 07      BMI $fb1b   A:11 X:02 Y:0c P:25 SP:f9
fb14  90 05      BCC $fb1b   A:11 X:02 Y:0c P:25 SP:f9
fb16  c9 11      CMP #$11    A:11 X:02 Y:0c P:25 SP:f9
fb18  d0 01      BNE $fb1b   A:11 X:02 Y:0c P:27 SP:f9
fb1a  60         RTS         A:11 X:02 Y:0c P:27 SP:f9
f6a4  ad 47 06   LDA $0647   A:11 X:02 Y:0c P:27 SP:fb
f6a7  c9 9b      CMP #$9b    A:9b X:02 Y:0c P:a5 SP:fb
f6a9  f0 02      BEQ $f6ad   A:9b X:02 Y:0c P:27 SP:fb
f6ad  a0 0d      LDY #$0d    A:9b X:02 Y:0c P:27 SP:fb
f6af  a2 ff      LDX #$ff    A:9b X:02 Y:0d P:25 SP:fb
f6b1  a9 a5      LDA #$a5    A:9b X:ff Y:0d P:a5 SP:fb
f6b3  85 47      STA $47     A:a5 X:ff Y:0d P:a5 SP:fb
f6b5  20 e9 fa   JSR $fae9   A:a5 X:ff Y:0d P:a5 SP:fb
fae9  24 01      BIT $01     A:a5 X:ff Y:0d P:a5 SP:f9
faeb  18         CLC         A:a5 X:ff Y:0d P:e5 SP:f9
faec  a9 b2      LDA #$b2    A:a5 X:ff Y:0d P:e4 SP:f9
faee  60         RTS         A:b2 X:ff Y:0d P:e4 SP:f9
f6b8  77 48      RRA $48,X   A:b2 X:ff Y:0d P:e4 SP:fb
f6ba  ea         NOP         A:05 X:ff Y:0d P:25 SP:fb
f6bb  ea         NOP         A:05 X:ff Y:0d P:25 SP:fb
f6bc  ea         NOP         A:05 X:ff Y:0d P:25 SP:fb
f6bd  ea         NOP         A:05 X:ff Y:0d P:25 SP:fb
f6be  20 ef fa   JSR $faef   A:05 X:ff Y:0d P:25 SP:fb
faef  70 2a      BVS $fb1b   A:05 X:ff Y:0d P:25 SP:f9
faf1  90 28      BCC $fb1b   A:05 X:ff Y:0d P:25 SP:f9
faf3  30 26      BMI $fb1b   A:05 X:ff Y:0d P:25 SP:f9
faf5  c9 05      CMP #$05    A:05 X:ff Y:0d P:25 SP:f9
faf7  d0 22      BNE $fb1b   A:05 X:ff Y:0d P:27 SP:f9
faf9  60         RTS         A:05 X:ff Y:0d P:27 SP:f9
f6c1  a5 47      LDA $47     A:05 X:ff Y:0d P:27 SP:fb
f6c3  c9 52      CMP #$52    A:52 X:ff Y:0d P:25 SP:fb
f6c5  f0 02      BEQ $f6c9   A:52 X:ff Y:0d P:27 SP:fb
f6c9  c8         INY         A:52 X:ff Y:0d P:27 SP:fb
f6ca  a9 29      LDA #$29    A:52 X:ff Y:0e P:25 SP:fb
f6cc  85 47      STA $47     A:29 X:ff Y:0e P:25 SP:fb
f6ce  20 fa fa   JSR $fafa   A:29 X:ff Y:0e P:25 SP:fb
fafa  b8         CLV         A:29 X:ff Y:0e P:25 SP:f9
fafb  18         CLC         A:29 X:ff Y:0e P:25 SP:f9
fafc  a9 42      LDA #$42    A:29 X:ff Y:0e P:24 SP:f9
fafe  60         RTS         A:42 X:ff Y:0e P:24 SP:f9
f6d1  77 48      RRA $48,X   A:42 X:ff Y:0e P:24 SP:fb
f6d3  ea         NOP         A:57 X:ff Y:0e P:24 SP:fb
f6d4  ea         NOP         A:57 X:ff Y:0e P:24 SP:fb
f6d5  ea         NOP         A:57 X:ff Y:0e P:24 SP:fb
f6d6  ea         NOP         A:57 X:ff Y:0e P:24 SP:fb
f6d7  20 ff fa   JSR $faff   A:57 X:ff Y:0e P:24 SP:fb
faff  70 1a      BVS $fb1b   A:57 X:ff Y:0e P:24 SP:f9
fb01  30 18      BMI $fb1b   A:57 X:ff Y:0e P:24 SP:f9
fb03  b0 16      BCS $fb1b   A:57 X:ff Y:0e P:24 SP:f9
fb05  c9 57      CMP #$57    A:57 X:ff Y:0e P:24 SP:f9
fb07  d0 12      BNE $fb1b   A:57 X:ff Y:0e P:27 SP:f9
fb09  60         RTS         A:57 X:ff Y:0e P:27 SP:f9
f6da  a5 47      LDA $47     A:57 X:ff Y:0e P:27 SP:fb
f6dc  c9 14      CMP #$14    A:14 X:ff Y:0e P:25 SP:fb
f6de  f0 02      BEQ $f6e2   A:14 X:ff Y:0e P:27 SP:fb
f6e2  c8         INY         A:14 X:ff Y:0e P:27 SP:fb
f6e3  a9 37      LDA #$37    A:14 X:ff Y:0f P:25 SP:fb
f6e5  85 47      STA $47     A:37 X:ff Y:0f P:25 SP:fb
f6e7  20 0a fb   JSR $fb0a   A:37 X:ff Y:0f P:25 SP:fb
fb0a  24 01      BIT $01     A:37 X:ff Y:0f P:25 SP:f9
fb0c  38         SEC         A:37 X:ff Y:0f P:e5 SP:f9
fb0d  a9 75      LDA #$75    A:37 X:ff Y:0f P:e5 SP:f9
fb0f  60         RTS         A:75 X:ff Y:0f P:65 SP:f9
f6ea  77 48      RRA $48,X   A:75 X:ff Y:0f P:65 SP:fb
f6ec  ea         NOP         A:11 X:ff Y:0f P:25 SP:fb
f6ed  ea         NOP         A:11 X:ff Y:0f P:25 SP:fb
f6ee  ea         NOP         A:11 X:ff Y:0f P:25 SP:fb
f6ef  ea         NOP         A:11 X:ff Y:0f P:25 SP:fb
f6f0  20 10 fb   JSR $fb10   A:11 X:ff Y:0f P:25 SP:fb
fb10  70 09      BVS $fb1b   A:11 X:ff Y:0f P:25 SP:f9
fb12  30 07      BMI $fb1b   A:11 X:ff Y:0f P:25 SP:f9
fb14  90 05      BCC $fb1b   A:11 X:ff Y:0f P:25 SP:f9
fb16  c9 11      CMP #$11    A:11 X:ff Y:0f P:25 SP:f9
fb18  d0 01      BNE $fb1b   A:11 X:ff Y:0f P:27 SP:f9
fb1a  60         RTS         A:11 X:ff Y:0f P:27 SP:f9
f6f3  a5 47      LDA $47     A:11 X:ff Y:0f P:27 SP:fb
f6f5  c9 9b      CMP #$9b    A:9b X:ff Y:0f P:a5 SP:fb
f6f7  f0 02      BEQ $f6fb   A:9b X:ff Y:0f P:27 SP:fb
f6fb  a9 a5      LDA #$a5    A:9b X:ff Y:0f P:27 SP:fb
f6fd  8d 47 06   STA $0647   A:a5 X:ff Y:0f P:a5 SP:fb
f700  a0 ff      LDY #$ff    A:a5 X:ff Y:0f P:a5 SP:fb
f702  20 e9 fa   JSR $fae9   A:a5 X:ff Y:ff P:a5 SP:fb
fae9  24 01      BIT $01     A:a5 X:ff Y:ff P:a5 SP:f9
faeb  18         CLC         A:a5 X:ff Y:ff P:e5 SP:f9
faec  a9 b2      LDA #$b2    A:a5 X:ff Y:ff P:e4 SP:f9
faee  60         RTS         A:b2 X:ff Y:ff P:e4 SP:f9
f705  7b 48 05   RRA $0548,Y A:b2 X:ff Y:ff P:e4 SP:fb
f708  ea         NOP         A:05 X:ff Y:ff P:25 SP:fb
f709  ea         NOP         A:05 X:ff Y:ff P:25 SP:fb
f70a  08         PHP         A:05 X:ff Y:ff P:25 SP:fb
f70b  48         PHA         A:05 X:ff Y:ff P:25 SP:fa
f70c  a0 10      LDY #$10    A:05 X:ff Y:ff P:25 SP:f9
f70e  68         PLA         A:05 X:ff Y:10 P:25 SP:f9
f70f  28         PLP         A:05 X:ff Y:10 P:25 SP:fa
f710  20 ef fa   JSR $faef   A:05 X:ff Y:10 P:25 SP:fb
faef  70 2a      BVS $fb1b   A:05 X:ff Y:10 P:25 SP:f9
faf1  90 28      BCC $fb1b   A:05 X:ff Y:10 P:25 SP:f9
faf3  30 26      BMI $fb1b   A:05 X:ff Y:10 P:25 SP:f9
faf5  c9 05      CMP #$05    A:05 X:ff Y:10 P:25 SP:f9
faf7  d0 22      BNE $fb1b   A:05 X:ff Y:10 P:27 SP:f9
faf9  60         RTS         A:05 X:ff Y:10 P:27 SP:f9
f713  ad 47 06   LDA $0647   A:05 X:ff Y:10 P:27 SP:fb
f716  c9 52      CMP #$52    A:52 X:ff Y:10 P:25 SP:fb
f718  f0 02      BEQ $f71c   A:52 X:ff Y:10 P:27 SP:fb
f71c  a0 ff      LDY #$ff    A:52 X:ff Y:10 P:27 SP:fb
f71e  a9 29      LDA #$29    A:52 X:ff Y:ff P:a5 SP:fb
f720  8d 47 06   STA $0647   A:29 X:ff Y:ff P:25 SP:fb
f723  20 fa fa   JSR $fafa   A:29 X:ff Y:ff P:25 SP:fb
fafa  b8         CLV         A:29 X:ff Y:ff P:25 SP:f9
fafb  18         CLC         A:29 X:ff Y:ff P:25 SP:f9
fafc  a9 42      LDA #$42    A:29 X:ff Y:ff P:24 SP:f9
fafe  60         RTS         A:42 X:ff Y:ff P:24 SP:f9
f726  7b 48 05   RRA $0548,Y A:42 X:ff Y:ff P:24 SP:fb
f729  ea         NOP         A:57 X:ff Y:ff P:24 SP:fb
f72a  ea         NOP         A:57 X:ff Y:ff P:24 SP:fb
f72b  08         PHP         A:57 X:ff Y:ff P:24 SP:fb
f72c  48         PHA         A:57 X:ff Y:ff P:24 SP:fa
f72d  a0 11      LDY #$11    A:57 X:ff Y:ff P:24 SP:f9
f72f  68         PLA         A:57 X:ff Y:11 P:24 SP:f9
f730  28         PLP         A:57 X:ff Y:11 P:24 SP:fa
f731  20 ff fa   JSR $faff   A:57 X:ff Y:11 P:24 SP:fb
faff  70 1a      BVS $fb1b   A:57 X:ff Y:11 P:24 SP:f9
fb01  30 18      BMI $fb1b   A:57 X:ff Y:11 P:24 SP:f9
fb03  b0 16      BCS $fb1b   A:57 X:ff Y:11 P:24 SP:f9
fb05  c9 57      CMP #$57    A:57 X:ff Y:11 P:24 SP:f9
fb07  d0 12      BNE $fb1b   A:57 X:ff Y:11 P:27 SP:f9
fb09  60         RTS         A:57 X:ff Y:11 P:27 SP:f9
f734  ad 47 06   LDA $0647   A:57 X:ff Y:11 P:27 SP:fb
f737  c9 14      CMP #$14    A:14 X:ff Y:11 P:25 SP:fb
f739  f0 02      BEQ $f73d   A:14 X:ff Y:11 P:27 SP:fb
f73d  a0 ff      LDY #$ff    A:14 X:ff Y:11 P:27 SP:fb
f73f  a9 37      LDA #$37    A:14 X:ff Y:ff P:a5 SP:fb
f741  8d 47 06   STA $0647   A:37 X:ff Y:ff P:25 SP:fb
f744  20 0a fb   JSR $fb0a   A:37 X:ff Y:ff P:25 SP:fb
fb0a  24 01      BIT $01     A:37 X:ff Y:ff P:25 SP:f9
fb0c  38         SEC         A:37 X:ff Y:ff P:e5 SP:f9
fb0d  a9 75      LDA #$75    A:37 X:ff Y:ff P:e5 SP:f9
fb0f  60         RTS         A:75 X:ff Y:ff P:65 SP:f9
f747  7b 48 05   RRA $0548,Y A:75 X:ff Y:ff P:65 SP:fb
f74a  ea         NOP         A:11 X:ff Y:ff P:25 SP:fb
f74b  ea         NOP         A:11 X:ff Y:ff P:25 SP:fb
f74c  08         PHP         A:11 X:ff Y:ff P:25 SP:fb
f74d  48         PHA         A:11 X:ff Y:ff P:25 SP:fa
f74e  a0 12      LDY #$12    A:11 X:ff Y:ff P:25 SP:f9
f750  68         PLA         A:11 X:ff Y:12 P:25 SP:f9
f751  28         PLP         A:11 X:ff Y:12 P:25 SP:fa
f752  20 10 fb   JSR $fb10   A:11 X:ff Y:12 P:25 SP:fb
fb10  70 09      BVS $fb1b   A:11 X:ff Y:12 P:25 SP:f9
fb12  30 07      BMI $fb1b   A:11 X:ff Y:12 P:25 SP:f9
fb14  90 05      BCC $fb1b   A:11 X:ff Y:12 P:25 SP:f9
fb16  c9 11      CMP #$11    A:11 X:ff Y:12 P:25 SP:f9
fb18  d0 01      BNE $fb1b   A:11 X:ff Y:12 P:27 SP:f9
fb1a  60         RTS         A:11 X:ff Y:12 P:27 SP:f9
f755  ad 47 06   LDA $0647   A:11 X:ff Y:12 P:27 SP:fb
f758  c9 9b      CMP #$9b    A:9b X:ff Y:12 P:a5 SP:fb
f75a  f0 02      BEQ $f75e   A:9b X:ff Y:12 P:27 SP:fb
f75e  a0 13      LDY #$13    A:9b X:ff Y:12 P:27 SP:fb
f760  a2 ff      LDX #$ff    A:9b X:ff Y:13 P:25 SP:fb
f762  a9 a5      LDA #$a5    A:9b X:ff Y:13 P:a5 SP:fb
f764  8d 47 06   STA $0647   A:a5 X:ff Y:13 P:a5 SP:fb
f767  20 e9 fa   JSR $fae9   A:a5 X:ff Y:13 P:a5 SP:fb
fae9  24 01      BIT $01     A:a5 X:ff Y:13 P:a5 SP:f9
faeb  18         CLC         A:a5 X:ff Y:13 P:e5 SP:f9
faec  a9 b2      LDA #$b2    A:a5 X:ff Y:13 P:e4 SP:f9
faee  60         RTS         A:b2 X:ff Y:13 P:e4 SP:f9
f76a  7f 48 05   RRA $0548,X A:b2 X:ff Y:13 P:e4 SP:fb
f76d  ea         NOP         A:05 X:ff Y:13 P:25 SP:fb
f76e  ea         NOP         A:05 X:ff Y:13 P:25 SP:fb
f76f  ea         NOP         A:05 X:ff Y:13 P:25 SP:fb
f770  ea         NOP         A:05 X:ff Y:13 P:25 SP:fb
f771  20 ef fa   JSR $faef   A:05 X:ff Y:13 P:25 SP:fb
faef  70 2a      BVS $fb1b   A:05 X:ff Y:13 P:25 SP:f9
faf1  90 28      BCC $fb1b   A:05 X:ff Y:13 P:25 SP:f9
faf3  30 26      BMI $fb1b   A:05 X:ff Y:13 P:25 SP:f9
faf5  c9 05      CMP #$05    A:05 X:ff Y:13 P:25 SP:f9
faf7  d0 22      BNE $fb1b   A:05 X:ff Y:13 P:27 SP:f9
faf9  60         RTS         A:05 X:ff Y:13 P:27 SP:f9
f774  ad 47 06   LDA $0647   A:05 X:ff Y:13 P:27 SP:fb
f777  c9 52      CMP #$52    A:52 X:ff Y:13 P:25 SP:fb
f779  f0 02      BEQ $f77d   A:52 X:ff Y:13 P:27 SP:fb
f77d  c8         INY         A:52 X:ff Y:13 P:27 SP:fb
f77e  a9 29      LDA #$29    A:52 X:ff Y:14 P:25 SP:fb
f780  8d 47 06   STA $0647   A:29 X:ff Y:14 P:25 SP:fb
f783  20 fa fa   JSR $fafa   A:29 X:ff Y:14 P:25 SP:fb
fafa  b8         CLV         A:29 X:ff Y:14 P:25 SP:f9
fafb  18         CLC         A:29 X:ff Y:14 P:25 SP:f9
fafc  a9 42      LDA #$42    A:29 X:ff Y:14 P:24 SP:f9
fafe  60         RTS         A:42 X:ff Y:14 P:24 SP:f9
f786  7f 48 05   RRA $0548,X A:42 X:ff Y:14 P:24 SP:fb
f789  ea         NOP         A:57 X:ff Y:14 P:24 SP:fb
f78a  ea         NOP         A:57 X:ff Y:14 P:24 SP:fb
f78b  ea         NOP         A:57 X:ff Y:14 P:24 SP:fb
f78c  ea         NOP         A:57 X:ff Y:14 P:24 SP:fb
f78d  20 ff fa   JSR $faff   A:57 X:ff Y:14 P:24 SP:fb
faff  70 1a      BVS $fb1b   A:57 X:ff Y:14 P:24 SP:f9
fb01  30 18      BMI $fb1b   A:57 X:ff Y:14 P:24 SP:f9
fb03  b0 16      BCS $fb1b   A:57 X:ff Y:14 P:24 SP:f9
fb05  c9 57      CMP #$57    A:57 X:ff Y:14 P:24 SP:f9
fb07  d0 12      BNE $fb1b   A:57 X:ff Y:14 P:27 SP:f9
fb09  60         RTS         A:57 X:ff Y:14 P:27 SP:f9
f790  ad 47 06   LDA $0647   A:57 X:ff Y:14 P:27 SP:fb
f793  c9 14      CMP #$14    A:14 X:ff Y:14 P:25 SP:fb
f795  f0 02      BEQ $f799   A:14 X:ff Y:14 P:27 SP:fb
f799  c8         INY         A:14 X:ff Y:14 P:27 SP:fb
f79a  a9 37      LDA #$37    A:14 X:ff Y:15 P:25 SP:fb
f79c  8d 47 06   STA $0647   A:37 X:ff Y:15 P:25 SP:fb
f79f  20 0a fb   JSR $fb0a   A:37 X:ff Y:15 P:25 SP:fb
fb0a  24 01      BIT $01     A:37 X:ff Y:15 P:25 SP:f9
fb0c  38         SEC         A:37 X:ff Y:15 P:e5 SP:f9
fb0d  a9 75      LDA #$75    A:37 X:ff Y:15 P:e5 SP:f9
fb0f  60         RTS         A:75 X:ff Y:15 P:65 SP:f9
f7a2  7f 48 05   RRA $0548,X A:75 X:ff Y:15 P:65 SP:fb
f7a5  ea         NOP         A:11 X:ff Y:15 P:25 SP:fb
f7a6  ea         NOP         A:11 X:ff Y:15 P:25 SP:fb
f7a7  ea         NOP         A:11 X:ff Y:15 P:25 SP:fb
f7a8  ea         NOP         A:11 X:ff Y:15 P:25 SP:fb
f7a9  20 10 fb   JSR $fb10   A:11 X:ff Y:15 P:25 SP:fb
fb10  70 09      BVS $fb1b   A:11 X:ff Y:15 P:25 SP:f9
fb12  30 07      BMI $fb1b   A:11 X:ff Y:15 P:25 SP:f9
fb14  90 05      BCC $fb1b   A:11 X:ff Y:15 P:25 SP:f9
fb16  c9 11      CMP #$11    A:11 X:ff Y:15 P:25 SP:f9
fb18  d0 01      BNE $fb1b   A:11 X:ff Y:15 P:27 SP:f9
fb1a  60         RTS         A:11 X:ff Y:15 P:27 SP:f9
f7ac  ad 47 06   LDA $0647   A:11 X:ff Y:15 P:27 SP:fb
f7af  c9 9b      CMP #$9b    A:9b X:ff Y:15 P:a5 SP:fb
f7b1  f0 02      BEQ $f7b5   A:9b X:ff Y:15 P:27 SP:fb
f7b5  60         RTS         A:9b X:ff Y:15 P:27 SP:fb
c655  a5 00      LDA $00     A:9b X:ff Y:15 P:27 SP:fd
c657  05 10      ORA $10     A:00 X:ff Y:15 P:27 SP:fd
c659  05 11      ORA $11     A:00 X:ff Y:15 P:27 SP:fd
c65b  f0 0e      BEQ $c66b   A:00 X:ff Y:15 P:27 SP:fd
c66b  20 89 c6   JSR $c689   A:00 X:ff Y:15 P:27 SP:fd
c689  a9 02      LDA #$02    A:00 X:ff Y:15 P:27 SP:fb
c68b  8d 15 40   STA $4015   A:02 X:ff Y:15 P:25 SP:fb
