pygame 1.9.6
Hello from the pygame community. https://www.pygame.org/contribute.html
c000  4c f5 c5   JMP $c5f5   A:00 X:00 Y:00 P:24 SP:fd CYC:7
c5f5  a2 00      LDX #$00    A:00 X:00 Y:00 P:24 SP:fd CYC:10
c5f7  86 00      STX $00     A:00 X:00 Y:00 P:26 SP:fd CYC:12
c5f9  86 10      STX $10     A:00 X:00 Y:00 P:26 SP:fd CYC:15
c5fb  86 11      STX $11     A:00 X:00 Y:00 P:26 SP:fd CYC:18
c5fd  20 2d c7   JSR $c72d   A:00 X:00 Y:00 P:26 SP:fd CYC:21
c72d  ea         NOP         A:00 X:00 Y:00 P:26 SP:fb CYC:27
c72e  38         SEC         A:00 X:00 Y:00 P:26 SP:fb CYC:29
c72f  b0 04      BCS $c735   A:00 X:00 Y:00 P:27 SP:fb CYC:31
c735  ea         NOP         A:00 X:00 Y:00 P:27 SP:fb CYC:34
c736  18         CLC         A:00 X:00 Y:00 P:27 SP:fb CYC:36
c737  b0 03      BCS $c73c   A:00 X:00 Y:00 P:26 SP:fb CYC:38
c739  4c 40 c7   JMP $c740   A:00 X:00 Y:00 P:26 SP:fb CYC:40
c740  ea         NOP         A:00 X:00 Y:00 P:26 SP:fb CYC:43
c741  38         SEC         A:00 X:00 Y:00 P:26 SP:fb CYC:45
c742  90 03      BCC $c747   A:00 X:00 Y:00 P:27 SP:fb CYC:47
c744  4c 4b c7   JMP $c74b   A:00 X:00 Y:00 P:27 SP:fb CYC:49
c74b  ea         NOP         A:00 X:00 Y:00 P:27 SP:fb CYC:52
c74c  18         CLC         A:00 X:00 Y:00 P:27 SP:fb CYC:54
c74d  90 04      BCC $c753   A:00 X:00 Y:00 P:26 SP:fb CYC:56
c753  ea         NOP         A:00 X:00 Y:00 P:26 SP:fb CYC:59
c754  a9 00      LDA #$00    A:00 X:00 Y:00 P:26 SP:fb CYC:61
c756  f0 04      BEQ $c75c   A:00 X:00 Y:00 P:26 SP:fb CYC:63
c75c  ea         NOP         A:00 X:00 Y:00 P:26 SP:fb CYC:66
c75d  a9 40      LDA #$40    A:00 X:00 Y:00 P:26 SP:fb CYC:68
c75f  f0 03      BEQ $c764   A:40 X:00 Y:00 P:24 SP:fb CYC:70
c761  4c 68 c7   JMP $c768   A:40 X:00 Y:00 P:24 SP:fb CYC:72
c768  ea         NOP         A:40 X:00 Y:00 P:24 SP:fb CYC:75
c769  a9 40      LDA #$40    A:40 X:00 Y:00 P:24 SP:fb CYC:77
c76b  d0 04      BNE $c771   A:40 X:00 Y:00 P:24 SP:fb CYC:79
c771  ea         NOP         A:40 X:00 Y:00 P:24 SP:fb CYC:82
c772  a9 00      LDA #$00    A:40 X:00 Y:00 P:24 SP:fb CYC:84
c774  d0 03      BNE $c779   A:00 X:00 Y:00 P:26 SP:fb CYC:86
c776  4c 7d c7   JMP $c77d   A:00 X:00 Y:00 P:26 SP:fb CYC:88
c77d  ea         NOP         A:00 X:00 Y:00 P:26 SP:fb CYC:91
c77e  a9 ff      LDA #$ff    A:00 X:00 Y:00 P:26 SP:fb CYC:93
c780  85 01      STA $01     A:ff X:00 Y:00 P:a4 SP:fb CYC:95
c782  24 01      BIT $01     A:ff X:00 Y:00 P:a4 SP:fb CYC:98
c784  70 04      BVS $c78a   A:ff X:00 Y:00 P:e4 SP:fb CYC:101
c78a  ea         NOP         A:ff X:00 Y:00 P:e4 SP:fb CYC:104
c78b  24 01      BIT $01     A:ff X:00 Y:00 P:e4 SP:fb CYC:106
c78d  50 03      BVC $c792   A:ff X:00 Y:00 P:e4 SP:fb CYC:109
c78f  4c 96 c7   JMP $c796   A:ff X:00 Y:00 P:e4 SP:fb CYC:111
c796  ea         NOP         A:ff X:00 Y:00 P:e4 SP:fb CYC:114
c797  a9 00      LDA #$00    A:ff X:00 Y:00 P:e4 SP:fb CYC:116
c799  85 01      STA $01     A:00 X:00 Y:00 P:66 SP:fb CYC:118
c79b  24 01      BIT $01     A:00 X:00 Y:00 P:66 SP:fb CYC:121
c79d  50 04      BVC $c7a3   A:00 X:00 Y:00 P:26 SP:fb CYC:124
c7a3  ea         NOP         A:00 X:00 Y:00 P:26 SP:fb CYC:127
c7a4  24 01      BIT $01     A:00 X:00 Y:00 P:26 SP:fb CYC:129
c7a6  70 03      BVS $c7ab   A:00 X:00 Y:00 P:26 SP:fb CYC:132
c7a8  4c af c7   JMP $c7af   A:00 X:00 Y:00 P:26 SP:fb CYC:134
c7af  ea         NOP         A:00 X:00 Y:00 P:26 SP:fb CYC:137
c7b0  a9 00      LDA #$00    A:00 X:00 Y:00 P:26 SP:fb CYC:139
c7b2  10 04      BPL $c7b8   A:00 X:00 Y:00 P:26 SP:fb CYC:141
c7b8  ea         NOP         A:00 X:00 Y:00 P:26 SP:fb CYC:144
c7b9  a9 80      LDA #$80    A:00 X:00 Y:00 P:26 SP:fb CYC:146
c7bb  10 03      BPL $c7c0   A:80 X:00 Y:00 P:a4 SP:fb CYC:148
c7bd  4c d9 c7   JMP $c7d9   A:80 X:00 Y:00 P:a4 SP:fb CYC:150
c7d9  ea         NOP         A:80 X:00 Y:00 P:a4 SP:fb CYC:153
c7da  60         RTS         A:80 X:00 Y:00 P:a4 SP:fb CYC:155
c600  20 db c7   JSR $c7db   A:80 X:00 Y:00 P:a4 SP:fd CYC:161
c7db  ea         NOP         A:80 X:00 Y:00 P:a4 SP:fb CYC:167
c7dc  a9 ff      LDA #$ff    A:80 X:00 Y:00 P:a4 SP:fb CYC:169
c7de  85 01      STA $01     A:ff X:00 Y:00 P:a4 SP:fb CYC:171
c7e0  24 01      BIT $01     A:ff X:00 Y:00 P:a4 SP:fb CYC:174
c7e2  a9 00      LDA #$00    A:ff X:00 Y:00 P:e4 SP:fb CYC:177
c7e4  38         SEC         A:00 X:00 Y:00 P:66 SP:fb CYC:179
c7e5  78         SEI         A:00 X:00 Y:00 P:67 SP:fb CYC:181
c7e6  f8         SED         A:00 X:00 Y:00 P:67 SP:fb CYC:183
c7e7  08         PHP         A:00 X:00 Y:00 P:6f SP:fb CYC:185
c7e8  68         PLA         A:00 X:00 Y:00 P:6f SP:fa CYC:188
c7e9  29 ef      AND #$ef    A:7f X:00 Y:00 P:6d SP:fb CYC:192
c7eb  c9 6f      CMP #$6f    A:6f X:00 Y:00 P:6d SP:fb CYC:194
c7ed  f0 04      BEQ $c7f3   A:6f X:00 Y:00 P:6f SP:fb CYC:196
c7f3  ea         NOP         A:6f X:00 Y:00 P:6f SP:fb CYC:199
c7f4  a9 40      LDA #$40    A:6f X:00 Y:00 P:6f SP:fb CYC:201
c7f6  85 01      STA $01     A:40 X:00 Y:00 P:6d SP:fb CYC:203
c7f8  24 01      BIT $01     A:40 X:00 Y:00 P:6d SP:fb CYC:206
c7fa  d8         CLD         A:40 X:00 Y:00 P:6d SP:fb CYC:209
c7fb  a9 10      LDA #$10    A:40 X:00 Y:00 P:65 SP:fb CYC:211
c7fd  18         CLC         A:10 X:00 Y:00 P:65 SP:fb CYC:213
c7fe  08         PHP         A:10 X:00 Y:00 P:64 SP:fb CYC:215
c7ff  68         PLA         A:10 X:00 Y:00 P:64 SP:fa CYC:218
c800  29 ef      AND #$ef    A:74 X:00 Y:00 P:64 SP:fb CYC:222
c802  c9 64      CMP #$64    A:64 X:00 Y:00 P:64 SP:fb CYC:224
c804  f0 04      BEQ $c80a   A:64 X:00 Y:00 P:67 SP:fb CYC:226
c80a  ea         NOP         A:64 X:00 Y:00 P:67 SP:fb CYC:229
c80b  a9 80      LDA #$80    A:64 X:00 Y:00 P:67 SP:fb CYC:231
c80d  85 01      STA $01     A:80 X:00 Y:00 P:e5 SP:fb CYC:233
c80f  24 01      BIT $01     A:80 X:00 Y:00 P:e5 SP:fb CYC:236
c811  f8         SED         A:80 X:00 Y:00 P:a5 SP:fb CYC:239
c812  a9 00      LDA #$00    A:80 X:00 Y:00 P:ad SP:fb CYC:241
c814  38         SEC         A:00 X:00 Y:00 P:2f SP:fb CYC:243
c815  08         PHP         A:00 X:00 Y:00 P:2f SP:fb CYC:245
c816  68         PLA         A:00 X:00 Y:00 P:2f SP:fa CYC:248
c817  29 ef      AND #$ef    A:3f X:00 Y:00 P:2d SP:fb CYC:252
c819  c9 2f      CMP #$2f    A:2f X:00 Y:00 P:2d SP:fb CYC:254
c81b  f0 04      BEQ $c821   A:2f X:00 Y:00 P:2f SP:fb CYC:256
c821  ea         NOP         A:2f X:00 Y:00 P:2f SP:fb CYC:259
c822  a9 ff      LDA #$ff    A:2f X:00 Y:00 P:2f SP:fb CYC:261
c824  48         PHA         A:ff X:00 Y:00 P:ad SP:fb CYC:263
c825  28         PLP         A:ff X:00 Y:00 P:ad SP:fa CYC:266
c826  d0 09      BNE $c831   A:ff X:00 Y:00 P:ef SP:fb CYC:270
c828  10 07      BPL $c831   A:ff X:00 Y:00 P:ef SP:fb CYC:272
c82a  50 05      BVC $c831   A:ff X:00 Y:00 P:ef SP:fb CYC:274
c82c  90 03      BCC $c831   A:ff X:00 Y:00 P:ef SP:fb CYC:276
c82e  4c 35 c8   JMP $c835   A:ff X:00 Y:00 P:ef SP:fb CYC:278
c835  ea         NOP         A:ff X:00 Y:00 P:ef SP:fb CYC:281
c836  a9 04      LDA #$04    A:ff X:00 Y:00 P:ef SP:fb CYC:283
c838  48         PHA         A:04 X:00 Y:00 P:6d SP:fb CYC:285
c839  28         PLP         A:04 X:00 Y:00 P:6d SP:fa CYC:288
c83a  f0 09      BEQ $c845   A:04 X:00 Y:00 P:24 SP:fb CYC:292
c83c  30 07      BMI $c845   A:04 X:00 Y:00 P:24 SP:fb CYC:294
c83e  70 05      BVS $c845   A:04 X:00 Y:00 P:24 SP:fb CYC:296
c840  b0 03      BCS $c845   A:04 X:00 Y:00 P:24 SP:fb CYC:298
c842  4c 49 c8   JMP $c849   A:04 X:00 Y:00 P:24 SP:fb CYC:300
c849  ea         NOP         A:04 X:00 Y:00 P:24 SP:fb CYC:303
c84a  f8         SED         A:04 X:00 Y:00 P:24 SP:fb CYC:305
c84b  a9 ff      LDA #$ff    A:04 X:00 Y:00 P:2c SP:fb CYC:307
c84d  85 01      STA $01     A:ff X:00 Y:00 P:ac SP:fb CYC:309
c84f  24 01      BIT $01     A:ff X:00 Y:00 P:ac SP:fb CYC:312
c851  18         CLC         A:ff X:00 Y:00 P:ec SP:fb CYC:315
c852  a9 00      LDA #$00    A:ff X:00 Y:00 P:ec SP:fb CYC:317
c854  48         PHA         A:00 X:00 Y:00 P:6e SP:fb CYC:319
c855  a9 ff      LDA #$ff    A:00 X:00 Y:00 P:6e SP:fa CYC:322
c857  68         PLA         A:ff X:00 Y:00 P:ec SP:fa CYC:324
c858  d0 09      BNE $c863   A:00 X:00 Y:00 P:6e SP:fb CYC:328
c85a  30 07      BMI $c863   A:00 X:00 Y:00 P:6e SP:fb CYC:330
c85c  50 05      BVC $c863   A:00 X:00 Y:00 P:6e SP:fb CYC:332
c85e  b0 03      BCS $c863   A:00 X:00 Y:00 P:6e SP:fb CYC:334
c860  4c 67 c8   JMP $c867   A:00 X:00 Y:00 P:6e SP:fb CYC:336
c867  ea         NOP         A:00 X:00 Y:00 P:6e SP:fb CYC:339
c868  a9 00      LDA #$00    A:00 X:00 Y:00 P:6e SP:fb CYC:341
c86a  85 01      STA $01     A:00 X:00 Y:00 P:6e SP:fb CYC:343
c86c  24 01      BIT $01     A:00 X:00 Y:00 P:6e SP:fb CYC:346
c86e  38         SEC         A:00 X:00 Y:00 P:2e SP:fb CYC:349
c86f  a9 ff      LDA #$ff    A:00 X:00 Y:00 P:2f SP:fb CYC:351
c871  48         PHA         A:ff X:00 Y:00 P:ad SP:fb CYC:353
c872  a9 00      LDA #$00    A:ff X:00 Y:00 P:ad SP:fa CYC:356
c874  68         PLA         A:00 X:00 Y:00 P:2f SP:fa CYC:358
c875  f0 09      BEQ $c880   A:ff X:00 Y:00 P:ad SP:fb CYC:362
c877  10 07      BPL $c880   A:ff X:00 Y:00 P:ad SP:fb CYC:364
c879  70 05      BVS $c880   A:ff X:00 Y:00 P:ad SP:fb CYC:366
c87b  90 03      BCC $c880   A:ff X:00 Y:00 P:ad SP:fb CYC:368
c87d  4c 84 c8   JMP $c884   A:ff X:00 Y:00 P:ad SP:fb CYC:370
c884  60         RTS         A:ff X:00 Y:00 P:ad SP:fb CYC:373
c603  20 85 c8   JSR $c885   A:ff X:00 Y:00 P:ad SP:fd CYC:379
c885  ea         NOP         A:ff X:00 Y:00 P:ad SP:fb CYC:385
c886  18         CLC         A:ff X:00 Y:00 P:ad SP:fb CYC:387
c887  a9 ff      LDA #$ff    A:ff X:00 Y:00 P:ac SP:fb CYC:389
c889  85 01      STA $01     A:ff X:00 Y:00 P:ac SP:fb CYC:391
c88b  24 01      BIT $01     A:ff X:00 Y:00 P:ac SP:fb CYC:394
c88d  a9 55      LDA #$55    A:ff X:00 Y:00 P:ec SP:fb CYC:397
c88f  09 aa      ORA #$aa    A:55 X:00 Y:00 P:6c SP:fb CYC:399
c891  b0 0b      BCS $c89e   A:ff X:00 Y:00 P:ec SP:fb CYC:401
c893  10 09      BPL $c89e   A:ff X:00 Y:00 P:ec SP:fb CYC:403
c895  c9 ff      CMP #$ff    A:ff X:00 Y:00 P:ec SP:fb CYC:405
c897  d0 05      BNE $c89e   A:ff X:00 Y:00 P:6f SP:fb CYC:407
c899  50 03      BVC $c89e   A:ff X:00 Y:00 P:6f SP:fb CYC:409
c89b  4c a2 c8   JMP $c8a2   A:ff X:00 Y:00 P:6f SP:fb CYC:411
c8a2  ea         NOP         A:ff X:00 Y:00 P:6f SP:fb CYC:414
c8a3  38         SEC         A:ff X:00 Y:00 P:6f SP:fb CYC:416
c8a4  b8         CLV         A:ff X:00 Y:00 P:6f SP:fb CYC:418
c8a5  a9 00      LDA #$00    A:ff X:00 Y:00 P:2f SP:fb CYC:420
c8a7  09 00      ORA #$00    A:00 X:00 Y:00 P:2f SP:fb CYC:422
c8a9  d0 09      BNE $c8b4   A:00 X:00 Y:00 P:2f SP:fb CYC:424
c8ab  70 07      BVS $c8b4   A:00 X:00 Y:00 P:2f SP:fb CYC:426
c8ad  90 05      BCC $c8b4   A:00 X:00 Y:00 P:2f SP:fb CYC:428
c8af  30 03      BMI $c8b4   A:00 X:00 Y:00 P:2f SP:fb CYC:430
c8b1  4c b8 c8   JMP $c8b8   A:00 X:00 Y:00 P:2f SP:fb CYC:432
c8b8  ea         NOP         A:00 X:00 Y:00 P:2f SP:fb CYC:435
c8b9  18         CLC         A:00 X:00 Y:00 P:2f SP:fb CYC:437
c8ba  24 01      BIT $01     A:00 X:00 Y:00 P:2e SP:fb CYC:439
c8bc  a9 55      LDA #$55    A:00 X:00 Y:00 P:ee SP:fb CYC:442
c8be  29 aa      AND #$aa    A:55 X:00 Y:00 P:6c SP:fb CYC:444
c8c0  d0 09      BNE $c8cb   A:00 X:00 Y:00 P:6e SP:fb CYC:446
c8c2  50 07      BVC $c8cb   A:00 X:00 Y:00 P:6e SP:fb CYC:448
c8c4  b0 05      BCS $c8cb   A:00 X:00 Y:00 P:6e SP:fb CYC:450
c8c6  30 03      BMI $c8cb   A:00 X:00 Y:00 P:6e SP:fb CYC:452
c8c8  4c cf c8   JMP $c8cf   A:00 X:00 Y:00 P:6e SP:fb CYC:454
c8cf  ea         NOP         A:00 X:00 Y:00 P:6e SP:fb CYC:457
c8d0  38         SEC         A:00 X:00 Y:00 P:6e SP:fb CYC:459
c8d1  b8         CLV         A:00 X:00 Y:00 P:6f SP:fb CYC:461
c8d2  a9 f8      LDA #$f8    A:00 X:00 Y:00 P:2f SP:fb CYC:463
c8d4  29 ef      AND #$ef    A:f8 X:00 Y:00 P:ad SP:fb CYC:465
c8d6  90 0b      BCC $c8e3   A:e8 X:00 Y:00 P:ad SP:fb CYC:467
c8d8  10 09      BPL $c8e3   A:e8 X:00 Y:00 P:ad SP:fb CYC:469
c8da  c9 e8      CMP #$e8    A:e8 X:00 Y:00 P:ad SP:fb CYC:471
c8dc  d0 05      BNE $c8e3   A:e8 X:00 Y:00 P:2f SP:fb CYC:473
c8de  70 03      BVS $c8e3   A:e8 X:00 Y:00 P:2f SP:fb CYC:475
c8e0  4c e7 c8   JMP $c8e7   A:e8 X:00 Y:00 P:2f SP:fb CYC:477
c8e7  ea         NOP         A:e8 X:00 Y:00 P:2f SP:fb CYC:480
c8e8  18         CLC         A:e8 X:00 Y:00 P:2f SP:fb CYC:482
c8e9  24 01      BIT $01     A:e8 X:00 Y:00 P:2e SP:fb CYC:484
c8eb  a9 5f      LDA #$5f    A:e8 X:00 Y:00 P:ec SP:fb CYC:487
c8ed  49 aa      EOR #$aa    A:5f X:00 Y:00 P:6c SP:fb CYC:489
c8ef  b0 0b      BCS $c8fc   A:f5 X:00 Y:00 P:ec SP:fb CYC:491
c8f1  10 09      BPL $c8fc   A:f5 X:00 Y:00 P:ec SP:fb CYC:493
c8f3  c9 f5      CMP #$f5    A:f5 X:00 Y:00 P:ec SP:fb CYC:495
c8f5  d0 05      BNE $c8fc   A:f5 X:00 Y:00 P:6f SP:fb CYC:497
c8f7  50 03      BVC $c8fc   A:f5 X:00 Y:00 P:6f SP:fb CYC:499
c8f9  4c 00 c9   JMP $c900   A:f5 X:00 Y:00 P:6f SP:fb CYC:501
c900  ea         NOP         A:f5 X:00 Y:00 P:6f SP:fb CYC:504
c901  38         SEC         A:f5 X:00 Y:00 P:6f SP:fb CYC:506
c902  b8         CLV         A:f5 X:00 Y:00 P:6f SP:fb CYC:508
c903  a9 70      LDA #$70    A:f5 X:00 Y:00 P:2f SP:fb CYC:510
c905  49 70      EOR #$70    A:70 X:00 Y:00 P:2d SP:fb CYC:512
c907  d0 09      BNE $c912   A:00 X:00 Y:00 P:2f SP:fb CYC:514
c909  70 07      BVS $c912   A:00 X:00 Y:00 P:2f SP:fb CYC:516
c90b  90 05      BCC $c912   A:00 X:00 Y:00 P:2f SP:fb CYC:518
c90d  30 03      BMI $c912   A:00 X:00 Y:00 P:2f SP:fb CYC:520
c90f  4c 16 c9   JMP $c916   A:00 X:00 Y:00 P:2f SP:fb CYC:522
c916  ea         NOP         A:00 X:00 Y:00 P:2f SP:fb CYC:525
c917  18         CLC         A:00 X:00 Y:00 P:2f SP:fb CYC:527
c918  24 01      BIT $01     A:00 X:00 Y:00 P:2e SP:fb CYC:529
c91a  a9 00      LDA #$00    A:00 X:00 Y:00 P:ee SP:fb CYC:532
c91c  69 69      ADC #$69    A:00 X:00 Y:00 P:6e SP:fb CYC:534
c91e  30 0b      BMI $c92b   A:69 X:00 Y:00 P:2c SP:fb CYC:536
c920  b0 09      BCS $c92b   A:69 X:00 Y:00 P:2c SP:fb CYC:538
c922  c9 69      CMP #$69    A:69 X:00 Y:00 P:2c SP:fb CYC:540
c924  d0 05      BNE $c92b   A:69 X:00 Y:00 P:2f SP:fb CYC:542
c926  70 03      BVS $c92b   A:69 X:00 Y:00 P:2f SP:fb CYC:544
c928  4c 2f c9   JMP $c92f   A:69 X:00 Y:00 P:2f SP:fb CYC:546
c92f  ea         NOP         A:69 X:00 Y:00 P:2f SP:fb CYC:549
c930  38         SEC         A:69 X:00 Y:00 P:2f SP:fb CYC:551
c931  f8         SED         A:69 X:00 Y:00 P:2f SP:fb CYC:553
c932  24 01      BIT $01     A:69 X:00 Y:00 P:2f SP:fb CYC:555
c934  a9 01      LDA #$01    A:69 X:00 Y:00 P:ed SP:fb CYC:558
c936  69 69      ADC #$69    A:01 X:00 Y:00 P:6d SP:fb CYC:560
c938  30 0b      BMI $c945   A:6b X:00 Y:00 P:2c SP:fb CYC:562
c93a  b0 09      BCS $c945   A:6b X:00 Y:00 P:2c SP:fb CYC:564
c93c  c9 6b      CMP #$6b    A:6b X:00 Y:00 P:2c SP:fb CYC:566
c93e  d0 05      BNE $c945   A:6b X:00 Y:00 P:2f SP:fb CYC:568
c940  70 03      BVS $c945   A:6b X:00 Y:00 P:2f SP:fb CYC:570
c942  4c 49 c9   JMP $c949   A:6b X:00 Y:00 P:2f SP:fb CYC:572
c949  ea         NOP         A:6b X:00 Y:00 P:2f SP:fb CYC:575
c94a  d8         CLD         A:6b X:00 Y:00 P:2f SP:fb CYC:577
c94b  38         SEC         A:6b X:00 Y:00 P:27 SP:fb CYC:579
c94c  b8         CLV         A:6b X:00 Y:00 P:27 SP:fb CYC:581
c94d  a9 7f      LDA #$7f    A:6b X:00 Y:00 P:27 SP:fb CYC:583
c94f  69 7f      ADC #$7f    A:7f X:00 Y:00 P:25 SP:fb CYC:585
c951  10 0b      BPL $c95e   A:ff X:00 Y:00 P:e4 SP:fb CYC:587
c953  b0 09      BCS $c95e   A:ff X:00 Y:00 P:e4 SP:fb CYC:589
c955  c9 ff      CMP #$ff    A:ff X:00 Y:00 P:e4 SP:fb CYC:591
c957  d0 05      BNE $c95e   A:ff X:00 Y:00 P:67 SP:fb CYC:593
c959  50 03      BVC $c95e   A:ff X:00 Y:00 P:67 SP:fb CYC:595
c95b  4c 62 c9   JMP $c962   A:ff X:00 Y:00 P:67 SP:fb CYC:597
c962  ea         NOP         A:ff X:00 Y:00 P:67 SP:fb CYC:600
c963  18         CLC         A:ff X:00 Y:00 P:67 SP:fb CYC:602
c964  24 01      BIT $01     A:ff X:00 Y:00 P:66 SP:fb CYC:604
c966  a9 7f      LDA #$7f    A:ff X:00 Y:00 P:e4 SP:fb CYC:607
c968  69 80      ADC #$80    A:7f X:00 Y:00 P:64 SP:fb CYC:609
c96a  10 0b      BPL $c977   A:ff X:00 Y:00 P:a4 SP:fb CYC:611
c96c  b0 09      BCS $c977   A:ff X:00 Y:00 P:a4 SP:fb CYC:613
c96e  c9 ff      CMP #$ff    A:ff X:00 Y:00 P:a4 SP:fb CYC:615
c970  d0 05      BNE $c977   A:ff X:00 Y:00 P:27 SP:fb CYC:617
c972  70 03      BVS $c977   A:ff X:00 Y:00 P:27 SP:fb CYC:619
c974  4c 7b c9   JMP $c97b   A:ff X:00 Y:00 P:27 SP:fb CYC:621
c97b  ea         NOP         A:ff X:00 Y:00 P:27 SP:fb CYC:624
c97c  38         SEC         A:ff X:00 Y:00 P:27 SP:fb CYC:626
c97d  b8         CLV         A:ff X:00 Y:00 P:27 SP:fb CYC:628
c97e  a9 7f      LDA #$7f    A:ff X:00 Y:00 P:27 SP:fb CYC:630
c980  69 80      ADC #$80    A:7f X:00 Y:00 P:25 SP:fb CYC:632
c982  d0 09      BNE $c98d   A:00 X:00 Y:00 P:27 SP:fb CYC:634
c984  30 07      BMI $c98d   A:00 X:00 Y:00 P:27 SP:fb CYC:636
c986  70 05      BVS $c98d   A:00 X:00 Y:00 P:27 SP:fb CYC:638
c988  90 03      BCC $c98d   A:00 X:00 Y:00 P:27 SP:fb CYC:640
c98a  4c 91 c9   JMP $c991   A:00 X:00 Y:00 P:27 SP:fb CYC:642
c991  ea         NOP         A:00 X:00 Y:00 P:27 SP:fb CYC:645
c992  38         SEC         A:00 X:00 Y:00 P:27 SP:fb CYC:647
c993  b8         CLV         A:00 X:00 Y:00 P:27 SP:fb CYC:649
c994  a9 9f      LDA #$9f    A:00 X:00 Y:00 P:27 SP:fb CYC:651
c996  f0 09      BEQ $c9a1   A:9f X:00 Y:00 P:a5 SP:fb CYC:653
c998  10 07      BPL $c9a1   A:9f X:00 Y:00 P:a5 SP:fb CYC:655
c99a  70 05      BVS $c9a1   A:9f X:00 Y:00 P:a5 SP:fb CYC:657
c99c  90 03      BCC $c9a1   A:9f X:00 Y:00 P:a5 SP:fb CYC:659
c99e  4c a5 c9   JMP $c9a5   A:9f X:00 Y:00 P:a5 SP:fb CYC:661
c9a5  ea         NOP         A:9f X:00 Y:00 P:a5 SP:fb CYC:664
c9a6  18         CLC         A:9f X:00 Y:00 P:a5 SP:fb CYC:666
c9a7  24 01      BIT $01     A:9f X:00 Y:00 P:a4 SP:fb CYC:668
c9a9  a9 00      LDA #$00    A:9f X:00 Y:00 P:e4 SP:fb CYC:671
c9ab  d0 09      BNE $c9b6   A:00 X:00 Y:00 P:66 SP:fb CYC:673
c9ad  30 07      BMI $c9b6   A:00 X:00 Y:00 P:66 SP:fb CYC:675
c9af  50 05      BVC $c9b6   A:00 X:00 Y:00 P:66 SP:fb CYC:677
c9b1  b0 03      BCS $c9b6   A:00 X:00 Y:00 P:66 SP:fb CYC:679
c9b3  4c ba c9   JMP $c9ba   A:00 X:00 Y:00 P:66 SP:fb CYC:681
c9ba  ea         NOP         A:00 X:00 Y:00 P:66 SP:fb CYC:684
c9bb  24 01      BIT $01     A:00 X:00 Y:00 P:66 SP:fb CYC:686
c9bd  a9 40      LDA #$40    A:00 X:00 Y:00 P:e6 SP:fb CYC:689
c9bf  c9 40      CMP #$40    A:40 X:00 Y:00 P:64 SP:fb CYC:691
c9c1  30 09      BMI $c9cc   A:40 X:00 Y:00 P:67 SP:fb CYC:693
c9c3  90 07      BCC $c9cc   A:40 X:00 Y:00 P:67 SP:fb CYC:695
c9c5  d0 05      BNE $c9cc   A:40 X:00 Y:00 P:67 SP:fb CYC:697
c9c7  50 03      BVC $c9cc   A:40 X:00 Y:00 P:67 SP:fb CYC:699
c9c9  4c d0 c9   JMP $c9d0   A:40 X:00 Y:00 P:67 SP:fb CYC:701
c9d0  ea         NOP         A:40 X:00 Y:00 P:67 SP:fb CYC:704
c9d1  b8         CLV         A:40 X:00 Y:00 P:67 SP:fb CYC:706
c9d2  c9 3f      CMP #$3f    A:40 X:00 Y:00 P:27 SP:fb CYC:708
c9d4  f0 09      BEQ $c9df   A:40 X:00 Y:00 P:25 SP:fb CYC:710
c9d6  30 07      BMI $c9df   A:40 X:00 Y:00 P:25 SP:fb CYC:712
c9d8  90 05      BCC $c9df   A:40 X:00 Y:00 P:25 SP:fb CYC:714
c9da  70 03      BVS $c9df   A:40 X:00 Y:00 P:25 SP:fb CYC:716
c9dc  4c e3 c9   JMP $c9e3   A:40 X:00 Y:00 P:25 SP:fb CYC:718
c9e3  ea         NOP         A:40 X:00 Y:00 P:25 SP:fb CYC:721
c9e4  c9 41      CMP #$41    A:40 X:00 Y:00 P:25 SP:fb CYC:723
c9e6  f0 07      BEQ $c9ef   A:40 X:00 Y:00 P:a4 SP:fb CYC:725
c9e8  10 05      BPL $c9ef   A:40 X:00 Y:00 P:a4 SP:fb CYC:727
c9ea  10 03      BPL $c9ef   A:40 X:00 Y:00 P:a4 SP:fb CYC:729
c9ec  4c f3 c9   JMP $c9f3   A:40 X:00 Y:00 P:a4 SP:fb CYC:731
c9f3  ea         NOP         A:40 X:00 Y:00 P:a4 SP:fb CYC:734
c9f4  a9 80      LDA #$80    A:40 X:00 Y:00 P:a4 SP:fb CYC:736
c9f6  c9 00      CMP #$00    A:80 X:00 Y:00 P:a4 SP:fb CYC:738
c9f8  f0 07      BEQ $ca01   A:80 X:00 Y:00 P:a5 SP:fb CYC:740
c9fa  10 05      BPL $ca01   A:80 X:00 Y:00 P:a5 SP:fb CYC:742
c9fc  90 03      BCC $ca01   A:80 X:00 Y:00 P:a5 SP:fb CYC:744
c9fe  4c 05 ca   JMP $ca05   A:80 X:00 Y:00 P:a5 SP:fb CYC:746
ca05  ea         NOP         A:80 X:00 Y:00 P:a5 SP:fb CYC:749
ca06  c9 80      CMP #$80    A:80 X:00 Y:00 P:a5 SP:fb CYC:751
ca08  d0 07      BNE $ca11   A:80 X:00 Y:00 P:27 SP:fb CYC:753
ca0a  30 05      BMI $ca11   A:80 X:00 Y:00 P:27 SP:fb CYC:755
ca0c  90 03      BCC $ca11   A:80 X:00 Y:00 P:27 SP:fb CYC:757
ca0e  4c 15 ca   JMP $ca15   A:80 X:00 Y:00 P:27 SP:fb CYC:759
ca15  ea         NOP         A:80 X:00 Y:00 P:27 SP:fb CYC:762
ca16  c9 81      CMP #$81    A:80 X:00 Y:00 P:27 SP:fb CYC:764
ca18  b0 07      BCS $ca21   A:80 X:00 Y:00 P:a4 SP:fb CYC:766
ca1a  f0 05      BEQ $ca21   A:80 X:00 Y:00 P:a4 SP:fb CYC:768
ca1c  10 03      BPL $ca21   A:80 X:00 Y:00 P:a4 SP:fb CYC:770
ca1e  4c 25 ca   JMP $ca25   A:80 X:00 Y:00 P:a4 SP:fb CYC:772
ca25  ea         NOP         A:80 X:00 Y:00 P:a4 SP:fb CYC:775
ca26  c9 7f      CMP #$7f    A:80 X:00 Y:00 P:a4 SP:fb CYC:777
ca28  90 07      BCC $ca31   A:80 X:00 Y:00 P:25 SP:fb CYC:779
ca2a  f0 05      BEQ $ca31   A:80 X:00 Y:00 P:25 SP:fb CYC:781
ca2c  30 03      BMI $ca31   A:80 X:00 Y:00 P:25 SP:fb CYC:783
ca2e  4c 35 ca   JMP $ca35   A:80 X:00 Y:00 P:25 SP:fb CYC:785
ca35  ea         NOP         A:80 X:00 Y:00 P:25 SP:fb CYC:788
ca36  24 01      BIT $01     A:80 X:00 Y:00 P:25 SP:fb CYC:790
ca38  a0 40      LDY #$40    A:80 X:00 Y:00 P:e5 SP:fb CYC:793
ca3a  c0 40      CPY #$40    A:80 X:00 Y:40 P:65 SP:fb CYC:795
ca3c  d0 09      BNE $ca47   A:80 X:00 Y:40 P:67 SP:fb CYC:797
ca3e  30 07      BMI $ca47   A:80 X:00 Y:40 P:67 SP:fb CYC:799
ca40  90 05      BCC $ca47   A:80 X:00 Y:40 P:67 SP:fb CYC:801
ca42  50 03      BVC $ca47   A:80 X:00 Y:40 P:67 SP:fb CYC:803
ca44  4c 4b ca   JMP $ca4b   A:80 X:00 Y:40 P:67 SP:fb CYC:805
ca4b  ea         NOP         A:80 X:00 Y:40 P:67 SP:fb CYC:808
ca4c  b8         CLV         A:80 X:00 Y:40 P:67 SP:fb CYC:810
ca4d  c0 3f      CPY #$3f    A:80 X:00 Y:40 P:27 SP:fb CYC:812
ca4f  f0 09      BEQ $ca5a   A:80 X:00 Y:40 P:25 SP:fb CYC:814
ca51  30 07      BMI $ca5a   A:80 X:00 Y:40 P:25 SP:fb CYC:816
ca53  90 05      BCC $ca5a   A:80 X:00 Y:40 P:25 SP:fb CYC:818
ca55  70 03      BVS $ca5a   A:80 X:00 Y:40 P:25 SP:fb CYC:820
ca57  4c 5e ca   JMP $ca5e   A:80 X:00 Y:40 P:25 SP:fb CYC:822
ca5e  ea         NOP         A:80 X:00 Y:40 P:25 SP:fb CYC:825
ca5f  c0 41      CPY #$41    A:80 X:00 Y:40 P:25 SP:fb CYC:827
ca61  f0 07      BEQ $ca6a   A:80 X:00 Y:40 P:a4 SP:fb CYC:829
ca63  10 05      BPL $ca6a   A:80 X:00 Y:40 P:a4 SP:fb CYC:831
ca65  10 03      BPL $ca6a   A:80 X:00 Y:40 P:a4 SP:fb CYC:833
ca67  4c 6e ca   JMP $ca6e   A:80 X:00 Y:40 P:a4 SP:fb CYC:835
ca6e  ea         NOP         A:80 X:00 Y:40 P:a4 SP:fb CYC:838
ca6f  a0 80      LDY #$80    A:80 X:00 Y:40 P:a4 SP:fb CYC:840
ca71  c0 00      CPY #$00    A:80 X:00 Y:80 P:a4 SP:fb CYC:842
ca73  f0 07      BEQ $ca7c   A:80 X:00 Y:80 P:a5 SP:fb CYC:844
ca75  10 05      BPL $ca7c   A:80 X:00 Y:80 P:a5 SP:fb CYC:846
ca77  90 03      BCC $ca7c   A:80 X:00 Y:80 P:a5 SP:fb CYC:848
ca79  4c 80 ca   JMP $ca80   A:80 X:00 Y:80 P:a5 SP:fb CYC:850
ca80  ea         NOP         A:80 X:00 Y:80 P:a5 SP:fb CYC:853
ca81  c0 80      CPY #$80    A:80 X:00 Y:80 P:a5 SP:fb CYC:855
ca83  d0 07      BNE $ca8c   A:80 X:00 Y:80 P:27 SP:fb CYC:857
ca85  30 05      BMI $ca8c   A:80 X:00 Y:80 P:27 SP:fb CYC:859
ca87  90 03      BCC $ca8c   A:80 X:00 Y:80 P:27 SP:fb CYC:861
ca89  4c 90 ca   JMP $ca90   A:80 X:00 Y:80 P:27 SP:fb CYC:863
ca90  ea         NOP         A:80 X:00 Y:80 P:27 SP:fb CYC:866
ca91  c0 81      CPY #$81    A:80 X:00 Y:80 P:27 SP:fb CYC:868
ca93  b0 07      BCS $ca9c   A:80 X:00 Y:80 P:a4 SP:fb CYC:870
ca95  f0 05      BEQ $ca9c   A:80 X:00 Y:80 P:a4 SP:fb CYC:872
ca97  10 03      BPL $ca9c   A:80 X:00 Y:80 P:a4 SP:fb CYC:874
ca99  4c a0 ca   JMP $caa0   A:80 X:00 Y:80 P:a4 SP:fb CYC:876
caa0  ea         NOP         A:80 X:00 Y:80 P:a4 SP:fb CYC:879
caa1  c0 7f      CPY #$7f    A:80 X:00 Y:80 P:a4 SP:fb CYC:881
caa3  90 07      BCC $caac   A:80 X:00 Y:80 P:25 SP:fb CYC:883
caa5  f0 05      BEQ $caac   A:80 X:00 Y:80 P:25 SP:fb CYC:885
caa7  30 03      BMI $caac   A:80 X:00 Y:80 P:25 SP:fb CYC:887
caa9  4c b0 ca   JMP $cab0   A:80 X:00 Y:80 P:25 SP:fb CYC:889
cab0  ea         NOP         A:80 X:00 Y:80 P:25 SP:fb CYC:892
cab1  24 01      BIT $01     A:80 X:00 Y:80 P:25 SP:fb CYC:894
cab3  a2 40      LDX #$40    A:80 X:00 Y:80 P:e5 SP:fb CYC:897
cab5  e0 40      CPX #$40    A:80 X:40 Y:80 P:65 SP:fb CYC:899
cab7  d0 09      BNE $cac2   A:80 X:40 Y:80 P:67 SP:fb CYC:901
cab9  30 07      BMI $cac2   A:80 X:40 Y:80 P:67 SP:fb CYC:903
cabb  90 05      BCC $cac2   A:80 X:40 Y:80 P:67 SP:fb CYC:905
cabd  50 03      BVC $cac2   A:80 X:40 Y:80 P:67 SP:fb CYC:907
cabf  4c c6 ca   JMP $cac6   A:80 X:40 Y:80 P:67 SP:fb CYC:909
cac6  ea         NOP         A:80 X:40 Y:80 P:67 SP:fb CYC:912
cac7  b8         CLV         A:80 X:40 Y:80 P:67 SP:fb CYC:914
cac8  e0 3f      CPX #$3f    A:80 X:40 Y:80 P:27 SP:fb CYC:916
caca  f0 09      BEQ $cad5   A:80 X:40 Y:80 P:25 SP:fb CYC:918
cacc  30 07      BMI $cad5   A:80 X:40 Y:80 P:25 SP:fb CYC:920
cace  90 05      BCC $cad5   A:80 X:40 Y:80 P:25 SP:fb CYC:922
cad0  70 03      BVS $cad5   A:80 X:40 Y:80 P:25 SP:fb CYC:924
cad2  4c d9 ca   JMP $cad9   A:80 X:40 Y:80 P:25 SP:fb CYC:926
cad9  ea         NOP         A:80 X:40 Y:80 P:25 SP:fb CYC:929
cada  e0 41      CPX #$41    A:80 X:40 Y:80 P:25 SP:fb CYC:931
cadc  f0 07      BEQ $cae5   A:80 X:40 Y:80 P:a4 SP:fb CYC:933
cade  10 05      BPL $cae5   A:80 X:40 Y:80 P:a4 SP:fb CYC:935
cae0  10 03      BPL $cae5   A:80 X:40 Y:80 P:a4 SP:fb CYC:937
cae2  4c e9 ca   JMP $cae9   A:80 X:40 Y:80 P:a4 SP:fb CYC:939
cae9  ea         NOP         A:80 X:40 Y:80 P:a4 SP:fb CYC:942
caea  a2 80      LDX #$80    A:80 X:40 Y:80 P:a4 SP:fb CYC:944
caec  e0 00      CPX #$00    A:80 X:80 Y:80 P:a4 SP:fb CYC:946
caee  f0 07      BEQ $caf7   A:80 X:80 Y:80 P:a5 SP:fb CYC:948
caf0  10 05      BPL $caf7   A:80 X:80 Y:80 P:a5 SP:fb CYC:950
caf2  90 03      BCC $caf7   A:80 X:80 Y:80 P:a5 SP:fb CYC:952
caf4  4c fb ca   JMP $cafb   A:80 X:80 Y:80 P:a5 SP:fb CYC:954
cafb  ea         NOP         A:80 X:80 Y:80 P:a5 SP:fb CYC:957
cafc  e0 80      CPX #$80    A:80 X:80 Y:80 P:a5 SP:fb CYC:959
cafe  d0 07      BNE $cb07   A:80 X:80 Y:80 P:27 SP:fb CYC:961
cb00  30 05      BMI $cb07   A:80 X:80 Y:80 P:27 SP:fb CYC:963
cb02  90 03      BCC $cb07   A:80 X:80 Y:80 P:27 SP:fb CYC:965
cb04  4c 0b cb   JMP $cb0b   A:80 X:80 Y:80 P:27 SP:fb CYC:967
cb0b  ea         NOP         A:80 X:80 Y:80 P:27 SP:fb CYC:970
cb0c  e0 81      CPX #$81    A:80 X:80 Y:80 P:27 SP:fb CYC:972
cb0e  b0 07      BCS $cb17   A:80 X:80 Y:80 P:a4 SP:fb CYC:974
cb10  f0 05      BEQ $cb17   A:80 X:80 Y:80 P:a4 SP:fb CYC:976
cb12  10 03      BPL $cb17   A:80 X:80 Y:80 P:a4 SP:fb CYC:978
cb14  4c 1b cb   JMP $cb1b   A:80 X:80 Y:80 P:a4 SP:fb CYC:980
cb1b  ea         NOP         A:80 X:80 Y:80 P:a4 SP:fb CYC:983
cb1c  e0 7f      CPX #$7f    A:80 X:80 Y:80 P:a4 SP:fb CYC:985
cb1e  90 07      BCC $cb27   A:80 X:80 Y:80 P:25 SP:fb CYC:987
cb20  f0 05      BEQ $cb27   A:80 X:80 Y:80 P:25 SP:fb CYC:989
cb22  30 03      BMI $cb27   A:80 X:80 Y:80 P:25 SP:fb CYC:991
cb24  4c 2b cb   JMP $cb2b   A:80 X:80 Y:80 P:25 SP:fb CYC:993
cb2b  ea         NOP         A:80 X:80 Y:80 P:25 SP:fb CYC:996
cb2c  38         SEC         A:80 X:80 Y:80 P:25 SP:fb CYC:998
cb2d  b8         CLV         A:80 X:80 Y:80 P:25 SP:fb CYC:1000
cb2e  a2 9f      LDX #$9f    A:80 X:80 Y:80 P:25 SP:fb CYC:1002
cb30  f0 09      BEQ $cb3b   A:80 X:9f Y:80 P:a5 SP:fb CYC:1004
cb32  10 07      BPL $cb3b   A:80 X:9f Y:80 P:a5 SP:fb CYC:1006
cb34  70 05      BVS $cb3b   A:80 X:9f Y:80 P:a5 SP:fb CYC:1008
cb36  90 03      BCC $cb3b   A:80 X:9f Y:80 P:a5 SP:fb CYC:1010
cb38  4c 3f cb   JMP $cb3f   A:80 X:9f Y:80 P:a5 SP:fb CYC:1012
cb3f  ea         NOP         A:80 X:9f Y:80 P:a5 SP:fb CYC:1015
cb40  18         CLC         A:80 X:9f Y:80 P:a5 SP:fb CYC:1017
cb41  24 01      BIT $01     A:80 X:9f Y:80 P:a4 SP:fb CYC:1019
cb43  a2 00      LDX #$00    A:80 X:9f Y:80 P:e4 SP:fb CYC:1022
cb45  d0 09      BNE $cb50   A:80 X:00 Y:80 P:66 SP:fb CYC:1024
cb47  30 07      BMI $cb50   A:80 X:00 Y:80 P:66 SP:fb CYC:1026
cb49  50 05      BVC $cb50   A:80 X:00 Y:80 P:66 SP:fb CYC:1028
cb4b  b0 03      BCS $cb50   A:80 X:00 Y:80 P:66 SP:fb CYC:1030
cb4d  4c 54 cb   JMP $cb54   A:80 X:00 Y:80 P:66 SP:fb CYC:1032
cb54  ea         NOP         A:80 X:00 Y:80 P:66 SP:fb CYC:1035
cb55  38         SEC         A:80 X:00 Y:80 P:66 SP:fb CYC:1037
cb56  b8         CLV         A:80 X:00 Y:80 P:67 SP:fb CYC:1039
cb57  a0 9f      LDY #$9f    A:80 X:00 Y:80 P:27 SP:fb CYC:1041
cb59  f0 09      BEQ $cb64   A:80 X:00 Y:9f P:a5 SP:fb CYC:1043
cb5b  10 07      BPL $cb64   A:80 X:00 Y:9f P:a5 SP:fb CYC:1045
cb5d  70 05      BVS $cb64   A:80 X:00 Y:9f P:a5 SP:fb CYC:1047
cb5f  90 03      BCC $cb64   A:80 X:00 Y:9f P:a5 SP:fb CYC:1049
cb61  4c 68 cb   JMP $cb68   A:80 X:00 Y:9f P:a5 SP:fb CYC:1051
cb68  ea         NOP         A:80 X:00 Y:9f P:a5 SP:fb CYC:1054
cb69  18         CLC         A:80 X:00 Y:9f P:a5 SP:fb CYC:1056
cb6a  24 01      BIT $01     A:80 X:00 Y:9f P:a4 SP:fb CYC:1058
cb6c  a0 00      LDY #$00    A:80 X:00 Y:9f P:e4 SP:fb CYC:1061
cb6e  d0 09      BNE $cb79   A:80 X:00 Y:00 P:66 SP:fb CYC:1063
cb70  30 07      BMI $cb79   A:80 X:00 Y:00 P:66 SP:fb CYC:1065
cb72  50 05      BVC $cb79   A:80 X:00 Y:00 P:66 SP:fb CYC:1067
cb74  b0 03      BCS $cb79   A:80 X:00 Y:00 P:66 SP:fb CYC:1069
cb76  4c 7d cb   JMP $cb7d   A:80 X:00 Y:00 P:66 SP:fb CYC:1071
cb7d  ea         NOP         A:80 X:00 Y:00 P:66 SP:fb CYC:1074
cb7e  a9 55      LDA #$55    A:80 X:00 Y:00 P:66 SP:fb CYC:1076
cb80  a2 aa      LDX #$aa    A:55 X:00 Y:00 P:64 SP:fb CYC:1078
cb82  a0 33      LDY #$33    A:55 X:aa Y:00 P:e4 SP:fb CYC:1080
cb84  c9 55      CMP #$55    A:55 X:aa Y:33 P:64 SP:fb CYC:1082
cb86  d0 23      BNE $cbab   A:55 X:aa Y:33 P:67 SP:fb CYC:1084
cb88  e0 aa      CPX #$aa    A:55 X:aa Y:33 P:67 SP:fb CYC:1086
cb8a  d0 1f      BNE $cbab   A:55 X:aa Y:33 P:67 SP:fb CYC:1088
cb8c  c0 33      CPY #$33    A:55 X:aa Y:33 P:67 SP:fb CYC:1090
cb8e  d0 1b      BNE $cbab   A:55 X:aa Y:33 P:67 SP:fb CYC:1092
cb90  c9 55      CMP #$55    A:55 X:aa Y:33 P:67 SP:fb CYC:1094
cb92  d0 17      BNE $cbab   A:55 X:aa Y:33 P:67 SP:fb CYC:1096
cb94  e0 aa      CPX #$aa    A:55 X:aa Y:33 P:67 SP:fb CYC:1098
cb96  d0 13      BNE $cbab   A:55 X:aa Y:33 P:67 SP:fb CYC:1100
cb98  c0 33      CPY #$33    A:55 X:aa Y:33 P:67 SP:fb CYC:1102
cb9a  d0 0f      BNE $cbab   A:55 X:aa Y:33 P:67 SP:fb CYC:1104
cb9c  c9 56      CMP #$56    A:55 X:aa Y:33 P:67 SP:fb CYC:1106
cb9e  f0 0b      BEQ $cbab   A:55 X:aa Y:33 P:e4 SP:fb CYC:1108
cba0  e0 ab      CPX #$ab    A:55 X:aa Y:33 P:e4 SP:fb CYC:1110
cba2  f0 07      BEQ $cbab   A:55 X:aa Y:33 P:e4 SP:fb CYC:1112
cba4  c0 34      CPY #$34    A:55 X:aa Y:33 P:e4 SP:fb CYC:1114
cba6  f0 03      BEQ $cbab   A:55 X:aa Y:33 P:e4 SP:fb CYC:1116
cba8  4c af cb   JMP $cbaf   A:55 X:aa Y:33 P:e4 SP:fb CYC:1118
cbaf  a0 71      LDY #$71    A:55 X:aa Y:33 P:e4 SP:fb CYC:1121
cbb1  20 31 f9   JSR $f931   A:55 X:aa Y:71 P:64 SP:fb CYC:1123
f931  24 01      BIT $01     A:55 X:aa Y:71 P:64 SP:f9 CYC:1129
f933  a9 40      LDA #$40    A:55 X:aa Y:71 P:e4 SP:f9 CYC:1132
f935  38         SEC         A:40 X:aa Y:71 P:64 SP:f9 CYC:1134
f936  60         RTS         A:40 X:aa Y:71 P:65 SP:f9 CYC:1136
cbb4  e9 40      SBC #$40    A:40 X:aa Y:71 P:65 SP:fb CYC:1142
cbb6  20 37 f9   JSR $f937   A:00 X:aa Y:71 P:27 SP:fb CYC:1144
f937  30 0b      BMI $f944   A:00 X:aa Y:71 P:27 SP:f9 CYC:1150
f939  90 09      BCC $f944   A:00 X:aa Y:71 P:27 SP:f9 CYC:1152
f93b  d0 07      BNE $f944   A:00 X:aa Y:71 P:27 SP:f9 CYC:1154
f93d  70 05      BVS $f944   A:00 X:aa Y:71 P:27 SP:f9 CYC:1156
f93f  c9 00      CMP #$00    A:00 X:aa Y:71 P:27 SP:f9 CYC:1158
f941  d0 01      BNE $f944   A:00 X:aa Y:71 P:27 SP:f9 CYC:1160
f943  60         RTS         A:00 X:aa Y:71 P:27 SP:f9 CYC:1162
cbb9  c8         INY         A:00 X:aa Y:71 P:27 SP:fb CYC:1168
cbba  20 47 f9   JSR $f947   A:00 X:aa Y:72 P:25 SP:fb CYC:1170
f947  b8         CLV         A:00 X:aa Y:72 P:25 SP:f9 CYC:1176
f948  38         SEC         A:00 X:aa Y:72 P:25 SP:f9 CYC:1178
f949  a9 40      LDA #$40    A:00 X:aa Y:72 P:25 SP:f9 CYC:1180
f94b  60         RTS         A:40 X:aa Y:72 P:25 SP:f9 CYC:1182
cbbd  e9 3f      SBC #$3f    A:40 X:aa Y:72 P:25 SP:fb CYC:1188
cbbf  20 4c f9   JSR $f94c   A:01 X:aa Y:72 P:25 SP:fb CYC:1190
f94c  f0 0b      BEQ $f959   A:01 X:aa Y:72 P:25 SP:f9 CYC:1196
f94e  30 09      BMI $f959   A:01 X:aa Y:72 P:25 SP:f9 CYC:1198
f950  90 07      BCC $f959   A:01 X:aa Y:72 P:25 SP:f9 CYC:1200
f952  70 05      BVS $f959   A:01 X:aa Y:72 P:25 SP:f9 CYC:1202
f954  c9 01      CMP #$01    A:01 X:aa Y:72 P:25 SP:f9 CYC:1204
f956  d0 01      BNE $f959   A:01 X:aa Y:72 P:27 SP:f9 CYC:1206
f958  60         RTS         A:01 X:aa Y:72 P:27 SP:f9 CYC:1208
cbc2  c8         INY         A:01 X:aa Y:72 P:27 SP:fb CYC:1214
cbc3  20 5c f9   JSR $f95c   A:01 X:aa Y:73 P:25 SP:fb CYC:1216
f95c  a9 40      LDA #$40    A:01 X:aa Y:73 P:25 SP:f9 CYC:1222
f95e  38         SEC         A:40 X:aa Y:73 P:25 SP:f9 CYC:1224
f95f  24 01      BIT $01     A:40 X:aa Y:73 P:25 SP:f9 CYC:1226
f961  60         RTS         A:40 X:aa Y:73 P:e5 SP:f9 CYC:1229
cbc6  e9 41      SBC #$41    A:40 X:aa Y:73 P:e5 SP:fb CYC:1235
cbc8  20 62 f9   JSR $f962   A:ff X:aa Y:73 P:a4 SP:fb CYC:1237
f962  b0 0b      BCS $f96f   A:ff X:aa Y:73 P:a4 SP:f9 CYC:1243
f964  f0 09      BEQ $f96f   A:ff X:aa Y:73 P:a4 SP:f9 CYC:1245
f966  10 07      BPL $f96f   A:ff X:aa Y:73 P:a4 SP:f9 CYC:1247
f968  70 05      BVS $f96f   A:ff X:aa Y:73 P:a4 SP:f9 CYC:1249
f96a  c9 ff      CMP #$ff    A:ff X:aa Y:73 P:a4 SP:f9 CYC:1251
f96c  d0 01      BNE $f96f   A:ff X:aa Y:73 P:27 SP:f9 CYC:1253
f96e  60         RTS         A:ff X:aa Y:73 P:27 SP:f9 CYC:1255
cbcb  c8         INY         A:ff X:aa Y:73 P:27 SP:fb CYC:1261
cbcc  20 72 f9   JSR $f972   A:ff X:aa Y:74 P:25 SP:fb CYC:1263
f972  18         CLC         A:ff X:aa Y:74 P:25 SP:f9 CYC:1269
f973  a9 80      LDA #$80    A:ff X:aa Y:74 P:24 SP:f9 CYC:1271
f975  60         RTS         A:80 X:aa Y:74 P:a4 SP:f9 CYC:1273
cbcf  e9 00      SBC #$00    A:80 X:aa Y:74 P:a4 SP:fb CYC:1279
cbd1  20 76 f9   JSR $f976   A:7f X:aa Y:74 P:65 SP:fb CYC:1281
f976  90 05      BCC $f97d   A:7f X:aa Y:74 P:65 SP:f9 CYC:1287
f978  c9 7f      CMP #$7f    A:7f X:aa Y:74 P:65 SP:f9 CYC:1289
f97a  d0 01      BNE $f97d   A:7f X:aa Y:74 P:67 SP:f9 CYC:1291
f97c  60         RTS         A:7f X:aa Y:74 P:67 SP:f9 CYC:1293
cbd4  c8         INY         A:7f X:aa Y:74 P:67 SP:fb CYC:1299
cbd5  20 80 f9   JSR $f980   A:7f X:aa Y:75 P:65 SP:fb CYC:1301
f980  38         SEC         A:7f X:aa Y:75 P:65 SP:f9 CYC:1307
f981  a9 81      LDA #$81    A:7f X:aa Y:75 P:65 SP:f9 CYC:1309
f983  60         RTS         A:81 X:aa Y:75 P:e5 SP:f9 CYC:1311
cbd8  e9 7f      SBC #$7f    A:81 X:aa Y:75 P:e5 SP:fb CYC:1317
cbda  20 84 f9   JSR $f984   A:02 X:aa Y:75 P:65 SP:fb CYC:1319
f984  50 07      BVC $f98d   A:02 X:aa Y:75 P:65 SP:f9 CYC:1325
f986  90 05      BCC $f98d   A:02 X:aa Y:75 P:65 SP:f9 CYC:1327
f988  c9 02      CMP #$02    A:02 X:aa Y:75 P:65 SP:f9 CYC:1329
f98a  d0 01      BNE $f98d   A:02 X:aa Y:75 P:67 SP:f9 CYC:1331
f98c  60         RTS         A:02 X:aa Y:75 P:67 SP:f9 CYC:1333
cbdd  60         RTS         A:02 X:aa Y:75 P:67 SP:fb CYC:1339
c606  20 de cb   JSR $cbde   A:02 X:aa Y:75 P:67 SP:fd CYC:1345
cbde  ea         NOP         A:02 X:aa Y:75 P:67 SP:fb CYC:1351
cbdf  a9 ff      LDA #$ff    A:02 X:aa Y:75 P:67 SP:fb CYC:1353
cbe1  85 01      STA $01     A:ff X:aa Y:75 P:e5 SP:fb CYC:1355
cbe3  a9 44      LDA #$44    A:ff X:aa Y:75 P:e5 SP:fb CYC:1358
cbe5  a2 55      LDX #$55    A:44 X:aa Y:75 P:65 SP:fb CYC:1360
cbe7  a0 66      LDY #$66    A:44 X:55 Y:75 P:65 SP:fb CYC:1362
cbe9  e8         INX         A:44 X:55 Y:66 P:65 SP:fb CYC:1364
cbea  88         DEY         A:44 X:56 Y:66 P:65 SP:fb CYC:1366
cbeb  e0 56      CPX #$56    A:44 X:56 Y:65 P:65 SP:fb CYC:1368
cbed  d0 21      BNE $cc10   A:44 X:56 Y:65 P:67 SP:fb CYC:1370
cbef  c0 65      CPY #$65    A:44 X:56 Y:65 P:67 SP:fb CYC:1372
cbf1  d0 1d      BNE $cc10   A:44 X:56 Y:65 P:67 SP:fb CYC:1374
cbf3  e8         INX         A:44 X:56 Y:65 P:67 SP:fb CYC:1376
cbf4  e8         INX         A:44 X:57 Y:65 P:65 SP:fb CYC:1378
cbf5  88         DEY         A:44 X:58 Y:65 P:65 SP:fb CYC:1380
cbf6  88         DEY         A:44 X:58 Y:64 P:65 SP:fb CYC:1382
cbf7  e0 58      CPX #$58    A:44 X:58 Y:63 P:65 SP:fb CYC:1384
cbf9  d0 15      BNE $cc10   A:44 X:58 Y:63 P:67 SP:fb CYC:1386
cbfb  c0 63      CPY #$63    A:44 X:58 Y:63 P:67 SP:fb CYC:1388
cbfd  d0 11      BNE $cc10   A:44 X:58 Y:63 P:67 SP:fb CYC:1390
cbff  ca         DEX         A:44 X:58 Y:63 P:67 SP:fb CYC:1392
cc00  c8         INY         A:44 X:57 Y:63 P:65 SP:fb CYC:1394
cc01  e0 57      CPX #$57    A:44 X:57 Y:64 P:65 SP:fb CYC:1396
cc03  d0 0b      BNE $cc10   A:44 X:57 Y:64 P:67 SP:fb CYC:1398
cc05  c0 64      CPY #$64    A:44 X:57 Y:64 P:67 SP:fb CYC:1400
cc07  d0 07      BNE $cc10   A:44 X:57 Y:64 P:67 SP:fb CYC:1402
cc09  c9 44      CMP #$44    A:44 X:57 Y:64 P:67 SP:fb CYC:1404
cc0b  d0 03      BNE $cc10   A:44 X:57 Y:64 P:67 SP:fb CYC:1406
cc0d  4c 14 cc   JMP $cc14   A:44 X:57 Y:64 P:67 SP:fb CYC:1408
cc14  ea         NOP         A:44 X:57 Y:64 P:67 SP:fb CYC:1411
cc15  38         SEC         A:44 X:57 Y:64 P:67 SP:fb CYC:1413
cc16  a2 69      LDX #$69    A:44 X:57 Y:64 P:67 SP:fb CYC:1415
cc18  a9 96      LDA #$96    A:44 X:69 Y:64 P:65 SP:fb CYC:1417
cc1a  24 01      BIT $01     A:96 X:69 Y:64 P:e5 SP:fb CYC:1419
cc1c  a0 ff      LDY #$ff    A:96 X:69 Y:64 P:e5 SP:fb CYC:1422
cc1e  c8         INY         A:96 X:69 Y:ff P:e5 SP:fb CYC:1424
cc1f  d0 3d      BNE $cc5e   A:96 X:69 Y:00 P:67 SP:fb CYC:1426
cc21  30 3b      BMI $cc5e   A:96 X:69 Y:00 P:67 SP:fb CYC:1428
cc23  90 39      BCC $cc5e   A:96 X:69 Y:00 P:67 SP:fb CYC:1430
cc25  50 37      BVC $cc5e   A:96 X:69 Y:00 P:67 SP:fb CYC:1432
cc27  c0 00      CPY #$00    A:96 X:69 Y:00 P:67 SP:fb CYC:1434
cc29  d0 33      BNE $cc5e   A:96 X:69 Y:00 P:67 SP:fb CYC:1436
cc2b  c8         INY         A:96 X:69 Y:00 P:67 SP:fb CYC:1438
cc2c  f0 30      BEQ $cc5e   A:96 X:69 Y:01 P:65 SP:fb CYC:1440
cc2e  30 2e      BMI $cc5e   A:96 X:69 Y:01 P:65 SP:fb CYC:1442
cc30  90 2c      BCC $cc5e   A:96 X:69 Y:01 P:65 SP:fb CYC:1444
cc32  50 2a      BVC $cc5e   A:96 X:69 Y:01 P:65 SP:fb CYC:1446
cc34  18         CLC         A:96 X:69 Y:01 P:65 SP:fb CYC:1448
cc35  b8         CLV         A:96 X:69 Y:01 P:64 SP:fb CYC:1450
cc36  a0 00      LDY #$00    A:96 X:69 Y:01 P:24 SP:fb CYC:1452
cc38  88         DEY         A:96 X:69 Y:00 P:26 SP:fb CYC:1454
cc39  f0 23      BEQ $cc5e   A:96 X:69 Y:ff P:a4 SP:fb CYC:1456
cc3b  10 21      BPL $cc5e   A:96 X:69 Y:ff P:a4 SP:fb CYC:1458
cc3d  b0 1f      BCS $cc5e   A:96 X:69 Y:ff P:a4 SP:fb CYC:1460
cc3f  70 1d      BVS $cc5e   A:96 X:69 Y:ff P:a4 SP:fb CYC:1462
cc41  c0 ff      CPY #$ff    A:96 X:69 Y:ff P:a4 SP:fb CYC:1464
cc43  d0 19      BNE $cc5e   A:96 X:69 Y:ff P:27 SP:fb CYC:1466
cc45  18         CLC         A:96 X:69 Y:ff P:27 SP:fb CYC:1468
cc46  88         DEY         A:96 X:69 Y:ff P:26 SP:fb CYC:1470
cc47  f0 15      BEQ $cc5e   A:96 X:69 Y:fe P:a4 SP:fb CYC:1472
cc49  10 13      BPL $cc5e   A:96 X:69 Y:fe P:a4 SP:fb CYC:1474
cc4b  b0 11      BCS $cc5e   A:96 X:69 Y:fe P:a4 SP:fb CYC:1476
cc4d  70 0f      BVS $cc5e   A:96 X:69 Y:fe P:a4 SP:fb CYC:1478
cc4f  c0 fe      CPY #$fe    A:96 X:69 Y:fe P:a4 SP:fb CYC:1480
cc51  d0 0b      BNE $cc5e   A:96 X:69 Y:fe P:27 SP:fb CYC:1482
cc53  c9 96      CMP #$96    A:96 X:69 Y:fe P:27 SP:fb CYC:1484
cc55  d0 07      BNE $cc5e   A:96 X:69 Y:fe P:27 SP:fb CYC:1486
cc57  e0 69      CPX #$69    A:96 X:69 Y:fe P:27 SP:fb CYC:1488
cc59  d0 03      BNE $cc5e   A:96 X:69 Y:fe P:27 SP:fb CYC:1490
cc5b  4c 62 cc   JMP $cc62   A:96 X:69 Y:fe P:27 SP:fb CYC:1492
cc62  ea         NOP         A:96 X:69 Y:fe P:27 SP:fb CYC:1495
cc63  38         SEC         A:96 X:69 Y:fe P:27 SP:fb CYC:1497
cc64  a0 69      LDY #$69    A:96 X:69 Y:fe P:27 SP:fb CYC:1499
cc66  a9 96      LDA #$96    A:96 X:69 Y:69 P:25 SP:fb CYC:1501
cc68  24 01      BIT $01     A:96 X:69 Y:69 P:a5 SP:fb CYC:1503
cc6a  a2 ff      LDX #$ff    A:96 X:69 Y:69 P:e5 SP:fb CYC:1506
cc6c  e8         INX         A:96 X:ff Y:69 P:e5 SP:fb CYC:1508
cc6d  d0 3d      BNE $ccac   A:96 X:00 Y:69 P:67 SP:fb CYC:1510
cc6f  30 3b      BMI $ccac   A:96 X:00 Y:69 P:67 SP:fb CYC:1512
cc71  90 39      BCC $ccac   A:96 X:00 Y:69 P:67 SP:fb CYC:1514
cc73  50 37      BVC $ccac   A:96 X:00 Y:69 P:67 SP:fb CYC:1516
cc75  e0 00      CPX #$00    A:96 X:00 Y:69 P:67 SP:fb CYC:1518
cc77  d0 33      BNE $ccac   A:96 X:00 Y:69 P:67 SP:fb CYC:1520
cc79  e8         INX         A:96 X:00 Y:69 P:67 SP:fb CYC:1522
cc7a  f0 30      BEQ $ccac   A:96 X:01 Y:69 P:65 SP:fb CYC:1524
cc7c  30 2e      BMI $ccac   A:96 X:01 Y:69 P:65 SP:fb CYC:1526
cc7e  90 2c      BCC $ccac   A:96 X:01 Y:69 P:65 SP:fb CYC:1528
cc80  50 2a      BVC $ccac   A:96 X:01 Y:69 P:65 SP:fb CYC:1530
cc82  18         CLC         A:96 X:01 Y:69 P:65 SP:fb CYC:1532
cc83  b8         CLV         A:96 X:01 Y:69 P:64 SP:fb CYC:1534
cc84  a2 00      LDX #$00    A:96 X:01 Y:69 P:24 SP:fb CYC:1536
cc86  ca         DEX         A:96 X:00 Y:69 P:26 SP:fb CYC:1538
cc87  f0 23      BEQ $ccac   A:96 X:ff Y:69 P:a4 SP:fb CYC:1540
cc89  10 21      BPL $ccac   A:96 X:ff Y:69 P:a4 SP:fb CYC:1542
cc8b  b0 1f      BCS $ccac   A:96 X:ff Y:69 P:a4 SP:fb CYC:1544
cc8d  70 1d      BVS $ccac   A:96 X:ff Y:69 P:a4 SP:fb CYC:1546
cc8f  e0 ff      CPX #$ff    A:96 X:ff Y:69 P:a4 SP:fb CYC:1548
cc91  d0 19      BNE $ccac   A:96 X:ff Y:69 P:27 SP:fb CYC:1550
cc93  18         CLC         A:96 X:ff Y:69 P:27 SP:fb CYC:1552
cc94  ca         DEX         A:96 X:ff Y:69 P:26 SP:fb CYC:1554
cc95  f0 15      BEQ $ccac   A:96 X:fe Y:69 P:a4 SP:fb CYC:1556
cc97  10 13      BPL $ccac   A:96 X:fe Y:69 P:a4 SP:fb CYC:1558
cc99  b0 11      BCS $ccac   A:96 X:fe Y:69 P:a4 SP:fb CYC:1560
cc9b  70 0f      BVS $ccac   A:96 X:fe Y:69 P:a4 SP:fb CYC:1562
cc9d  e0 fe      CPX #$fe    A:96 X:fe Y:69 P:a4 SP:fb CYC:1564
cc9f  d0 0b      BNE $ccac   A:96 X:fe Y:69 P:27 SP:fb CYC:1566
cca1  c9 96      CMP #$96    A:96 X:fe Y:69 P:27 SP:fb CYC:1568
cca3  d0 07      BNE $ccac   A:96 X:fe Y:69 P:27 SP:fb CYC:1570
cca5  c0 69      CPY #$69    A:96 X:fe Y:69 P:27 SP:fb CYC:1572
cca7  d0 03      BNE $ccac   A:96 X:fe Y:69 P:27 SP:fb CYC:1574
cca9  4c b0 cc   JMP $ccb0   A:96 X:fe Y:69 P:27 SP:fb CYC:1576
ccb0  ea         NOP         A:96 X:fe Y:69 P:27 SP:fb CYC:1579
ccb1  a9 85      LDA #$85    A:96 X:fe Y:69 P:27 SP:fb CYC:1581
ccb3  a2 34      LDX #$34    A:85 X:fe Y:69 P:a5 SP:fb CYC:1583
ccb5  a0 99      LDY #$99    A:85 X:34 Y:69 P:25 SP:fb CYC:1585
ccb7  18         CLC         A:85 X:34 Y:99 P:a5 SP:fb CYC:1587
ccb8  24 01      BIT $01     A:85 X:34 Y:99 P:a4 SP:fb CYC:1589
ccba  a8         TAY         A:85 X:34 Y:99 P:e4 SP:fb CYC:1592
ccbb  f0 2e      BEQ $cceb   A:85 X:34 Y:85 P:e4 SP:fb CYC:1594
ccbd  b0 2c      BCS $cceb   A:85 X:34 Y:85 P:e4 SP:fb CYC:1596
ccbf  50 2a      BVC $cceb   A:85 X:34 Y:85 P:e4 SP:fb CYC:1598
ccc1  10 28      BPL $cceb   A:85 X:34 Y:85 P:e4 SP:fb CYC:1600
ccc3  c9 85      CMP #$85    A:85 X:34 Y:85 P:e4 SP:fb CYC:1602
ccc5  d0 24      BNE $cceb   A:85 X:34 Y:85 P:67 SP:fb CYC:1604
ccc7  e0 34      CPX #$34    A:85 X:34 Y:85 P:67 SP:fb CYC:1606
ccc9  d0 20      BNE $cceb   A:85 X:34 Y:85 P:67 SP:fb CYC:1608
cccb  c0 85      CPY #$85    A:85 X:34 Y:85 P:67 SP:fb CYC:1610
cccd  d0 1c      BNE $cceb   A:85 X:34 Y:85 P:67 SP:fb CYC:1612
cccf  a9 00      LDA #$00    A:85 X:34 Y:85 P:67 SP:fb CYC:1614
ccd1  38         SEC         A:00 X:34 Y:85 P:67 SP:fb CYC:1616
ccd2  b8         CLV         A:00 X:34 Y:85 P:67 SP:fb CYC:1618
ccd3  a8         TAY         A:00 X:34 Y:85 P:27 SP:fb CYC:1620
ccd4  d0 15      BNE $cceb   A:00 X:34 Y:00 P:27 SP:fb CYC:1622
ccd6  90 13      BCC $cceb   A:00 X:34 Y:00 P:27 SP:fb CYC:1624
ccd8  70 11      BVS $cceb   A:00 X:34 Y:00 P:27 SP:fb CYC:1626
ccda  30 0f      BMI $cceb   A:00 X:34 Y:00 P:27 SP:fb CYC:1628
ccdc  c9 00      CMP #$00    A:00 X:34 Y:00 P:27 SP:fb CYC:1630
ccde  d0 0b      BNE $cceb   A:00 X:34 Y:00 P:27 SP:fb CYC:1632
cce0  e0 34      CPX #$34    A:00 X:34 Y:00 P:27 SP:fb CYC:1634
cce2  d0 07      BNE $cceb   A:00 X:34 Y:00 P:27 SP:fb CYC:1636
cce4  c0 00      CPY #$00    A:00 X:34 Y:00 P:27 SP:fb CYC:1638
cce6  d0 03      BNE $cceb   A:00 X:34 Y:00 P:27 SP:fb CYC:1640
cce8  4c ef cc   JMP $ccef   A:00 X:34 Y:00 P:27 SP:fb CYC:1642
ccef  ea         NOP         A:00 X:34 Y:00 P:27 SP:fb CYC:1645
ccf0  a9 85      LDA #$85    A:00 X:34 Y:00 P:27 SP:fb CYC:1647
ccf2  a2 34      LDX #$34    A:85 X:34 Y:00 P:a5 SP:fb CYC:1649
ccf4  a0 99      LDY #$99    A:85 X:34 Y:00 P:25 SP:fb CYC:1651
ccf6  18         CLC         A:85 X:34 Y:99 P:a5 SP:fb CYC:1653
ccf7  24 01      BIT $01     A:85 X:34 Y:99 P:a4 SP:fb CYC:1655
ccf9  aa         TAX         A:85 X:34 Y:99 P:e4 SP:fb CYC:1658
ccfa  f0 2e      BEQ $cd2a   A:85 X:85 Y:99 P:e4 SP:fb CYC:1660
ccfc  b0 2c      BCS $cd2a   A:85 X:85 Y:99 P:e4 SP:fb CYC:1662
ccfe  50 2a      BVC $cd2a   A:85 X:85 Y:99 P:e4 SP:fb CYC:1664
cd00  10 28      BPL $cd2a   A:85 X:85 Y:99 P:e4 SP:fb CYC:1666
cd02  c9 85      CMP #$85    A:85 X:85 Y:99 P:e4 SP:fb CYC:1668
cd04  d0 24      BNE $cd2a   A:85 X:85 Y:99 P:67 SP:fb CYC:1670
cd06  e0 85      CPX #$85    A:85 X:85 Y:99 P:67 SP:fb CYC:1672
cd08  d0 20      BNE $cd2a   A:85 X:85 Y:99 P:67 SP:fb CYC:1674
cd0a  c0 99      CPY #$99    A:85 X:85 Y:99 P:67 SP:fb CYC:1676
cd0c  d0 1c      BNE $cd2a   A:85 X:85 Y:99 P:67 SP:fb CYC:1678
cd0e  a9 00      LDA #$00    A:85 X:85 Y:99 P:67 SP:fb CYC:1680
cd10  38         SEC         A:00 X:85 Y:99 P:67 SP:fb CYC:1682
cd11  b8         CLV         A:00 X:85 Y:99 P:67 SP:fb CYC:1684
cd12  aa         TAX         A:00 X:85 Y:99 P:27 SP:fb CYC:1686
cd13  d0 15      BNE $cd2a   A:00 X:00 Y:99 P:27 SP:fb CYC:1688
cd15  90 13      BCC $cd2a   A:00 X:00 Y:99 P:27 SP:fb CYC:1690
cd17  70 11      BVS $cd2a   A:00 X:00 Y:99 P:27 SP:fb CYC:1692
cd19  30 0f      BMI $cd2a   A:00 X:00 Y:99 P:27 SP:fb CYC:1694
cd1b  c9 00      CMP #$00    A:00 X:00 Y:99 P:27 SP:fb CYC:1696
cd1d  d0 0b      BNE $cd2a   A:00 X:00 Y:99 P:27 SP:fb CYC:1698
cd1f  e0 00      CPX #$00    A:00 X:00 Y:99 P:27 SP:fb CYC:1700
cd21  d0 07      BNE $cd2a   A:00 X:00 Y:99 P:27 SP:fb CYC:1702
cd23  c0 99      CPY #$99    A:00 X:00 Y:99 P:27 SP:fb CYC:1704
cd25  d0 03      BNE $cd2a   A:00 X:00 Y:99 P:27 SP:fb CYC:1706
cd27  4c 2e cd   JMP $cd2e   A:00 X:00 Y:99 P:27 SP:fb CYC:1708
cd2e  ea         NOP         A:00 X:00 Y:99 P:27 SP:fb CYC:1711
cd2f  a9 85      LDA #$85    A:00 X:00 Y:99 P:27 SP:fb CYC:1713
cd31  a2 34      LDX #$34    A:85 X:00 Y:99 P:a5 SP:fb CYC:1715
cd33  a0 99      LDY #$99    A:85 X:34 Y:99 P:25 SP:fb CYC:1717
cd35  18         CLC         A:85 X:34 Y:99 P:a5 SP:fb CYC:1719
cd36  24 01      BIT $01     A:85 X:34 Y:99 P:a4 SP:fb CYC:1721
cd38  98         TYA         A:85 X:34 Y:99 P:e4 SP:fb CYC:1724
cd39  f0 2e      BEQ $cd69   A:99 X:34 Y:99 P:e4 SP:fb CYC:1726
cd3b  b0 2c      BCS $cd69   A:99 X:34 Y:99 P:e4 SP:fb CYC:1728
cd3d  50 2a      BVC $cd69   A:99 X:34 Y:99 P:e4 SP:fb CYC:1730
cd3f  10 28      BPL $cd69   A:99 X:34 Y:99 P:e4 SP:fb CYC:1732
cd41  c9 99      CMP #$99    A:99 X:34 Y:99 P:e4 SP:fb CYC:1734
cd43  d0 24      BNE $cd69   A:99 X:34 Y:99 P:67 SP:fb CYC:1736
cd45  e0 34      CPX #$34    A:99 X:34 Y:99 P:67 SP:fb CYC:1738
cd47  d0 20      BNE $cd69   A:99 X:34 Y:99 P:67 SP:fb CYC:1740
cd49  c0 99      CPY #$99    A:99 X:34 Y:99 P:67 SP:fb CYC:1742
cd4b  d0 1c      BNE $cd69   A:99 X:34 Y:99 P:67 SP:fb CYC:1744
cd4d  a0 00      LDY #$00    A:99 X:34 Y:99 P:67 SP:fb CYC:1746
cd4f  38         SEC         A:99 X:34 Y:00 P:67 SP:fb CYC:1748
cd50  b8         CLV         A:99 X:34 Y:00 P:67 SP:fb CYC:1750
cd51  98         TYA         A:99 X:34 Y:00 P:27 SP:fb CYC:1752
cd52  d0 15      BNE $cd69   A:00 X:34 Y:00 P:27 SP:fb CYC:1754
cd54  90 13      BCC $cd69   A:00 X:34 Y:00 P:27 SP:fb CYC:1756
cd56  70 11      BVS $cd69   A:00 X:34 Y:00 P:27 SP:fb CYC:1758
cd58  30 0f      BMI $cd69   A:00 X:34 Y:00 P:27 SP:fb CYC:1760
cd5a  c9 00      CMP #$00    A:00 X:34 Y:00 P:27 SP:fb CYC:1762
cd5c  d0 0b      BNE $cd69   A:00 X:34 Y:00 P:27 SP:fb CYC:1764
cd5e  e0 34      CPX #$34    A:00 X:34 Y:00 P:27 SP:fb CYC:1766
cd60  d0 07      BNE $cd69   A:00 X:34 Y:00 P:27 SP:fb CYC:1768
cd62  c0 00      CPY #$00    A:00 X:34 Y:00 P:27 SP:fb CYC:1770
cd64  d0 03      BNE $cd69   A:00 X:34 Y:00 P:27 SP:fb CYC:1772
cd66  4c 6d cd   JMP $cd6d   A:00 X:34 Y:00 P:27 SP:fb CYC:1774
cd6d  ea         NOP         A:00 X:34 Y:00 P:27 SP:fb CYC:1777
cd6e  a9 85      LDA #$85    A:00 X:34 Y:00 P:27 SP:fb CYC:1779
cd70  a2 34      LDX #$34    A:85 X:34 Y:00 P:a5 SP:fb CYC:1781
cd72  a0 99      LDY #$99    A:85 X:34 Y:00 P:25 SP:fb CYC:1783
cd74  18         CLC         A:85 X:34 Y:99 P:a5 SP:fb CYC:1785
cd75  24 01      BIT $01     A:85 X:34 Y:99 P:a4 SP:fb CYC:1787
cd77  8a         TXA         A:85 X:34 Y:99 P:e4 SP:fb CYC:1790
cd78  f0 2e      BEQ $cda8   A:34 X:34 Y:99 P:64 SP:fb CYC:1792
cd7a  b0 2c      BCS $cda8   A:34 X:34 Y:99 P:64 SP:fb CYC:1794
cd7c  50 2a      BVC $cda8   A:34 X:34 Y:99 P:64 SP:fb CYC:1796
cd7e  30 28      BMI $cda8   A:34 X:34 Y:99 P:64 SP:fb CYC:1798
cd80  c9 34      CMP #$34    A:34 X:34 Y:99 P:64 SP:fb CYC:1800
cd82  d0 24      BNE $cda8   A:34 X:34 Y:99 P:67 SP:fb CYC:1802
cd84  e0 34      CPX #$34    A:34 X:34 Y:99 P:67 SP:fb CYC:1804
cd86  d0 20      BNE $cda8   A:34 X:34 Y:99 P:67 SP:fb CYC:1806
cd88  c0 99      CPY #$99    A:34 X:34 Y:99 P:67 SP:fb CYC:1808
cd8a  d0 1c      BNE $cda8   A:34 X:34 Y:99 P:67 SP:fb CYC:1810
cd8c  a2 00      LDX #$00    A:34 X:34 Y:99 P:67 SP:fb CYC:1812
cd8e  38         SEC         A:34 X:00 Y:99 P:67 SP:fb CYC:1814
cd8f  b8         CLV         A:34 X:00 Y:99 P:67 SP:fb CYC:1816
cd90  8a         TXA         A:34 X:00 Y:99 P:27 SP:fb CYC:1818
cd91  d0 15      BNE $cda8   A:00 X:00 Y:99 P:27 SP:fb CYC:1820
cd93  90 13      BCC $cda8   A:00 X:00 Y:99 P:27 SP:fb CYC:1822
cd95  70 11      BVS $cda8   A:00 X:00 Y:99 P:27 SP:fb CYC:1824
cd97  30 0f      BMI $cda8   A:00 X:00 Y:99 P:27 SP:fb CYC:1826
cd99  c9 00      CMP #$00    A:00 X:00 Y:99 P:27 SP:fb CYC:1828
cd9b  d0 0b      BNE $cda8   A:00 X:00 Y:99 P:27 SP:fb CYC:1830
cd9d  e0 00      CPX #$00    A:00 X:00 Y:99 P:27 SP:fb CYC:1832
cd9f  d0 07      BNE $cda8   A:00 X:00 Y:99 P:27 SP:fb CYC:1834
cda1  c0 99      CPY #$99    A:00 X:00 Y:99 P:27 SP:fb CYC:1836
cda3  d0 03      BNE $cda8   A:00 X:00 Y:99 P:27 SP:fb CYC:1838
cda5  4c ac cd   JMP $cdac   A:00 X:00 Y:99 P:27 SP:fb CYC:1840
cdac  ea         NOP         A:00 X:00 Y:99 P:27 SP:fb CYC:1843
cdad  ba         TSX         A:00 X:00 Y:99 P:27 SP:fb CYC:1845
cdae  8e ff 07   STX $07ff   A:00 X:fb Y:99 P:a5 SP:fb CYC:1847
cdb1  a0 33      LDY #$33    A:00 X:fb Y:99 P:a5 SP:fb CYC:1851
cdb3  a2 69      LDX #$69    A:00 X:fb Y:33 P:25 SP:fb CYC:1853
cdb5  a9 84      LDA #$84    A:00 X:69 Y:33 P:25 SP:fb CYC:1855
cdb7  18         CLC         A:84 X:69 Y:33 P:a5 SP:fb CYC:1857
cdb8  24 01      BIT $01     A:84 X:69 Y:33 P:a4 SP:fb CYC:1859
cdba  9a         TXS         A:84 X:69 Y:33 P:e4 SP:fb CYC:1862
cdbb  f0 32      BEQ $cdef   A:84 X:69 Y:33 P:e4 SP:69 CYC:1864
cdbd  10 30      BPL $cdef   A:84 X:69 Y:33 P:e4 SP:69 CYC:1866
cdbf  b0 2e      BCS $cdef   A:84 X:69 Y:33 P:e4 SP:69 CYC:1868
cdc1  50 2c      BVC $cdef   A:84 X:69 Y:33 P:e4 SP:69 CYC:1870
cdc3  c9 84      CMP #$84    A:84 X:69 Y:33 P:e4 SP:69 CYC:1872
cdc5  d0 28      BNE $cdef   A:84 X:69 Y:33 P:67 SP:69 CYC:1874
cdc7  e0 69      CPX #$69    A:84 X:69 Y:33 P:67 SP:69 CYC:1876
cdc9  d0 24      BNE $cdef   A:84 X:69 Y:33 P:67 SP:69 CYC:1878
cdcb  c0 33      CPY #$33    A:84 X:69 Y:33 P:67 SP:69 CYC:1880
cdcd  d0 20      BNE $cdef   A:84 X:69 Y:33 P:67 SP:69 CYC:1882
cdcf  a0 01      LDY #$01    A:84 X:69 Y:33 P:67 SP:69 CYC:1884
cdd1  a9 04      LDA #$04    A:84 X:69 Y:01 P:65 SP:69 CYC:1886
cdd3  38         SEC         A:04 X:69 Y:01 P:65 SP:69 CYC:1888
cdd4  b8         CLV         A:04 X:69 Y:01 P:65 SP:69 CYC:1890
cdd5  a2 00      LDX #$00    A:04 X:69 Y:01 P:25 SP:69 CYC:1892
cdd7  ba         TSX         A:04 X:00 Y:01 P:27 SP:69 CYC:1894
cdd8  f0 15      BEQ $cdef   A:04 X:69 Y:01 P:25 SP:69 CYC:1896
cdda  30 13      BMI $cdef   A:04 X:69 Y:01 P:25 SP:69 CYC:1898
cddc  90 11      BCC $cdef   A:04 X:69 Y:01 P:25 SP:69 CYC:1900
cdde  70 0f      BVS $cdef   A:04 X:69 Y:01 P:25 SP:69 CYC:1902
cde0  e0 69      CPX #$69    A:04 X:69 Y:01 P:25 SP:69 CYC:1904
cde2  d0 0b      BNE $cdef   A:04 X:69 Y:01 P:27 SP:69 CYC:1906
cde4  c9 04      CMP #$04    A:04 X:69 Y:01 P:27 SP:69 CYC:1908
cde6  d0 07      BNE $cdef   A:04 X:69 Y:01 P:27 SP:69 CYC:1910
cde8  c0 01      CPY #$01    A:04 X:69 Y:01 P:27 SP:69 CYC:1912
cdea  d0 03      BNE $cdef   A:04 X:69 Y:01 P:27 SP:69 CYC:1914
cdec  4c f3 cd   JMP $cdf3   A:04 X:69 Y:01 P:27 SP:69 CYC:1916
cdf3  ae ff 07   LDX $07ff   A:04 X:69 Y:01 P:27 SP:69 CYC:1919
cdf6  9a         TXS         A:04 X:fb Y:01 P:a5 SP:69 CYC:1923
cdf7  60         RTS         A:04 X:fb Y:01 P:a5 SP:fb CYC:1925
c609  20 f8 cd   JSR $cdf8   A:04 X:fb Y:01 P:a5 SP:fd CYC:1931
cdf8  a9 ff      LDA #$ff    A:04 X:fb Y:01 P:a5 SP:fb CYC:1937
cdfa  85 01      STA $01     A:ff X:fb Y:01 P:a5 SP:fb CYC:1939
cdfc  ba         TSX         A:ff X:fb Y:01 P:a5 SP:fb CYC:1942
cdfd  8e ff 07   STX $07ff   A:ff X:fb Y:01 P:a5 SP:fb CYC:1944
ce00  ea         NOP         A:ff X:fb Y:01 P:a5 SP:fb CYC:1948
ce01  a2 80      LDX #$80    A:ff X:fb Y:01 P:a5 SP:fb CYC:1950
ce03  9a         TXS         A:ff X:80 Y:01 P:a5 SP:fb CYC:1952
ce04  a9 33      LDA #$33    A:ff X:80 Y:01 P:a5 SP:80 CYC:1954
ce06  48         PHA         A:33 X:80 Y:01 P:25 SP:80 CYC:1956
ce07  a9 69      LDA #$69    A:33 X:80 Y:01 P:25 SP:7f CYC:1959
ce09  48         PHA         A:69 X:80 Y:01 P:25 SP:7f CYC:1961
ce0a  ba         TSX         A:69 X:80 Y:01 P:25 SP:7e CYC:1964
ce0b  e0 7e      CPX #$7e    A:69 X:7e Y:01 P:25 SP:7e CYC:1966
ce0d  d0 20      BNE $ce2f   A:69 X:7e Y:01 P:27 SP:7e CYC:1968
ce0f  68         PLA         A:69 X:7e Y:01 P:27 SP:7e CYC:1970
ce10  c9 69      CMP #$69    A:69 X:7e Y:01 P:25 SP:7f CYC:1974
ce12  d0 1b      BNE $ce2f   A:69 X:7e Y:01 P:27 SP:7f CYC:1976
ce14  68         PLA         A:69 X:7e Y:01 P:27 SP:7f CYC:1978
ce15  c9 33      CMP #$33    A:33 X:7e Y:01 P:25 SP:80 CYC:1982
ce17  d0 16      BNE $ce2f   A:33 X:7e Y:01 P:27 SP:80 CYC:1984
ce19  ba         TSX         A:33 X:7e Y:01 P:27 SP:80 CYC:1986
ce1a  e0 80      CPX #$80    A:33 X:80 Y:01 P:a5 SP:80 CYC:1988
ce1c  d0 11      BNE $ce2f   A:33 X:80 Y:01 P:27 SP:80 CYC:1990
ce1e  ad 80 01   LDA $0180   A:33 X:80 Y:01 P:27 SP:80 CYC:1992
ce21  c9 33      CMP #$33    A:33 X:80 Y:01 P:25 SP:80 CYC:1996
ce23  d0 0a      BNE $ce2f   A:33 X:80 Y:01 P:27 SP:80 CYC:1998
ce25  ad 7f 01   LDA $017f   A:33 X:80 Y:01 P:27 SP:80 CYC:2000
ce28  c9 69      CMP #$69    A:69 X:80 Y:01 P:25 SP:80 CYC:2004
ce2a  d0 03      BNE $ce2f   A:69 X:80 Y:01 P:27 SP:80 CYC:2006
ce2c  4c 33 ce   JMP $ce33   A:69 X:80 Y:01 P:27 SP:80 CYC:2008
ce33  ea         NOP         A:69 X:80 Y:01 P:27 SP:80 CYC:2011
ce34  a2 80      LDX #$80    A:69 X:80 Y:01 P:27 SP:80 CYC:2013
ce36  9a         TXS         A:69 X:80 Y:01 P:a5 SP:80 CYC:2015
ce37  20 3d ce   JSR $ce3d   A:69 X:80 Y:01 P:a5 SP:80 CYC:2017
ce3d  ba         TSX         A:69 X:80 Y:01 P:a5 SP:7e CYC:2023
ce3e  e0 7e      CPX #$7e    A:69 X:7e Y:01 P:25 SP:7e CYC:2025
ce40  d0 19      BNE $ce5b   A:69 X:7e Y:01 P:27 SP:7e CYC:2027
ce42  68         PLA         A:69 X:7e Y:01 P:27 SP:7e CYC:2029
ce43  68         PLA         A:39 X:7e Y:01 P:25 SP:7f CYC:2033
ce44  ba         TSX         A:ce X:7e Y:01 P:a5 SP:80 CYC:2037
ce45  e0 80      CPX #$80    A:ce X:80 Y:01 P:a5 SP:80 CYC:2039
ce47  d0 12      BNE $ce5b   A:ce X:80 Y:01 P:27 SP:80 CYC:2041
ce49  a9 00      LDA #$00    A:ce X:80 Y:01 P:27 SP:80 CYC:2043
ce4b  20 4e ce   JSR $ce4e   A:00 X:80 Y:01 P:27 SP:80 CYC:2045
ce4e  68         PLA         A:00 X:80 Y:01 P:27 SP:7e CYC:2051
ce4f  c9 4d      CMP #$4d    A:4d X:80 Y:01 P:25 SP:7f CYC:2055
ce51  d0 08      BNE $ce5b   A:4d X:80 Y:01 P:27 SP:7f CYC:2057
ce53  68         PLA         A:4d X:80 Y:01 P:27 SP:7f CYC:2059
ce54  c9 ce      CMP #$ce    A:ce X:80 Y:01 P:a5 SP:80 CYC:2063
ce56  d0 03      BNE $ce5b   A:ce X:80 Y:01 P:27 SP:80 CYC:2065
ce58  4c 5f ce   JMP $ce5f   A:ce X:80 Y:01 P:27 SP:80 CYC:2067
ce5f  ea         NOP         A:ce X:80 Y:01 P:27 SP:80 CYC:2070
ce60  a9 ce      LDA #$ce    A:ce X:80 Y:01 P:27 SP:80 CYC:2072
ce62  48         PHA         A:ce X:80 Y:01 P:a5 SP:80 CYC:2074
ce63  a9 66      LDA #$66    A:ce X:80 Y:01 P:a5 SP:7f CYC:2077
ce65  48         PHA         A:66 X:80 Y:01 P:25 SP:7f CYC:2079
ce66  60         RTS         A:66 X:80 Y:01 P:25 SP:7e CYC:2082
ce67  a2 77      LDX #$77    A:66 X:80 Y:01 P:25 SP:80 CYC:2088
ce69  a0 69      LDY #$69    A:66 X:77 Y:01 P:25 SP:80 CYC:2090
ce6b  18         CLC         A:66 X:77 Y:69 P:25 SP:80 CYC:2092
ce6c  24 01      BIT $01     A:66 X:77 Y:69 P:24 SP:80 CYC:2094
ce6e  a9 83      LDA #$83    A:66 X:77 Y:69 P:e4 SP:80 CYC:2097
ce70  20 66 ce   JSR $ce66   A:83 X:77 Y:69 P:e4 SP:80 CYC:2099
ce66  60         RTS         A:83 X:77 Y:69 P:e4 SP:7e CYC:2105
ce73  f0 24      BEQ $ce99   A:83 X:77 Y:69 P:e4 SP:80 CYC:2111
ce75  10 22      BPL $ce99   A:83 X:77 Y:69 P:e4 SP:80 CYC:2113
ce77  b0 20      BCS $ce99   A:83 X:77 Y:69 P:e4 SP:80 CYC:2115
ce79  50 1e      BVC $ce99   A:83 X:77 Y:69 P:e4 SP:80 CYC:2117
ce7b  c9 83      CMP #$83    A:83 X:77 Y:69 P:e4 SP:80 CYC:2119
ce7d  d0 1a      BNE $ce99   A:83 X:77 Y:69 P:67 SP:80 CYC:2121
ce7f  c0 69      CPY #$69    A:83 X:77 Y:69 P:67 SP:80 CYC:2123
ce81  d0 16      BNE $ce99   A:83 X:77 Y:69 P:67 SP:80 CYC:2125
ce83  e0 77      CPX #$77    A:83 X:77 Y:69 P:67 SP:80 CYC:2127
ce85  d0 12      BNE $ce99   A:83 X:77 Y:69 P:67 SP:80 CYC:2129
ce87  38         SEC         A:83 X:77 Y:69 P:67 SP:80 CYC:2131
ce88  b8         CLV         A:83 X:77 Y:69 P:67 SP:80 CYC:2133
ce89  a9 00      LDA #$00    A:83 X:77 Y:69 P:27 SP:80 CYC:2135
ce8b  20 66 ce   JSR $ce66   A:00 X:77 Y:69 P:27 SP:80 CYC:2137
ce66  60         RTS         A:00 X:77 Y:69 P:27 SP:7e CYC:2143
ce8e  d0 09      BNE $ce99   A:00 X:77 Y:69 P:27 SP:80 CYC:2149
ce90  30 07      BMI $ce99   A:00 X:77 Y:69 P:27 SP:80 CYC:2151
ce92  90 05      BCC $ce99   A:00 X:77 Y:69 P:27 SP:80 CYC:2153
ce94  70 03      BVS $ce99   A:00 X:77 Y:69 P:27 SP:80 CYC:2155
ce96  4c 9d ce   JMP $ce9d   A:00 X:77 Y:69 P:27 SP:80 CYC:2157
ce9d  ea         NOP         A:00 X:77 Y:69 P:27 SP:80 CYC:2160
ce9e  a9 ce      LDA #$ce    A:00 X:77 Y:69 P:27 SP:80 CYC:2162
cea0  48         PHA         A:ce X:77 Y:69 P:a5 SP:80 CYC:2164
cea1  a9 ae      LDA #$ae    A:ce X:77 Y:69 P:a5 SP:7f CYC:2167
cea3  48         PHA         A:ae X:77 Y:69 P:a5 SP:7f CYC:2169
cea4  a9 65      LDA #$65    A:ae X:77 Y:69 P:a5 SP:7e CYC:2172
cea6  48         PHA         A:65 X:77 Y:69 P:25 SP:7e CYC:2174
cea7  a9 55      LDA #$55    A:65 X:77 Y:69 P:25 SP:7d CYC:2177
cea9  a0 88      LDY #$88    A:55 X:77 Y:69 P:25 SP:7d CYC:2179
ceab  a2 99      LDX #$99    A:55 X:77 Y:88 P:a5 SP:7d CYC:2181
cead  40         RTI         A:55 X:99 Y:88 P:a5 SP:7d CYC:2183
ceae  30 35      BMI $cee5   A:55 X:99 Y:88 P:65 SP:80 CYC:2189
ceb0  50 33      BVC $cee5   A:55 X:99 Y:88 P:65 SP:80 CYC:2191
ceb2  f0 31      BEQ $cee5   A:55 X:99 Y:88 P:65 SP:80 CYC:2193
ceb4  90 2f      BCC $cee5   A:55 X:99 Y:88 P:65 SP:80 CYC:2195
ceb6  c9 55      CMP #$55    A:55 X:99 Y:88 P:65 SP:80 CYC:2197
ceb8  d0 2b      BNE $cee5   A:55 X:99 Y:88 P:67 SP:80 CYC:2199
ceba  c0 88      CPY #$88    A:55 X:99 Y:88 P:67 SP:80 CYC:2201
cebc  d0 27      BNE $cee5   A:55 X:99 Y:88 P:67 SP:80 CYC:2203
cebe  e0 99      CPX #$99    A:55 X:99 Y:88 P:67 SP:80 CYC:2205
cec0  d0 23      BNE $cee5   A:55 X:99 Y:88 P:67 SP:80 CYC:2207
cec2  a9 ce      LDA #$ce    A:55 X:99 Y:88 P:67 SP:80 CYC:2209
cec4  48         PHA         A:ce X:99 Y:88 P:e5 SP:80 CYC:2211
cec5  a9 ce      LDA #$ce    A:ce X:99 Y:88 P:e5 SP:7f CYC:2214
cec7  48         PHA         A:ce X:99 Y:88 P:e5 SP:7f CYC:2216
cec8  a9 87      LDA #$87    A:ce X:99 Y:88 P:e5 SP:7e CYC:2219
ceca  48         PHA         A:87 X:99 Y:88 P:e5 SP:7e CYC:2221
cecb  a9 55      LDA #$55    A:87 X:99 Y:88 P:e5 SP:7d CYC:2224
cecd  40         RTI         A:55 X:99 Y:88 P:65 SP:7d CYC:2226
cece  10 15      BPL $cee5   A:55 X:99 Y:88 P:a7 SP:80 CYC:2232
ced0  70 13      BVS $cee5   A:55 X:99 Y:88 P:a7 SP:80 CYC:2234
ced2  d0 11      BNE $cee5   A:55 X:99 Y:88 P:a7 SP:80 CYC:2236
ced4  90 0f      BCC $cee5   A:55 X:99 Y:88 P:a7 SP:80 CYC:2238
ced6  c9 55      CMP #$55    A:55 X:99 Y:88 P:a7 SP:80 CYC:2240
ced8  d0 0b      BNE $cee5   A:55 X:99 Y:88 P:27 SP:80 CYC:2242
ceda  c0 88      CPY #$88    A:55 X:99 Y:88 P:27 SP:80 CYC:2244
cedc  d0 07      BNE $cee5   A:55 X:99 Y:88 P:27 SP:80 CYC:2246
cede  e0 99      CPX #$99    A:55 X:99 Y:88 P:27 SP:80 CYC:2248
cee0  d0 03      BNE $cee5   A:55 X:99 Y:88 P:27 SP:80 CYC:2250
cee2  4c e9 ce   JMP $cee9   A:55 X:99 Y:88 P:27 SP:80 CYC:2252
cee9  ae ff 07   LDX $07ff   A:55 X:99 Y:88 P:27 SP:80 CYC:2255
ceec  9a         TXS         A:55 X:fb Y:88 P:a5 SP:80 CYC:2259
ceed  60         RTS         A:55 X:fb Y:88 P:a5 SP:fb CYC:2261
c60c  20 ee ce   JSR $ceee   A:55 X:fb Y:88 P:a5 SP:fd CYC:2267
ceee  a2 55      LDX #$55    A:55 X:fb Y:88 P:a5 SP:fb CYC:2273
cef0  a0 69      LDY #$69    A:55 X:55 Y:88 P:25 SP:fb CYC:2275
cef2  a9 ff      LDA #$ff    A:55 X:55 Y:69 P:25 SP:fb CYC:2277
cef4  85 01      STA $01     A:ff X:55 Y:69 P:a5 SP:fb CYC:2279
cef6  ea         NOP         A:ff X:55 Y:69 P:a5 SP:fb CYC:2282
cef7  24 01      BIT $01     A:ff X:55 Y:69 P:a5 SP:fb CYC:2284
cef9  38         SEC         A:ff X:55 Y:69 P:e5 SP:fb CYC:2287
cefa  a9 01      LDA #$01    A:ff X:55 Y:69 P:e5 SP:fb CYC:2289
cefc  4a         LSR A       A:01 X:55 Y:69 P:65 SP:fb CYC:2291
cefd  90 1d      BCC $cf1c   A:00 X:55 Y:69 P:67 SP:fb CYC:2293
ceff  d0 1b      BNE $cf1c   A:00 X:55 Y:69 P:67 SP:fb CYC:2295
cf01  30 19      BMI $cf1c   A:00 X:55 Y:69 P:67 SP:fb CYC:2297
cf03  50 17      BVC $cf1c   A:00 X:55 Y:69 P:67 SP:fb CYC:2299
cf05  c9 00      CMP #$00    A:00 X:55 Y:69 P:67 SP:fb CYC:2301
cf07  d0 13      BNE $cf1c   A:00 X:55 Y:69 P:67 SP:fb CYC:2303
cf09  b8         CLV         A:00 X:55 Y:69 P:67 SP:fb CYC:2305
cf0a  a9 aa      LDA #$aa    A:00 X:55 Y:69 P:27 SP:fb CYC:2307
cf0c  4a         LSR A       A:aa X:55 Y:69 P:a5 SP:fb CYC:2309
cf0d  b0 0d      BCS $cf1c   A:55 X:55 Y:69 P:24 SP:fb CYC:2311
cf0f  f0 0b      BEQ $cf1c   A:55 X:55 Y:69 P:24 SP:fb CYC:2313
cf11  30 09      BMI $cf1c   A:55 X:55 Y:69 P:24 SP:fb CYC:2315
cf13  70 07      BVS $cf1c   A:55 X:55 Y:69 P:24 SP:fb CYC:2317
cf15  c9 55      CMP #$55    A:55 X:55 Y:69 P:24 SP:fb CYC:2319
cf17  d0 03      BNE $cf1c   A:55 X:55 Y:69 P:27 SP:fb CYC:2321
cf19  4c 20 cf   JMP $cf20   A:55 X:55 Y:69 P:27 SP:fb CYC:2323
cf20  ea         NOP         A:55 X:55 Y:69 P:27 SP:fb CYC:2326
cf21  24 01      BIT $01     A:55 X:55 Y:69 P:27 SP:fb CYC:2328
cf23  38         SEC         A:55 X:55 Y:69 P:e5 SP:fb CYC:2331
cf24  a9 80      LDA #$80    A:55 X:55 Y:69 P:e5 SP:fb CYC:2333
cf26  0a         ASL A       A:80 X:55 Y:69 P:e5 SP:fb CYC:2335
cf27  90 1e      BCC $cf47   A:00 X:55 Y:69 P:67 SP:fb CYC:2337
cf29  d0 1c      BNE $cf47   A:00 X:55 Y:69 P:67 SP:fb CYC:2339
cf2b  30 1a      BMI $cf47   A:00 X:55 Y:69 P:67 SP:fb CYC:2341
cf2d  50 18      BVC $cf47   A:00 X:55 Y:69 P:67 SP:fb CYC:2343
cf2f  c9 00      CMP #$00    A:00 X:55 Y:69 P:67 SP:fb CYC:2345
cf31  d0 14      BNE $cf47   A:00 X:55 Y:69 P:67 SP:fb CYC:2347
cf33  b8         CLV         A:00 X:55 Y:69 P:67 SP:fb CYC:2349
cf34  38         SEC         A:00 X:55 Y:69 P:27 SP:fb CYC:2351
cf35  a9 55      LDA #$55    A:00 X:55 Y:69 P:27 SP:fb CYC:2353
cf37  0a         ASL A       A:55 X:55 Y:69 P:25 SP:fb CYC:2355
cf38  b0 0d      BCS $cf47   A:aa X:55 Y:69 P:a4 SP:fb CYC:2357
cf3a  f0 0b      BEQ $cf47   A:aa X:55 Y:69 P:a4 SP:fb CYC:2359
cf3c  10 09      BPL $cf47   A:aa X:55 Y:69 P:a4 SP:fb CYC:2361
cf3e  70 07      BVS $cf47   A:aa X:55 Y:69 P:a4 SP:fb CYC:2363
cf40  c9 aa      CMP #$aa    A:aa X:55 Y:69 P:a4 SP:fb CYC:2365
cf42  d0 03      BNE $cf47   A:aa X:55 Y:69 P:27 SP:fb CYC:2367
cf44  4c 4b cf   JMP $cf4b   A:aa X:55 Y:69 P:27 SP:fb CYC:2369
cf4b  ea         NOP         A:aa X:55 Y:69 P:27 SP:fb CYC:2372
cf4c  24 01      BIT $01     A:aa X:55 Y:69 P:27 SP:fb CYC:2374
cf4e  38         SEC         A:aa X:55 Y:69 P:e5 SP:fb CYC:2377
cf4f  a9 01      LDA #$01    A:aa X:55 Y:69 P:e5 SP:fb CYC:2379
cf51  6a         ROR A       A:01 X:55 Y:69 P:65 SP:fb CYC:2381
cf52  90 1e      BCC $cf72   A:80 X:55 Y:69 P:e5 SP:fb CYC:2383
cf54  f0 1c      BEQ $cf72   A:80 X:55 Y:69 P:e5 SP:fb CYC:2385
cf56  10 1a      BPL $cf72   A:80 X:55 Y:69 P:e5 SP:fb CYC:2387
cf58  50 18      BVC $cf72   A:80 X:55 Y:69 P:e5 SP:fb CYC:2389
cf5a  c9 80      CMP #$80    A:80 X:55 Y:69 P:e5 SP:fb CYC:2391
cf5c  d0 14      BNE $cf72   A:80 X:55 Y:69 P:67 SP:fb CYC:2393
cf5e  b8         CLV         A:80 X:55 Y:69 P:67 SP:fb CYC:2395
cf5f  18         CLC         A:80 X:55 Y:69 P:27 SP:fb CYC:2397
cf60  a9 55      LDA #$55    A:80 X:55 Y:69 P:26 SP:fb CYC:2399
cf62  6a         ROR A       A:55 X:55 Y:69 P:24 SP:fb CYC:2401
cf63  90 0d      BCC $cf72   A:2a X:55 Y:69 P:25 SP:fb CYC:2403
cf65  f0 0b      BEQ $cf72   A:2a X:55 Y:69 P:25 SP:fb CYC:2405
cf67  30 09      BMI $cf72   A:2a X:55 Y:69 P:25 SP:fb CYC:2407
cf69  70 07      BVS $cf72   A:2a X:55 Y:69 P:25 SP:fb CYC:2409
cf6b  c9 2a      CMP #$2a    A:2a X:55 Y:69 P:25 SP:fb CYC:2411
cf6d  d0 03      BNE $cf72   A:2a X:55 Y:69 P:27 SP:fb CYC:2413
cf6f  4c 76 cf   JMP $cf76   A:2a X:55 Y:69 P:27 SP:fb CYC:2415
cf76  ea         NOP         A:2a X:55 Y:69 P:27 SP:fb CYC:2418
cf77  24 01      BIT $01     A:2a X:55 Y:69 P:27 SP:fb CYC:2420
cf79  38         SEC         A:2a X:55 Y:69 P:e5 SP:fb CYC:2423
cf7a  a9 80      LDA #$80    A:2a X:55 Y:69 P:e5 SP:fb CYC:2425
cf7c  2a         ROL A       A:80 X:55 Y:69 P:e5 SP:fb CYC:2427
cf7d  90 1e      BCC $cf9d   A:01 X:55 Y:69 P:65 SP:fb CYC:2429
cf7f  f0 1c      BEQ $cf9d   A:01 X:55 Y:69 P:65 SP:fb CYC:2431
cf81  30 1a      BMI $cf9d   A:01 X:55 Y:69 P:65 SP:fb CYC:2433
cf83  50 18      BVC $cf9d   A:01 X:55 Y:69 P:65 SP:fb CYC:2435
cf85  c9 01      CMP #$01    A:01 X:55 Y:69 P:65 SP:fb CYC:2437
cf87  d0 14      BNE $cf9d   A:01 X:55 Y:69 P:67 SP:fb CYC:2439
cf89  b8         CLV         A:01 X:55 Y:69 P:67 SP:fb CYC:2441
cf8a  18         CLC         A:01 X:55 Y:69 P:27 SP:fb CYC:2443
cf8b  a9 55      LDA #$55    A:01 X:55 Y:69 P:26 SP:fb CYC:2445
cf8d  2a         ROL A       A:55 X:55 Y:69 P:24 SP:fb CYC:2447
cf8e  b0 0d      BCS $cf9d   A:aa X:55 Y:69 P:a4 SP:fb CYC:2449
cf90  f0 0b      BEQ $cf9d   A:aa X:55 Y:69 P:a4 SP:fb CYC:2451
cf92  10 09      BPL $cf9d   A:aa X:55 Y:69 P:a4 SP:fb CYC:2453
cf94  70 07      BVS $cf9d   A:aa X:55 Y:69 P:a4 SP:fb CYC:2455
cf96  c9 aa      CMP #$aa    A:aa X:55 Y:69 P:a4 SP:fb CYC:2457
cf98  d0 03      BNE $cf9d   A:aa X:55 Y:69 P:27 SP:fb CYC:2459
cf9a  4c a1 cf   JMP $cfa1   A:aa X:55 Y:69 P:27 SP:fb CYC:2461
cfa1  60         RTS         A:aa X:55 Y:69 P:27 SP:fb CYC:2464
c60f  20 a2 cf   JSR $cfa2   A:aa X:55 Y:69 P:27 SP:fd CYC:2470
cfa2  a5 00      LDA $00     A:aa X:55 Y:69 P:27 SP:fb CYC:2476
cfa4  8d ff 07   STA $07ff   A:00 X:55 Y:69 P:27 SP:fb CYC:2479
cfa7  a9 00      LDA #$00    A:00 X:55 Y:69 P:27 SP:fb CYC:2483
cfa9  85 80      STA $80     A:00 X:55 Y:69 P:27 SP:fb CYC:2485
cfab  a9 02      LDA #$02    A:00 X:55 Y:69 P:27 SP:fb CYC:2488
cfad  85 81      STA $81     A:02 X:55 Y:69 P:25 SP:fb CYC:2490
cfaf  a9 ff      LDA #$ff    A:02 X:55 Y:69 P:25 SP:fb CYC:2493
cfb1  85 01      STA $01     A:ff X:55 Y:69 P:a5 SP:fb CYC:2495
cfb3  a9 00      LDA #$00    A:ff X:55 Y:69 P:a5 SP:fb CYC:2498
cfb5  85 82      STA $82     A:00 X:55 Y:69 P:27 SP:fb CYC:2500
cfb7  a9 03      LDA #$03    A:00 X:55 Y:69 P:27 SP:fb CYC:2503
cfb9  85 83      STA $83     A:03 X:55 Y:69 P:25 SP:fb CYC:2505
cfbb  85 84      STA $84     A:03 X:55 Y:69 P:25 SP:fb CYC:2508
cfbd  a9 00      LDA #$00    A:03 X:55 Y:69 P:25 SP:fb CYC:2511
cfbf  85 ff      STA $ff     A:00 X:55 Y:69 P:27 SP:fb CYC:2513
cfc1  a9 04      LDA #$04    A:00 X:55 Y:69 P:27 SP:fb CYC:2516
cfc3  85 00      STA $00     A:04 X:55 Y:69 P:25 SP:fb CYC:2518
cfc5  a9 5a      LDA #$5a    A:04 X:55 Y:69 P:25 SP:fb CYC:2521
cfc7  8d 00 02   STA $0200   A:5a X:55 Y:69 P:25 SP:fb CYC:2523
cfca  a9 5b      LDA #$5b    A:5a X:55 Y:69 P:25 SP:fb CYC:2527
cfcc  8d 00 03   STA $0300   A:5b X:55 Y:69 P:25 SP:fb CYC:2529
cfcf  a9 5c      LDA #$5c    A:5b X:55 Y:69 P:25 SP:fb CYC:2533
cfd1  8d 03 03   STA $0303   A:5c X:55 Y:69 P:25 SP:fb CYC:2535
cfd4  a9 5d      LDA #$5d    A:5c X:55 Y:69 P:25 SP:fb CYC:2539
cfd6  8d 00 04   STA $0400   A:5d X:55 Y:69 P:25 SP:fb CYC:2541
cfd9  a2 00      LDX #$00    A:5d X:55 Y:69 P:25 SP:fb CYC:2545
cfdb  a1 80      LDA ($80,X) A:5d X:00 Y:69 P:27 SP:fb CYC:2547
cfdd  c9 5a      CMP #$5a    A:5a X:00 Y:69 P:25 SP:fb CYC:2553
cfdf  d0 1f      BNE $d000   A:5a X:00 Y:69 P:27 SP:fb CYC:2555
cfe1  e8         INX         A:5a X:00 Y:69 P:27 SP:fb CYC:2557
cfe2  e8         INX         A:5a X:01 Y:69 P:25 SP:fb CYC:2559
cfe3  a1 80      LDA ($80,X) A:5a X:02 Y:69 P:25 SP:fb CYC:2561
cfe5  c9 5b      CMP #$5b    A:5b X:02 Y:69 P:25 SP:fb CYC:2567
cfe7  d0 17      BNE $d000   A:5b X:02 Y:69 P:27 SP:fb CYC:2569
cfe9  e8         INX         A:5b X:02 Y:69 P:27 SP:fb CYC:2571
cfea  a1 80      LDA ($80,X) A:5b X:03 Y:69 P:25 SP:fb CYC:2573
cfec  c9 5c      CMP #$5c    A:5c X:03 Y:69 P:25 SP:fb CYC:2579
cfee  d0 10      BNE $d000   A:5c X:03 Y:69 P:27 SP:fb CYC:2581
cff0  a2 00      LDX #$00    A:5c X:03 Y:69 P:27 SP:fb CYC:2583
cff2  a1 ff      LDA ($ff,X) A:5c X:00 Y:69 P:27 SP:fb CYC:2585
cff4  c9 5d      CMP #$5d    A:5d X:00 Y:69 P:25 SP:fb CYC:2591
cff6  d0 08      BNE $d000   A:5d X:00 Y:69 P:27 SP:fb CYC:2593
cff8  a2 81      LDX #$81    A:5d X:00 Y:69 P:27 SP:fb CYC:2595
cffa  a1 ff      LDA ($ff,X) A:5d X:81 Y:69 P:a5 SP:fb CYC:2597
cffc  c9 5a      CMP #$5a    A:5a X:81 Y:69 P:25 SP:fb CYC:2603
cffe  f0 05      BEQ $d005   A:5a X:81 Y:69 P:27 SP:fb CYC:2605
d005  a9 aa      LDA #$aa    A:5a X:81 Y:69 P:27 SP:fb CYC:2608
d007  a2 00      LDX #$00    A:aa X:81 Y:69 P:a5 SP:fb CYC:2610
d009  81 80      STA ($80,X) A:aa X:00 Y:69 P:27 SP:fb CYC:2612
d00b  e8         INX         A:aa X:00 Y:69 P:27 SP:fb CYC:2618
d00c  e8         INX         A:aa X:01 Y:69 P:25 SP:fb CYC:2620
d00d  a9 ab      LDA #$ab    A:aa X:02 Y:69 P:25 SP:fb CYC:2622
d00f  81 80      STA ($80,X) A:ab X:02 Y:69 P:a5 SP:fb CYC:2624
d011  e8         INX         A:ab X:02 Y:69 P:a5 SP:fb CYC:2630
d012  a9 ac      LDA #$ac    A:ab X:03 Y:69 P:25 SP:fb CYC:2632
d014  81 80      STA ($80,X) A:ac X:03 Y:69 P:a5 SP:fb CYC:2634
d016  a2 00      LDX #$00    A:ac X:03 Y:69 P:a5 SP:fb CYC:2640
d018  a9 ad      LDA #$ad    A:ac X:00 Y:69 P:27 SP:fb CYC:2642
d01a  81 ff      STA ($ff,X) A:ad X:00 Y:69 P:a5 SP:fb CYC:2644
d01c  ad 00 02   LDA $0200   A:ad X:00 Y:69 P:a5 SP:fb CYC:2650
d01f  c9 aa      CMP #$aa    A:aa X:00 Y:69 P:a5 SP:fb CYC:2654
d021  d0 15      BNE $d038   A:aa X:00 Y:69 P:27 SP:fb CYC:2656
d023  ad 00 03   LDA $0300   A:aa X:00 Y:69 P:27 SP:fb CYC:2658
d026  c9 ab      CMP #$ab    A:ab X:00 Y:69 P:a5 SP:fb CYC:2662
d028  d0 0e      BNE $d038   A:ab X:00 Y:69 P:27 SP:fb CYC:2664
d02a  ad 03 03   LDA $0303   A:ab X:00 Y:69 P:27 SP:fb CYC:2666
d02d  c9 ac      CMP #$ac    A:ac X:00 Y:69 P:a5 SP:fb CYC:2670
d02f  d0 07      BNE $d038   A:ac X:00 Y:69 P:27 SP:fb CYC:2672
d031  ad 00 04   LDA $0400   A:ac X:00 Y:69 P:27 SP:fb CYC:2674
d034  c9 ad      CMP #$ad    A:ad X:00 Y:69 P:a5 SP:fb CYC:2678
d036  f0 05      BEQ $d03d   A:ad X:00 Y:69 P:27 SP:fb CYC:2680
d03d  ad ff 07   LDA $07ff   A:ad X:00 Y:69 P:27 SP:fb CYC:2683
d040  85 00      STA $00     A:00 X:00 Y:69 P:27 SP:fb CYC:2687
d042  a9 00      LDA #$00    A:00 X:00 Y:69 P:27 SP:fb CYC:2690
d044  8d 00 03   STA $0300   A:00 X:00 Y:69 P:27 SP:fb CYC:2692
d047  a9 aa      LDA #$aa    A:00 X:00 Y:69 P:27 SP:fb CYC:2696
d049  8d 00 02   STA $0200   A:aa X:00 Y:69 P:a5 SP:fb CYC:2698
d04c  a2 00      LDX #$00    A:aa X:00 Y:69 P:a5 SP:fb CYC:2702
d04e  a0 5a      LDY #$5a    A:aa X:00 Y:69 P:27 SP:fb CYC:2704
d050  20 b6 f7   JSR $f7b6   A:aa X:00 Y:5a P:25 SP:fb CYC:2706
f7b6  18         CLC         A:aa X:00 Y:5a P:25 SP:f9 CYC:2712
f7b7  a9 ff      LDA #$ff    A:aa X:00 Y:5a P:24 SP:f9 CYC:2714
f7b9  85 01      STA $01     A:ff X:00 Y:5a P:a4 SP:f9 CYC:2716
f7bb  24 01      BIT $01     A:ff X:00 Y:5a P:a4 SP:f9 CYC:2719
f7bd  a9 55      LDA #$55    A:ff X:00 Y:5a P:e4 SP:f9 CYC:2722
f7bf  60         RTS         A:55 X:00 Y:5a P:64 SP:f9 CYC:2724
d053  01 80      ORA ($80,X) A:55 X:00 Y:5a P:64 SP:fb CYC:2730
d055  20 c0 f7   JSR $f7c0   A:ff X:00 Y:5a P:e4 SP:fb CYC:2736
f7c0  b0 09      BCS $f7cb   A:ff X:00 Y:5a P:e4 SP:f9 CYC:2742
f7c2  10 07      BPL $f7cb   A:ff X:00 Y:5a P:e4 SP:f9 CYC:2744
f7c4  c9 ff      CMP #$ff    A:ff X:00 Y:5a P:e4 SP:f9 CYC:2746
f7c6  d0 03      BNE $f7cb   A:ff X:00 Y:5a P:67 SP:f9 CYC:2748
f7c8  50 01      BVC $f7cb   A:ff X:00 Y:5a P:67 SP:f9 CYC:2750
f7ca  60         RTS         A:ff X:00 Y:5a P:67 SP:f9 CYC:2752
d058  c8         INY         A:ff X:00 Y:5a P:67 SP:fb CYC:2758
d059  20 ce f7   JSR $f7ce   A:ff X:00 Y:5b P:65 SP:fb CYC:2760
f7ce  38         SEC         A:ff X:00 Y:5b P:65 SP:f9 CYC:2766
f7cf  b8         CLV         A:ff X:00 Y:5b P:65 SP:f9 CYC:2768
f7d0  a9 00      LDA #$00    A:ff X:00 Y:5b P:25 SP:f9 CYC:2770
f7d2  60         RTS         A:00 X:00 Y:5b P:27 SP:f9 CYC:2772
d05c  01 82      ORA ($82,X) A:00 X:00 Y:5b P:27 SP:fb CYC:2778
d05e  20 d3 f7   JSR $f7d3   A:00 X:00 Y:5b P:27 SP:fb CYC:2784
f7d3  d0 07      BNE $f7dc   A:00 X:00 Y:5b P:27 SP:f9 CYC:2790
f7d5  70 05      BVS $f7dc   A:00 X:00 Y:5b P:27 SP:f9 CYC:2792
f7d7  90 03      BCC $f7dc   A:00 X:00 Y:5b P:27 SP:f9 CYC:2794
f7d9  30 01      BMI $f7dc   A:00 X:00 Y:5b P:27 SP:f9 CYC:2796
f7db  60         RTS         A:00 X:00 Y:5b P:27 SP:f9 CYC:2798
d061  c8         INY         A:00 X:00 Y:5b P:27 SP:fb CYC:2804
d062  20 df f7   JSR $f7df   A:00 X:00 Y:5c P:25 SP:fb CYC:2806
f7df  18         CLC         A:00 X:00 Y:5c P:25 SP:f9 CYC:2812
f7e0  24 01      BIT $01     A:00 X:00 Y:5c P:24 SP:f9 CYC:2814
f7e2  a9 55      LDA #$55    A:00 X:00 Y:5c P:e6 SP:f9 CYC:2817
f7e4  60         RTS         A:55 X:00 Y:5c P:64 SP:f9 CYC:2819
d065  21 80      AND ($80,X) A:55 X:00 Y:5c P:64 SP:fb CYC:2825
d067  20 e5 f7   JSR $f7e5   A:00 X:00 Y:5c P:66 SP:fb CYC:2831
f7e5  d0 07      BNE $f7ee   A:00 X:00 Y:5c P:66 SP:f9 CYC:2837
f7e7  50 05      BVC $f7ee   A:00 X:00 Y:5c P:66 SP:f9 CYC:2839
f7e9  b0 03      BCS $f7ee   A:00 X:00 Y:5c P:66 SP:f9 CYC:2841
f7eb  30 01      BMI $f7ee   A:00 X:00 Y:5c P:66 SP:f9 CYC:2843
f7ed  60         RTS         A:00 X:00 Y:5c P:66 SP:f9 CYC:2845
d06a  c8         INY         A:00 X:00 Y:5c P:66 SP:fb CYC:2851
d06b  a9 ef      LDA #$ef    A:00 X:00 Y:5d P:64 SP:fb CYC:2853
d06d  8d 00 03   STA $0300   A:ef X:00 Y:5d P:e4 SP:fb CYC:2855
d070  20 f1 f7   JSR $f7f1   A:ef X:00 Y:5d P:e4 SP:fb CYC:2859
f7f1  38         SEC         A:ef X:00 Y:5d P:e4 SP:f9 CYC:2865
f7f2  b8         CLV         A:ef X:00 Y:5d P:e5 SP:f9 CYC:2867
f7f3  a9 f8      LDA #$f8    A:ef X:00 Y:5d P:a5 SP:f9 CYC:2869
f7f5  60         RTS         A:f8 X:00 Y:5d P:a5 SP:f9 CYC:2871
d073  21 82      AND ($82,X) A:f8 X:00 Y:5d P:a5 SP:fb CYC:2877
d075  20 f6 f7   JSR $f7f6   A:e8 X:00 Y:5d P:a5 SP:fb CYC:2883
f7f6  90 09      BCC $f801   A:e8 X:00 Y:5d P:a5 SP:f9 CYC:2889
f7f8  10 07      BPL $f801   A:e8 X:00 Y:5d P:a5 SP:f9 CYC:2891
f7fa  c9 e8      CMP #$e8    A:e8 X:00 Y:5d P:a5 SP:f9 CYC:2893
f7fc  d0 03      BNE $f801   A:e8 X:00 Y:5d P:27 SP:f9 CYC:2895
f7fe  70 01      BVS $f801   A:e8 X:00 Y:5d P:27 SP:f9 CYC:2897
f800  60         RTS         A:e8 X:00 Y:5d P:27 SP:f9 CYC:2899
d078  c8         INY         A:e8 X:00 Y:5d P:27 SP:fb CYC:2905
d079  20 04 f8   JSR $f804   A:e8 X:00 Y:5e P:25 SP:fb CYC:2907
f804  18         CLC         A:e8 X:00 Y:5e P:25 SP:f9 CYC:2913
f805  24 01      BIT $01     A:e8 X:00 Y:5e P:24 SP:f9 CYC:2915
f807  a9 5f      LDA #$5f    A:e8 X:00 Y:5e P:e4 SP:f9 CYC:2918
f809  60         RTS         A:5f X:00 Y:5e P:64 SP:f9 CYC:2920
d07c  41 80      EOR ($80,X) A:5f X:00 Y:5e P:64 SP:fb CYC:2926
d07e  20 0a f8   JSR $f80a   A:f5 X:00 Y:5e P:e4 SP:fb CYC:2932
f80a  b0 09      BCS $f815   A:f5 X:00 Y:5e P:e4 SP:f9 CYC:2938
f80c  10 07      BPL $f815   A:f5 X:00 Y:5e P:e4 SP:f9 CYC:2940
f80e  c9 f5      CMP #$f5    A:f5 X:00 Y:5e P:e4 SP:f9 CYC:2942
f810  d0 03      BNE $f815   A:f5 X:00 Y:5e P:67 SP:f9 CYC:2944
f812  50 01      BVC $f815   A:f5 X:00 Y:5e P:67 SP:f9 CYC:2946
f814  60         RTS         A:f5 X:00 Y:5e P:67 SP:f9 CYC:2948
d081  c8         INY         A:f5 X:00 Y:5e P:67 SP:fb CYC:2954
d082  a9 70      LDA #$70    A:f5 X:00 Y:5f P:65 SP:fb CYC:2956
d084  8d 00 03   STA $0300   A:70 X:00 Y:5f P:65 SP:fb CYC:2958
d087  20 18 f8   JSR $f818   A:70 X:00 Y:5f P:65 SP:fb CYC:2962
f818  38         SEC         A:70 X:00 Y:5f P:65 SP:f9 CYC:2968
f819  b8         CLV         A:70 X:00 Y:5f P:65 SP:f9 CYC:2970
f81a  a9 70      LDA #$70    A:70 X:00 Y:5f P:25 SP:f9 CYC:2972
f81c  60         RTS         A:70 X:00 Y:5f P:25 SP:f9 CYC:2974
d08a  41 82      EOR ($82,X) A:70 X:00 Y:5f P:25 SP:fb CYC:2980
d08c  20 1d f8   JSR $f81d   A:00 X:00 Y:5f P:27 SP:fb CYC:2986
f81d  d0 07      BNE $f826   A:00 X:00 Y:5f P:27 SP:f9 CYC:2992
f81f  70 05      BVS $f826   A:00 X:00 Y:5f P:27 SP:f9 CYC:2994
f821  90 03      BCC $f826   A:00 X:00 Y:5f P:27 SP:f9 CYC:2996
f823  30 01      BMI $f826   A:00 X:00 Y:5f P:27 SP:f9 CYC:2998
f825  60         RTS         A:00 X:00 Y:5f P:27 SP:f9 CYC:3000
d08f  c8         INY         A:00 X:00 Y:5f P:27 SP:fb CYC:3006
d090  a9 69      LDA #$69    A:00 X:00 Y:60 P:25 SP:fb CYC:3008
d092  8d 00 02   STA $0200   A:69 X:00 Y:60 P:25 SP:fb CYC:3010
d095  20 29 f8   JSR $f829   A:69 X:00 Y:60 P:25 SP:fb CYC:3014
f829  18         CLC         A:69 X:00 Y:60 P:25 SP:f9 CYC:3020
f82a  24 01      BIT $01     A:69 X:00 Y:60 P:24 SP:f9 CYC:3022
f82c  a9 00      LDA #$00    A:69 X:00 Y:60 P:e4 SP:f9 CYC:3025
f82e  60         RTS         A:00 X:00 Y:60 P:66 SP:f9 CYC:3027
d098  61 80      ADC ($80,X) A:00 X:00 Y:60 P:66 SP:fb CYC:3033
d09a  20 2f f8   JSR $f82f   A:69 X:00 Y:60 P:24 SP:fb CYC:3039
f82f  30 09      BMI $f83a   A:69 X:00 Y:60 P:24 SP:f9 CYC:3045
f831  b0 07      BCS $f83a   A:69 X:00 Y:60 P:24 SP:f9 CYC:3047
f833  c9 69      CMP #$69    A:69 X:00 Y:60 P:24 SP:f9 CYC:3049
f835  d0 03      BNE $f83a   A:69 X:00 Y:60 P:27 SP:f9 CYC:3051
f837  70 01      BVS $f83a   A:69 X:00 Y:60 P:27 SP:f9 CYC:3053
f839  60         RTS         A:69 X:00 Y:60 P:27 SP:f9 CYC:3055
d09d  c8         INY         A:69 X:00 Y:60 P:27 SP:fb CYC:3061
d09e  20 3d f8   JSR $f83d   A:69 X:00 Y:61 P:25 SP:fb CYC:3063
f83d  38         SEC         A:69 X:00 Y:61 P:25 SP:f9 CYC:3069
f83e  24 01      BIT $01     A:69 X:00 Y:61 P:25 SP:f9 CYC:3071
f840  a9 00      LDA #$00    A:69 X:00 Y:61 P:e5 SP:f9 CYC:3074
f842  60         RTS         A:00 X:00 Y:61 P:67 SP:f9 CYC:3076
d0a1  61 80      ADC ($80,X) A:00 X:00 Y:61 P:67 SP:fb CYC:3082
d0a3  20 43 f8   JSR $f843   A:6a X:00 Y:61 P:24 SP:fb CYC:3088
f843  30 09      BMI $f84e   A:6a X:00 Y:61 P:24 SP:f9 CYC:3094
f845  b0 07      BCS $f84e   A:6a X:00 Y:61 P:24 SP:f9 CYC:3096
f847  c9 6a      CMP #$6a    A:6a X:00 Y:61 P:24 SP:f9 CYC:3098
f849  d0 03      BNE $f84e   A:6a X:00 Y:61 P:27 SP:f9 CYC:3100
f84b  70 01      BVS $f84e   A:6a X:00 Y:61 P:27 SP:f9 CYC:3102
f84d  60         RTS         A:6a X:00 Y:61 P:27 SP:f9 CYC:3104
d0a6  c8         INY         A:6a X:00 Y:61 P:27 SP:fb CYC:3110
d0a7  a9 7f      LDA #$7f    A:6a X:00 Y:62 P:25 SP:fb CYC:3112
d0a9  8d 00 02   STA $0200   A:7f X:00 Y:62 P:25 SP:fb CYC:3114
d0ac  20 51 f8   JSR $f851   A:7f X:00 Y:62 P:25 SP:fb CYC:3118
f851  38         SEC         A:7f X:00 Y:62 P:25 SP:f9 CYC:3124
f852  b8         CLV         A:7f X:00 Y:62 P:25 SP:f9 CYC:3126
f853  a9 7f      LDA #$7f    A:7f X:00 Y:62 P:25 SP:f9 CYC:3128
f855  60         RTS         A:7f X:00 Y:62 P:25 SP:f9 CYC:3130
d0af  61 80      ADC ($80,X) A:7f X:00 Y:62 P:25 SP:fb CYC:3136
d0b1  20 56 f8   JSR $f856   A:ff X:00 Y:62 P:e4 SP:fb CYC:3142
f856  10 09      BPL $f861   A:ff X:00 Y:62 P:e4 SP:f9 CYC:3148
f858  b0 07      BCS $f861   A:ff X:00 Y:62 P:e4 SP:f9 CYC:3150
f85a  c9 ff      CMP #$ff    A:ff X:00 Y:62 P:e4 SP:f9 CYC:3152
f85c  d0 03      BNE $f861   A:ff X:00 Y:62 P:67 SP:f9 CYC:3154
f85e  50 01      BVC $f861   A:ff X:00 Y:62 P:67 SP:f9 CYC:3156
f860  60         RTS         A:ff X:00 Y:62 P:67 SP:f9 CYC:3158
d0b4  c8         INY         A:ff X:00 Y:62 P:67 SP:fb CYC:3164
d0b5  a9 80      LDA #$80    A:ff X:00 Y:63 P:65 SP:fb CYC:3166
d0b7  8d 00 02   STA $0200   A:80 X:00 Y:63 P:e5 SP:fb CYC:3168
d0ba  20 64 f8   JSR $f864   A:80 X:00 Y:63 P:e5 SP:fb CYC:3172
f864  18         CLC         A:80 X:00 Y:63 P:e5 SP:f9 CYC:3178
f865  24 01      BIT $01     A:80 X:00 Y:63 P:e4 SP:f9 CYC:3180
f867  a9 7f      LDA #$7f    A:80 X:00 Y:63 P:e4 SP:f9 CYC:3183
f869  60         RTS         A:7f X:00 Y:63 P:64 SP:f9 CYC:3185
d0bd  61 80      ADC ($80,X) A:7f X:00 Y:63 P:64 SP:fb CYC:3191
d0bf  20 6a f8   JSR $f86a   A:ff X:00 Y:63 P:a4 SP:fb CYC:3197
f86a  10 09      BPL $f875   A:ff X:00 Y:63 P:a4 SP:f9 CYC:3203
f86c  b0 07      BCS $f875   A:ff X:00 Y:63 P:a4 SP:f9 CYC:3205
f86e  c9 ff      CMP #$ff    A:ff X:00 Y:63 P:a4 SP:f9 CYC:3207
f870  d0 03      BNE $f875   A:ff X:00 Y:63 P:27 SP:f9 CYC:3209
f872  70 01      BVS $f875   A:ff X:00 Y:63 P:27 SP:f9 CYC:3211
f874  60         RTS         A:ff X:00 Y:63 P:27 SP:f9 CYC:3213
d0c2  c8         INY         A:ff X:00 Y:63 P:27 SP:fb CYC:3219
d0c3  20 78 f8   JSR $f878   A:ff X:00 Y:64 P:25 SP:fb CYC:3221
f878  38         SEC         A:ff X:00 Y:64 P:25 SP:f9 CYC:3227
f879  b8         CLV         A:ff X:00 Y:64 P:25 SP:f9 CYC:3229
f87a  a9 7f      LDA #$7f    A:ff X:00 Y:64 P:25 SP:f9 CYC:3231
f87c  60         RTS         A:7f X:00 Y:64 P:25 SP:f9 CYC:3233
d0c6  61 80      ADC ($80,X) A:7f X:00 Y:64 P:25 SP:fb CYC:3239
d0c8  20 7d f8   JSR $f87d   A:00 X:00 Y:64 P:27 SP:fb CYC:3245
f87d  d0 07      BNE $f886   A:00 X:00 Y:64 P:27 SP:f9 CYC:3251
f87f  30 05      BMI $f886   A:00 X:00 Y:64 P:27 SP:f9 CYC:3253
f881  70 03      BVS $f886   A:00 X:00 Y:64 P:27 SP:f9 CYC:3255
f883  90 01      BCC $f886   A:00 X:00 Y:64 P:27 SP:f9 CYC:3257
f885  60         RTS         A:00 X:00 Y:64 P:27 SP:f9 CYC:3259
d0cb  c8         INY         A:00 X:00 Y:64 P:27 SP:fb CYC:3265
d0cc  a9 40      LDA #$40    A:00 X:00 Y:65 P:25 SP:fb CYC:3267
d0ce  8d 00 02   STA $0200   A:40 X:00 Y:65 P:25 SP:fb CYC:3269
d0d1  20 89 f8   JSR $f889   A:40 X:00 Y:65 P:25 SP:fb CYC:3273
f889  24 01      BIT $01     A:40 X:00 Y:65 P:25 SP:f9 CYC:3279
f88b  a9 40      LDA #$40    A:40 X:00 Y:65 P:e5 SP:f9 CYC:3282
f88d  60         RTS         A:40 X:00 Y:65 P:65 SP:f9 CYC:3284
d0d4  c1 80      CMP ($80,X) A:40 X:00 Y:65 P:65 SP:fb CYC:3290
d0d6  20 8e f8   JSR $f88e   A:40 X:00 Y:65 P:67 SP:fb CYC:3296
f88e  30 07      BMI $f897   A:40 X:00 Y:65 P:67 SP:f9 CYC:3302
f890  90 05      BCC $f897   A:40 X:00 Y:65 P:67 SP:f9 CYC:3304
f892  d0 03      BNE $f897   A:40 X:00 Y:65 P:67 SP:f9 CYC:3306
f894  50 01      BVC $f897   A:40 X:00 Y:65 P:67 SP:f9 CYC:3308
f896  60         RTS         A:40 X:00 Y:65 P:67 SP:f9 CYC:3310
d0d9  c8         INY         A:40 X:00 Y:65 P:67 SP:fb CYC:3316
d0da  48         PHA         A:40 X:00 Y:66 P:65 SP:fb CYC:3318
d0db  a9 3f      LDA #$3f    A:40 X:00 Y:66 P:65 SP:fa CYC:3321
d0dd  8d 00 02   STA $0200   A:3f X:00 Y:66 P:65 SP:fa CYC:3323
d0e0  68         PLA         A:3f X:00 Y:66 P:65 SP:fa CYC:3327
d0e1  20 9a f8   JSR $f89a   A:40 X:00 Y:66 P:65 SP:fb CYC:3331
f89a  b8         CLV         A:40 X:00 Y:66 P:65 SP:f9 CYC:3337
f89b  60         RTS         A:40 X:00 Y:66 P:25 SP:f9 CYC:3339
d0e4  c1 80      CMP ($80,X) A:40 X:00 Y:66 P:25 SP:fb CYC:3345
d0e6  20 9c f8   JSR $f89c   A:40 X:00 Y:66 P:25 SP:fb CYC:3351
f89c  f0 07      BEQ $f8a5   A:40 X:00 Y:66 P:25 SP:f9 CYC:3357
f89e  30 05      BMI $f8a5   A:40 X:00 Y:66 P:25 SP:f9 CYC:3359
f8a0  90 03      BCC $f8a5   A:40 X:00 Y:66 P:25 SP:f9 CYC:3361
f8a2  70 01      BVS $f8a5   A:40 X:00 Y:66 P:25 SP:f9 CYC:3363
f8a4  60         RTS         A:40 X:00 Y:66 P:25 SP:f9 CYC:3365
d0e9  c8         INY         A:40 X:00 Y:66 P:25 SP:fb CYC:3371
d0ea  48         PHA         A:40 X:00 Y:67 P:25 SP:fb CYC:3373
d0eb  a9 41      LDA #$41    A:40 X:00 Y:67 P:25 SP:fa CYC:3376
d0ed  8d 00 02   STA $0200   A:41 X:00 Y:67 P:25 SP:fa CYC:3378
d0f0  68         PLA         A:41 X:00 Y:67 P:25 SP:fa CYC:3382
d0f1  c1 80      CMP ($80,X) A:40 X:00 Y:67 P:25 SP:fb CYC:3386
d0f3  20 a8 f8   JSR $f8a8   A:40 X:00 Y:67 P:a4 SP:fb CYC:3392
f8a8  f0 05      BEQ $f8af   A:40 X:00 Y:67 P:a4 SP:f9 CYC:3398
f8aa  10 03      BPL $f8af   A:40 X:00 Y:67 P:a4 SP:f9 CYC:3400
f8ac  10 01      BPL $f8af   A:40 X:00 Y:67 P:a4 SP:f9 CYC:3402
f8ae  60         RTS         A:40 X:00 Y:67 P:a4 SP:f9 CYC:3404
d0f6  c8         INY         A:40 X:00 Y:67 P:a4 SP:fb CYC:3410
d0f7  48         PHA         A:40 X:00 Y:68 P:24 SP:fb CYC:3412
d0f8  a9 00      LDA #$00    A:40 X:00 Y:68 P:24 SP:fa CYC:3415
d0fa  8d 00 02   STA $0200   A:00 X:00 Y:68 P:26 SP:fa CYC:3417
d0fd  68         PLA         A:00 X:00 Y:68 P:26 SP:fa CYC:3421
d0fe  20 b2 f8   JSR $f8b2   A:40 X:00 Y:68 P:24 SP:fb CYC:3425
f8b2  a9 80      LDA #$80    A:40 X:00 Y:68 P:24 SP:f9 CYC:3431
f8b4  60         RTS         A:80 X:00 Y:68 P:a4 SP:f9 CYC:3433
d101  c1 80      CMP ($80,X) A:80 X:00 Y:68 P:a4 SP:fb CYC:3439
d103  20 b5 f8   JSR $f8b5   A:80 X:00 Y:68 P:a5 SP:fb CYC:3445
f8b5  f0 05      BEQ $f8bc   A:80 X:00 Y:68 P:a5 SP:f9 CYC:3451
f8b7  10 03      BPL $f8bc   A:80 X:00 Y:68 P:a5 SP:f9 CYC:3453
f8b9  90 01      BCC $f8bc   A:80 X:00 Y:68 P:a5 SP:f9 CYC:3455
f8bb  60         RTS         A:80 X:00 Y:68 P:a5 SP:f9 CYC:3457
d106  c8         INY         A:80 X:00 Y:68 P:a5 SP:fb CYC:3463
d107  48         PHA         A:80 X:00 Y:69 P:25 SP:fb CYC:3465
d108  a9 80      LDA #$80    A:80 X:00 Y:69 P:25 SP:fa CYC:3468
d10a  8d 00 02   STA $0200   A:80 X:00 Y:69 P:a5 SP:fa CYC:3470
d10d  68         PLA         A:80 X:00 Y:69 P:a5 SP:fa CYC:3474
d10e  c1 80      CMP ($80,X) A:80 X:00 Y:69 P:a5 SP:fb CYC:3478
d110  20 bf f8   JSR $f8bf   A:80 X:00 Y:69 P:27 SP:fb CYC:3484
f8bf  d0 05      BNE $f8c6   A:80 X:00 Y:69 P:27 SP:f9 CYC:3490
f8c1  30 03      BMI $f8c6   A:80 X:00 Y:69 P:27 SP:f9 CYC:3492
f8c3  90 01      BCC $f8c6   A:80 X:00 Y:69 P:27 SP:f9 CYC:3494
f8c5  60         RTS         A:80 X:00 Y:69 P:27 SP:f9 CYC:3496
d113  c8         INY         A:80 X:00 Y:69 P:27 SP:fb CYC:3502
d114  48         PHA         A:80 X:00 Y:6a P:25 SP:fb CYC:3504
d115  a9 81      LDA #$81    A:80 X:00 Y:6a P:25 SP:fa CYC:3507
d117  8d 00 02   STA $0200   A:81 X:00 Y:6a P:a5 SP:fa CYC:3509
d11a  68         PLA         A:81 X:00 Y:6a P:a5 SP:fa CYC:3513
d11b  c1 80      CMP ($80,X) A:80 X:00 Y:6a P:a5 SP:fb CYC:3517
d11d  20 c9 f8   JSR $f8c9   A:80 X:00 Y:6a P:a4 SP:fb CYC:3523
f8c9  b0 05      BCS $f8d0   A:80 X:00 Y:6a P:a4 SP:f9 CYC:3529
f8cb  f0 03      BEQ $f8d0   A:80 X:00 Y:6a P:a4 SP:f9 CYC:3531
f8cd  10 01      BPL $f8d0   A:80 X:00 Y:6a P:a4 SP:f9 CYC:3533
f8cf  60         RTS         A:80 X:00 Y:6a P:a4 SP:f9 CYC:3535
d120  c8         INY         A:80 X:00 Y:6a P:a4 SP:fb CYC:3541
d121  48         PHA         A:80 X:00 Y:6b P:24 SP:fb CYC:3543
d122  a9 7f      LDA #$7f    A:80 X:00 Y:6b P:24 SP:fa CYC:3546
d124  8d 00 02   STA $0200   A:7f X:00 Y:6b P:24 SP:fa CYC:3548
d127  68         PLA         A:7f X:00 Y:6b P:24 SP:fa CYC:3552
d128  c1 80      CMP ($80,X) A:80 X:00 Y:6b P:a4 SP:fb CYC:3556
d12a  20 d3 f8   JSR $f8d3   A:80 X:00 Y:6b P:25 SP:fb CYC:3562
f8d3  90 05      BCC $f8da   A:80 X:00 Y:6b P:25 SP:f9 CYC:3568
f8d5  f0 03      BEQ $f8da   A:80 X:00 Y:6b P:25 SP:f9 CYC:3570
f8d7  30 01      BMI $f8da   A:80 X:00 Y:6b P:25 SP:f9 CYC:3572
f8d9  60         RTS         A:80 X:00 Y:6b P:25 SP:f9 CYC:3574
d12d  c8         INY         A:80 X:00 Y:6b P:25 SP:fb CYC:3580
d12e  a9 40      LDA #$40    A:80 X:00 Y:6c P:25 SP:fb CYC:3582
d130  8d 00 02   STA $0200   A:40 X:00 Y:6c P:25 SP:fb CYC:3584
d133  20 31 f9   JSR $f931   A:40 X:00 Y:6c P:25 SP:fb CYC:3588
f931  24 01      BIT $01     A:40 X:00 Y:6c P:25 SP:f9 CYC:3594
f933  a9 40      LDA #$40    A:40 X:00 Y:6c P:e5 SP:f9 CYC:3597
f935  38         SEC         A:40 X:00 Y:6c P:65 SP:f9 CYC:3599
f936  60         RTS         A:40 X:00 Y:6c P:65 SP:f9 CYC:3601
d136  e1 80      SBC ($80,X) A:40 X:00 Y:6c P:65 SP:fb CYC:3607
d138  20 37 f9   JSR $f937   A:00 X:00 Y:6c P:27 SP:fb CYC:3613
f937  30 0b      BMI $f944   A:00 X:00 Y:6c P:27 SP:f9 CYC:3619
f939  90 09      BCC $f944   A:00 X:00 Y:6c P:27 SP:f9 CYC:3621
f93b  d0 07      BNE $f944   A:00 X:00 Y:6c P:27 SP:f9 CYC:3623
f93d  70 05      BVS $f944   A:00 X:00 Y:6c P:27 SP:f9 CYC:3625
f93f  c9 00      CMP #$00    A:00 X:00 Y:6c P:27 SP:f9 CYC:3627
f941  d0 01      BNE $f944   A:00 X:00 Y:6c P:27 SP:f9 CYC:3629
f943  60         RTS         A:00 X:00 Y:6c P:27 SP:f9 CYC:3631
d13b  c8         INY         A:00 X:00 Y:6c P:27 SP:fb CYC:3637
d13c  a9 3f      LDA #$3f    A:00 X:00 Y:6d P:25 SP:fb CYC:3639
d13e  8d 00 02   STA $0200   A:3f X:00 Y:6d P:25 SP:fb CYC:3641
d141  20 47 f9   JSR $f947   A:3f X:00 Y:6d P:25 SP:fb CYC:3645
f947  b8         CLV         A:3f X:00 Y:6d P:25 SP:f9 CYC:3651
f948  38         SEC         A:3f X:00 Y:6d P:25 SP:f9 CYC:3653
f949  a9 40      LDA #$40    A:3f X:00 Y:6d P:25 SP:f9 CYC:3655
f94b  60         RTS         A:40 X:00 Y:6d P:25 SP:f9 CYC:3657
d144  e1 80      SBC ($80,X) A:40 X:00 Y:6d P:25 SP:fb CYC:3663
d146  20 4c f9   JSR $f94c   A:01 X:00 Y:6d P:25 SP:fb CYC:3669
f94c  f0 0b      BEQ $f959   A:01 X:00 Y:6d P:25 SP:f9 CYC:3675
f94e  30 09      BMI $f959   A:01 X:00 Y:6d P:25 SP:f9 CYC:3677
f950  90 07      BCC $f959   A:01 X:00 Y:6d P:25 SP:f9 CYC:3679
f952  70 05      BVS $f959   A:01 X:00 Y:6d P:25 SP:f9 CYC:3681
f954  c9 01      CMP #$01    A:01 X:00 Y:6d P:25 SP:f9 CYC:3683
f956  d0 01      BNE $f959   A:01 X:00 Y:6d P:27 SP:f9 CYC:3685
f958  60         RTS         A:01 X:00 Y:6d P:27 SP:f9 CYC:3687
d149  c8         INY         A:01 X:00 Y:6d P:27 SP:fb CYC:3693
d14a  a9 41      LDA #$41    A:01 X:00 Y:6e P:25 SP:fb CYC:3695
d14c  8d 00 02   STA $0200   A:41 X:00 Y:6e P:25 SP:fb CYC:3697
d14f  20 5c f9   JSR $f95c   A:41 X:00 Y:6e P:25 SP:fb CYC:3701
f95c  a9 40      LDA #$40    A:41 X:00 Y:6e P:25 SP:f9 CYC:3707
f95e  38         SEC         A:40 X:00 Y:6e P:25 SP:f9 CYC:3709
f95f  24 01      BIT $01     A:40 X:00 Y:6e P:25 SP:f9 CYC:3711
f961  60         RTS         A:40 X:00 Y:6e P:e5 SP:f9 CYC:3714
d152  e1 80      SBC ($80,X) A:40 X:00 Y:6e P:e5 SP:fb CYC:3720
d154  20 62 f9   JSR $f962   A:ff X:00 Y:6e P:a4 SP:fb CYC:3726
f962  b0 0b      BCS $f96f   A:ff X:00 Y:6e P:a4 SP:f9 CYC:3732
f964  f0 09      BEQ $f96f   A:ff X:00 Y:6e P:a4 SP:f9 CYC:3734
f966  10 07      BPL $f96f   A:ff X:00 Y:6e P:a4 SP:f9 CYC:3736
f968  70 05      BVS $f96f   A:ff X:00 Y:6e P:a4 SP:f9 CYC:3738
f96a  c9 ff      CMP #$ff    A:ff X:00 Y:6e P:a4 SP:f9 CYC:3740
f96c  d0 01      BNE $f96f   A:ff X:00 Y:6e P:27 SP:f9 CYC:3742
f96e  60         RTS         A:ff X:00 Y:6e P:27 SP:f9 CYC:3744
d157  c8         INY         A:ff X:00 Y:6e P:27 SP:fb CYC:3750
d158  a9 00      LDA #$00    A:ff X:00 Y:6f P:25 SP:fb CYC:3752
d15a  8d 00 02   STA $0200   A:00 X:00 Y:6f P:27 SP:fb CYC:3754
d15d  20 72 f9   JSR $f972   A:00 X:00 Y:6f P:27 SP:fb CYC:3758
f972  18         CLC         A:00 X:00 Y:6f P:27 SP:f9 CYC:3764
f973  a9 80      LDA #$80    A:00 X:00 Y:6f P:26 SP:f9 CYC:3766
f975  60         RTS         A:80 X:00 Y:6f P:a4 SP:f9 CYC:3768
d160  e1 80      SBC ($80,X) A:80 X:00 Y:6f P:a4 SP:fb CYC:3774
d162  20 76 f9   JSR $f976   A:7f X:00 Y:6f P:65 SP:fb CYC:3780
f976  90 05      BCC $f97d   A:7f X:00 Y:6f P:65 SP:f9 CYC:3786
f978  c9 7f      CMP #$7f    A:7f X:00 Y:6f P:65 SP:f9 CYC:3788
f97a  d0 01      BNE $f97d   A:7f X:00 Y:6f P:67 SP:f9 CYC:3790
f97c  60         RTS         A:7f X:00 Y:6f P:67 SP:f9 CYC:3792
d165  c8         INY         A:7f X:00 Y:6f P:67 SP:fb CYC:3798
d166  a9 7f      LDA #$7f    A:7f X:00 Y:70 P:65 SP:fb CYC:3800
d168  8d 00 02   STA $0200   A:7f X:00 Y:70 P:65 SP:fb CYC:3802
d16b  20 80 f9   JSR $f980   A:7f X:00 Y:70 P:65 SP:fb CYC:3806
f980  38         SEC         A:7f X:00 Y:70 P:65 SP:f9 CYC:3812
f981  a9 81      LDA #$81    A:7f X:00 Y:70 P:65 SP:f9 CYC:3814
f983  60         RTS         A:81 X:00 Y:70 P:e5 SP:f9 CYC:3816
d16e  e1 80      SBC ($80,X) A:81 X:00 Y:70 P:e5 SP:fb CYC:3822
d170  20 84 f9   JSR $f984   A:02 X:00 Y:70 P:65 SP:fb CYC:3828
f984  50 07      BVC $f98d   A:02 X:00 Y:70 P:65 SP:f9 CYC:3834
f986  90 05      BCC $f98d   A:02 X:00 Y:70 P:65 SP:f9 CYC:3836
f988  c9 02      CMP #$02    A:02 X:00 Y:70 P:65 SP:f9 CYC:3838
f98a  d0 01      BNE $f98d   A:02 X:00 Y:70 P:67 SP:f9 CYC:3840
f98c  60         RTS         A:02 X:00 Y:70 P:67 SP:f9 CYC:3842
d173  60         RTS         A:02 X:00 Y:70 P:67 SP:fb CYC:3848
c612  20 74 d1   JSR $d174   A:02 X:00 Y:70 P:67 SP:fd CYC:3854
d174  a9 55      LDA #$55    A:02 X:00 Y:70 P:67 SP:fb CYC:3860
d176  85 78      STA $78     A:55 X:00 Y:70 P:65 SP:fb CYC:3862
d178  a9 ff      LDA #$ff    A:55 X:00 Y:70 P:65 SP:fb CYC:3865
d17a  85 01      STA $01     A:ff X:00 Y:70 P:e5 SP:fb CYC:3867
d17c  24 01      BIT $01     A:ff X:00 Y:70 P:e5 SP:fb CYC:3870
d17e  a0 11      LDY #$11    A:ff X:00 Y:70 P:e5 SP:fb CYC:3873
d180  a2 23      LDX #$23    A:ff X:00 Y:11 P:65 SP:fb CYC:3875
d182  a9 00      LDA #$00    A:ff X:23 Y:11 P:65 SP:fb CYC:3877
d184  a5 78      LDA $78     A:00 X:23 Y:11 P:67 SP:fb CYC:3879
d186  f0 10      BEQ $d198   A:55 X:23 Y:11 P:65 SP:fb CYC:3882
d188  30 0e      BMI $d198   A:55 X:23 Y:11 P:65 SP:fb CYC:3884
d18a  c9 55      CMP #$55    A:55 X:23 Y:11 P:65 SP:fb CYC:3886
d18c  d0 0a      BNE $d198   A:55 X:23 Y:11 P:67 SP:fb CYC:3888
d18e  c0 11      CPY #$11    A:55 X:23 Y:11 P:67 SP:fb CYC:3890
d190  d0 06      BNE $d198   A:55 X:23 Y:11 P:67 SP:fb CYC:3892
d192  e0 23      CPX #$23    A:55 X:23 Y:11 P:67 SP:fb CYC:3894
d194  50 02      BVC $d198   A:55 X:23 Y:11 P:67 SP:fb CYC:3896
d196  f0 04      BEQ $d19c   A:55 X:23 Y:11 P:67 SP:fb CYC:3898
d19c  a9 46      LDA #$46    A:55 X:23 Y:11 P:67 SP:fb CYC:3901
d19e  24 01      BIT $01     A:46 X:23 Y:11 P:65 SP:fb CYC:3903
d1a0  85 78      STA $78     A:46 X:23 Y:11 P:e5 SP:fb CYC:3906
d1a2  f0 0a      BEQ $d1ae   A:46 X:23 Y:11 P:e5 SP:fb CYC:3909
d1a4  10 08      BPL $d1ae   A:46 X:23 Y:11 P:e5 SP:fb CYC:3911
d1a6  50 06      BVC $d1ae   A:46 X:23 Y:11 P:e5 SP:fb CYC:3913
d1a8  a5 78      LDA $78     A:46 X:23 Y:11 P:e5 SP:fb CYC:3915
d1aa  c9 46      CMP #$46    A:46 X:23 Y:11 P:65 SP:fb CYC:3918
d1ac  f0 04      BEQ $d1b2   A:46 X:23 Y:11 P:67 SP:fb CYC:3920
d1b2  a9 55      LDA #$55    A:46 X:23 Y:11 P:67 SP:fb CYC:3923
d1b4  85 78      STA $78     A:55 X:23 Y:11 P:65 SP:fb CYC:3925
d1b6  24 01      BIT $01     A:55 X:23 Y:11 P:65 SP:fb CYC:3928
d1b8  a9 11      LDA #$11    A:55 X:23 Y:11 P:e5 SP:fb CYC:3931
d1ba  a2 23      LDX #$23    A:11 X:23 Y:11 P:65 SP:fb CYC:3933
d1bc  a0 00      LDY #$00    A:11 X:23 Y:11 P:65 SP:fb CYC:3935
d1be  a4 78      LDY $78     A:11 X:23 Y:00 P:67 SP:fb CYC:3937
d1c0  f0 10      BEQ $d1d2   A:11 X:23 Y:55 P:65 SP:fb CYC:3940
d1c2  30 0e      BMI $d1d2   A:11 X:23 Y:55 P:65 SP:fb CYC:3942
d1c4  c0 55      CPY #$55    A:11 X:23 Y:55 P:65 SP:fb CYC:3944
d1c6  d0 0a      BNE $d1d2   A:11 X:23 Y:55 P:67 SP:fb CYC:3946
d1c8  c9 11      CMP #$11    A:11 X:23 Y:55 P:67 SP:fb CYC:3948
d1ca  d0 06      BNE $d1d2   A:11 X:23 Y:55 P:67 SP:fb CYC:3950
d1cc  e0 23      CPX #$23    A:11 X:23 Y:55 P:67 SP:fb CYC:3952
d1ce  50 02      BVC $d1d2   A:11 X:23 Y:55 P:67 SP:fb CYC:3954
d1d0  f0 04      BEQ $d1d6   A:11 X:23 Y:55 P:67 SP:fb CYC:3956
d1d6  a0 46      LDY #$46    A:11 X:23 Y:55 P:67 SP:fb CYC:3959
d1d8  24 01      BIT $01     A:11 X:23 Y:46 P:65 SP:fb CYC:3961
d1da  84 78      STY $78     A:11 X:23 Y:46 P:e5 SP:fb CYC:3964
d1dc  f0 0a      BEQ $d1e8   A:11 X:23 Y:46 P:e5 SP:fb CYC:3967
d1de  10 08      BPL $d1e8   A:11 X:23 Y:46 P:e5 SP:fb CYC:3969
d1e0  50 06      BVC $d1e8   A:11 X:23 Y:46 P:e5 SP:fb CYC:3971
d1e2  a4 78      LDY $78     A:11 X:23 Y:46 P:e5 SP:fb CYC:3973
d1e4  c0 46      CPY #$46    A:11 X:23 Y:46 P:65 SP:fb CYC:3976
d1e6  f0 04      BEQ $d1ec   A:11 X:23 Y:46 P:67 SP:fb CYC:3978
d1ec  24 01      BIT $01     A:11 X:23 Y:46 P:67 SP:fb CYC:3981
d1ee  a9 55      LDA #$55    A:11 X:23 Y:46 P:e5 SP:fb CYC:3984
d1f0  85 78      STA $78     A:55 X:23 Y:46 P:65 SP:fb CYC:3986
d1f2  a0 11      LDY #$11    A:55 X:23 Y:46 P:65 SP:fb CYC:3989
d1f4  a9 23      LDA #$23    A:55 X:23 Y:11 P:65 SP:fb CYC:3991
d1f6  a2 00      LDX #$00    A:23 X:23 Y:11 P:65 SP:fb CYC:3993
d1f8  a6 78      LDX $78     A:23 X:00 Y:11 P:67 SP:fb CYC:3995
d1fa  f0 10      BEQ $d20c   A:23 X:55 Y:11 P:65 SP:fb CYC:3998
d1fc  30 0e      BMI $d20c   A:23 X:55 Y:11 P:65 SP:fb CYC:4000
d1fe  e0 55      CPX #$55    A:23 X:55 Y:11 P:65 SP:fb CYC:4002
d200  d0 0a      BNE $d20c   A:23 X:55 Y:11 P:67 SP:fb CYC:4004
d202  c0 11      CPY #$11    A:23 X:55 Y:11 P:67 SP:fb CYC:4006
d204  d0 06      BNE $d20c   A:23 X:55 Y:11 P:67 SP:fb CYC:4008
d206  c9 23      CMP #$23    A:23 X:55 Y:11 P:67 SP:fb CYC:4010
d208  50 02      BVC $d20c   A:23 X:55 Y:11 P:67 SP:fb CYC:4012
d20a  f0 04      BEQ $d210   A:23 X:55 Y:11 P:67 SP:fb CYC:4014
d210  a2 46      LDX #$46    A:23 X:55 Y:11 P:67 SP:fb CYC:4017
d212  24 01      BIT $01     A:23 X:46 Y:11 P:65 SP:fb CYC:4019
d214  86 78      STX $78     A:23 X:46 Y:11 P:e5 SP:fb CYC:4022
d216  f0 0a      BEQ $d222   A:23 X:46 Y:11 P:e5 SP:fb CYC:4025
d218  10 08      BPL $d222   A:23 X:46 Y:11 P:e5 SP:fb CYC:4027
d21a  50 06      BVC $d222   A:23 X:46 Y:11 P:e5 SP:fb CYC:4029
d21c  a6 78      LDX $78     A:23 X:46 Y:11 P:e5 SP:fb CYC:4031
d21e  e0 46      CPX #$46    A:23 X:46 Y:11 P:65 SP:fb CYC:4034
d220  f0 04      BEQ $d226   A:23 X:46 Y:11 P:67 SP:fb CYC:4036
d226  a9 c0      LDA #$c0    A:23 X:46 Y:11 P:67 SP:fb CYC:4039
d228  85 78      STA $78     A:c0 X:46 Y:11 P:e5 SP:fb CYC:4041
d22a  a2 33      LDX #$33    A:c0 X:46 Y:11 P:e5 SP:fb CYC:4044
d22c  a0 88      LDY #$88    A:c0 X:33 Y:11 P:65 SP:fb CYC:4046
d22e  a9 05      LDA #$05    A:c0 X:33 Y:88 P:e5 SP:fb CYC:4048
d230  24 78      BIT $78     A:05 X:33 Y:88 P:65 SP:fb CYC:4050
d232  10 10      BPL $d244   A:05 X:33 Y:88 P:e7 SP:fb CYC:4053
d234  50 0e      BVC $d244   A:05 X:33 Y:88 P:e7 SP:fb CYC:4055
d236  d0 0c      BNE $d244   A:05 X:33 Y:88 P:e7 SP:fb CYC:4057
d238  c9 05      CMP #$05    A:05 X:33 Y:88 P:e7 SP:fb CYC:4059
d23a  d0 08      BNE $d244   A:05 X:33 Y:88 P:67 SP:fb CYC:4061
d23c  e0 33      CPX #$33    A:05 X:33 Y:88 P:67 SP:fb CYC:4063
d23e  d0 04      BNE $d244   A:05 X:33 Y:88 P:67 SP:fb CYC:4065
d240  c0 88      CPY #$88    A:05 X:33 Y:88 P:67 SP:fb CYC:4067
d242  f0 04      BEQ $d248   A:05 X:33 Y:88 P:67 SP:fb CYC:4069
d248  a9 03      LDA #$03    A:05 X:33 Y:88 P:67 SP:fb CYC:4072
d24a  85 78      STA $78     A:03 X:33 Y:88 P:65 SP:fb CYC:4074
d24c  a9 01      LDA #$01    A:03 X:33 Y:88 P:65 SP:fb CYC:4077
d24e  24 78      BIT $78     A:01 X:33 Y:88 P:65 SP:fb CYC:4079
d250  30 08      BMI $d25a   A:01 X:33 Y:88 P:25 SP:fb CYC:4082
d252  70 06      BVS $d25a   A:01 X:33 Y:88 P:25 SP:fb CYC:4084
d254  f0 04      BEQ $d25a   A:01 X:33 Y:88 P:25 SP:fb CYC:4086
d256  c9 01      CMP #$01    A:01 X:33 Y:88 P:25 SP:fb CYC:4088
d258  f0 04      BEQ $d25e   A:01 X:33 Y:88 P:27 SP:fb CYC:4090
d25e  a0 7e      LDY #$7e    A:01 X:33 Y:88 P:27 SP:fb CYC:4093
d260  a9 aa      LDA #$aa    A:01 X:33 Y:7e P:25 SP:fb CYC:4095
d262  85 78      STA $78     A:aa X:33 Y:7e P:a5 SP:fb CYC:4097
d264  20 b6 f7   JSR $f7b6   A:aa X:33 Y:7e P:a5 SP:fb CYC:4100
f7b6  18         CLC         A:aa X:33 Y:7e P:a5 SP:f9 CYC:4106
f7b7  a9 ff      LDA #$ff    A:aa X:33 Y:7e P:a4 SP:f9 CYC:4108
f7b9  85 01      STA $01     A:ff X:33 Y:7e P:a4 SP:f9 CYC:4110
f7bb  24 01      BIT $01     A:ff X:33 Y:7e P:a4 SP:f9 CYC:4113
f7bd  a9 55      LDA #$55    A:ff X:33 Y:7e P:e4 SP:f9 CYC:4116
f7bf  60         RTS         A:55 X:33 Y:7e P:64 SP:f9 CYC:4118
d267  05 78      ORA $78     A:55 X:33 Y:7e P:64 SP:fb CYC:4124
d269  20 c0 f7   JSR $f7c0   A:ff X:33 Y:7e P:e4 SP:fb CYC:4127
f7c0  b0 09      BCS $f7cb   A:ff X:33 Y:7e P:e4 SP:f9 CYC:4133
f7c2  10 07      BPL $f7cb   A:ff X:33 Y:7e P:e4 SP:f9 CYC:4135
f7c4  c9 ff      CMP #$ff    A:ff X:33 Y:7e P:e4 SP:f9 CYC:4137
f7c6  d0 03      BNE $f7cb   A:ff X:33 Y:7e P:67 SP:f9 CYC:4139
f7c8  50 01      BVC $f7cb   A:ff X:33 Y:7e P:67 SP:f9 CYC:4141
f7ca  60         RTS         A:ff X:33 Y:7e P:67 SP:f9 CYC:4143
d26c  c8         INY         A:ff X:33 Y:7e P:67 SP:fb CYC:4149
d26d  a9 00      LDA #$00    A:ff X:33 Y:7f P:65 SP:fb CYC:4151
d26f  85 78      STA $78     A:00 X:33 Y:7f P:67 SP:fb CYC:4153
d271  20 ce f7   JSR $f7ce   A:00 X:33 Y:7f P:67 SP:fb CYC:4156
f7ce  38         SEC         A:00 X:33 Y:7f P:67 SP:f9 CYC:4162
f7cf  b8         CLV         A:00 X:33 Y:7f P:67 SP:f9 CYC:4164
f7d0  a9 00      LDA #$00    A:00 X:33 Y:7f P:27 SP:f9 CYC:4166
f7d2  60         RTS         A:00 X:33 Y:7f P:27 SP:f9 CYC:4168
d274  05 78      ORA $78     A:00 X:33 Y:7f P:27 SP:fb CYC:4174
d276  20 d3 f7   JSR $f7d3   A:00 X:33 Y:7f P:27 SP:fb CYC:4177
f7d3  d0 07      BNE $f7dc   A:00 X:33 Y:7f P:27 SP:f9 CYC:4183
f7d5  70 05      BVS $f7dc   A:00 X:33 Y:7f P:27 SP:f9 CYC:4185
f7d7  90 03      BCC $f7dc   A:00 X:33 Y:7f P:27 SP:f9 CYC:4187
f7d9  30 01      BMI $f7dc   A:00 X:33 Y:7f P:27 SP:f9 CYC:4189
f7db  60         RTS         A:00 X:33 Y:7f P:27 SP:f9 CYC:4191
d279  c8         INY         A:00 X:33 Y:7f P:27 SP:fb CYC:4197
d27a  a9 aa      LDA #$aa    A:00 X:33 Y:80 P:a5 SP:fb CYC:4199
d27c  85 78      STA $78     A:aa X:33 Y:80 P:a5 SP:fb CYC:4201
d27e  20 df f7   JSR $f7df   A:aa X:33 Y:80 P:a5 SP:fb CYC:4204
f7df  18         CLC         A:aa X:33 Y:80 P:a5 SP:f9 CYC:4210
f7e0  24 01      BIT $01     A:aa X:33 Y:80 P:a4 SP:f9 CYC:4212
f7e2  a9 55      LDA #$55    A:aa X:33 Y:80 P:e4 SP:f9 CYC:4215
f7e4  60         RTS         A:55 X:33 Y:80 P:64 SP:f9 CYC:4217
d281  25 78      AND $78     A:55 X:33 Y:80 P:64 SP:fb CYC:4223
d283  20 e5 f7   JSR $f7e5   A:00 X:33 Y:80 P:66 SP:fb CYC:4226
f7e5  d0 07      BNE $f7ee   A:00 X:33 Y:80 P:66 SP:f9 CYC:4232
f7e7  50 05      BVC $f7ee   A:00 X:33 Y:80 P:66 SP:f9 CYC:4234
f7e9  b0 03      BCS $f7ee   A:00 X:33 Y:80 P:66 SP:f9 CYC:4236
f7eb  30 01      BMI $f7ee   A:00 X:33 Y:80 P:66 SP:f9 CYC:4238
f7ed  60         RTS         A:00 X:33 Y:80 P:66 SP:f9 CYC:4240
d286  c8         INY         A:00 X:33 Y:80 P:66 SP:fb CYC:4246
d287  a9 ef      LDA #$ef    A:00 X:33 Y:81 P:e4 SP:fb CYC:4248
d289  85 78      STA $78     A:ef X:33 Y:81 P:e4 SP:fb CYC:4250
d28b  20 f1 f7   JSR $f7f1   A:ef X:33 Y:81 P:e4 SP:fb CYC:4253
f7f1  38         SEC         A:ef X:33 Y:81 P:e4 SP:f9 CYC:4259
f7f2  b8         CLV         A:ef X:33 Y:81 P:e5 SP:f9 CYC:4261
f7f3  a9 f8      LDA #$f8    A:ef X:33 Y:81 P:a5 SP:f9 CYC:4263
f7f5  60         RTS         A:f8 X:33 Y:81 P:a5 SP:f9 CYC:4265
d28e  25 78      AND $78     A:f8 X:33 Y:81 P:a5 SP:fb CYC:4271
d290  20 f6 f7   JSR $f7f6   A:e8 X:33 Y:81 P:a5 SP:fb CYC:4274
f7f6  90 09      BCC $f801   A:e8 X:33 Y:81 P:a5 SP:f9 CYC:4280
f7f8  10 07      BPL $f801   A:e8 X:33 Y:81 P:a5 SP:f9 CYC:4282
f7fa  c9 e8      CMP #$e8    A:e8 X:33 Y:81 P:a5 SP:f9 CYC:4284
f7fc  d0 03      BNE $f801   A:e8 X:33 Y:81 P:27 SP:f9 CYC:4286
f7fe  70 01      BVS $f801   A:e8 X:33 Y:81 P:27 SP:f9 CYC:4288
f800  60         RTS         A:e8 X:33 Y:81 P:27 SP:f9 CYC:4290
d293  c8         INY         A:e8 X:33 Y:81 P:27 SP:fb CYC:4296
d294  a9 aa      LDA #$aa    A:e8 X:33 Y:82 P:a5 SP:fb CYC:4298
d296  85 78      STA $78     A:aa X:33 Y:82 P:a5 SP:fb CYC:4300
d298  20 04 f8   JSR $f804   A:aa X:33 Y:82 P:a5 SP:fb CYC:4303
f804  18         CLC         A:aa X:33 Y:82 P:a5 SP:f9 CYC:4309
f805  24 01      BIT $01     A:aa X:33 Y:82 P:a4 SP:f9 CYC:4311
f807  a9 5f      LDA #$5f    A:aa X:33 Y:82 P:e4 SP:f9 CYC:4314
f809  60         RTS         A:5f X:33 Y:82 P:64 SP:f9 CYC:4316
d29b  45 78      EOR $78     A:5f X:33 Y:82 P:64 SP:fb CYC:4322
d29d  20 0a f8   JSR $f80a   A:f5 X:33 Y:82 P:e4 SP:fb CYC:4325
f80a  b0 09      BCS $f815   A:f5 X:33 Y:82 P:e4 SP:f9 CYC:4331
f80c  10 07      BPL $f815   A:f5 X:33 Y:82 P:e4 SP:f9 CYC:4333
f80e  c9 f5      CMP #$f5    A:f5 X:33 Y:82 P:e4 SP:f9 CYC:4335
f810  d0 03      BNE $f815   A:f5 X:33 Y:82 P:67 SP:f9 CYC:4337
f812  50 01      BVC $f815   A:f5 X:33 Y:82 P:67 SP:f9 CYC:4339
f814  60         RTS         A:f5 X:33 Y:82 P:67 SP:f9 CYC:4341
d2a0  c8         INY         A:f5 X:33 Y:82 P:67 SP:fb CYC:4347
d2a1  a9 70      LDA #$70    A:f5 X:33 Y:83 P:e5 SP:fb CYC:4349
d2a3  85 78      STA $78     A:70 X:33 Y:83 P:65 SP:fb CYC:4351
d2a5  20 18 f8   JSR $f818   A:70 X:33 Y:83 P:65 SP:fb CYC:4354
f818  38         SEC         A:70 X:33 Y:83 P:65 SP:f9 CYC:4360
f819  b8         CLV         A:70 X:33 Y:83 P:65 SP:f9 CYC:4362
f81a  a9 70      LDA #$70    A:70 X:33 Y:83 P:25 SP:f9 CYC:4364
f81c  60         RTS         A:70 X:33 Y:83 P:25 SP:f9 CYC:4366
d2a8  45 78      EOR $78     A:70 X:33 Y:83 P:25 SP:fb CYC:4372
d2aa  20 1d f8   JSR $f81d   A:00 X:33 Y:83 P:27 SP:fb CYC:4375
f81d  d0 07      BNE $f826   A:00 X:33 Y:83 P:27 SP:f9 CYC:4381
f81f  70 05      BVS $f826   A:00 X:33 Y:83 P:27 SP:f9 CYC:4383
f821  90 03      BCC $f826   A:00 X:33 Y:83 P:27 SP:f9 CYC:4385
f823  30 01      BMI $f826   A:00 X:33 Y:83 P:27 SP:f9 CYC:4387
f825  60         RTS         A:00 X:33 Y:83 P:27 SP:f9 CYC:4389
d2ad  c8         INY         A:00 X:33 Y:83 P:27 SP:fb CYC:4395
d2ae  a9 69      LDA #$69    A:00 X:33 Y:84 P:a5 SP:fb CYC:4397
d2b0  85 78      STA $78     A:69 X:33 Y:84 P:25 SP:fb CYC:4399
d2b2  20 29 f8   JSR $f829   A:69 X:33 Y:84 P:25 SP:fb CYC:4402
f829  18         CLC         A:69 X:33 Y:84 P:25 SP:f9 CYC:4408
f82a  24 01      BIT $01     A:69 X:33 Y:84 P:24 SP:f9 CYC:4410
f82c  a9 00      LDA #$00    A:69 X:33 Y:84 P:e4 SP:f9 CYC:4413
f82e  60         RTS         A:00 X:33 Y:84 P:66 SP:f9 CYC:4415
d2b5  65 78      ADC $78     A:00 X:33 Y:84 P:66 SP:fb CYC:4421
d2b7  20 2f f8   JSR $f82f   A:69 X:33 Y:84 P:24 SP:fb CYC:4424
f82f  30 09      BMI $f83a   A:69 X:33 Y:84 P:24 SP:f9 CYC:4430
f831  b0 07      BCS $f83a   A:69 X:33 Y:84 P:24 SP:f9 CYC:4432
f833  c9 69      CMP #$69    A:69 X:33 Y:84 P:24 SP:f9 CYC:4434
f835  d0 03      BNE $f83a   A:69 X:33 Y:84 P:27 SP:f9 CYC:4436
f837  70 01      BVS $f83a   A:69 X:33 Y:84 P:27 SP:f9 CYC:4438
f839  60         RTS         A:69 X:33 Y:84 P:27 SP:f9 CYC:4440
d2ba  c8         INY         A:69 X:33 Y:84 P:27 SP:fb CYC:4446
d2bb  20 3d f8   JSR $f83d   A:69 X:33 Y:85 P:a5 SP:fb CYC:4448
f83d  38         SEC         A:69 X:33 Y:85 P:a5 SP:f9 CYC:4454
f83e  24 01      BIT $01     A:69 X:33 Y:85 P:a5 SP:f9 CYC:4456
f840  a9 00      LDA #$00    A:69 X:33 Y:85 P:e5 SP:f9 CYC:4459
f842  60         RTS         A:00 X:33 Y:85 P:67 SP:f9 CYC:4461
d2be  65 78      ADC $78     A:00 X:33 Y:85 P:67 SP:fb CYC:4467
d2c0  20 43 f8   JSR $f843   A:6a X:33 Y:85 P:24 SP:fb CYC:4470
f843  30 09      BMI $f84e   A:6a X:33 Y:85 P:24 SP:f9 CYC:4476
f845  b0 07      BCS $f84e   A:6a X:33 Y:85 P:24 SP:f9 CYC:4478
f847  c9 6a      CMP #$6a    A:6a X:33 Y:85 P:24 SP:f9 CYC:4480
f849  d0 03      BNE $f84e   A:6a X:33 Y:85 P:27 SP:f9 CYC:4482
f84b  70 01      BVS $f84e   A:6a X:33 Y:85 P:27 SP:f9 CYC:4484
f84d  60         RTS         A:6a X:33 Y:85 P:27 SP:f9 CYC:4486
d2c3  c8         INY         A:6a X:33 Y:85 P:27 SP:fb CYC:4492
d2c4  a9 7f      LDA #$7f    A:6a X:33 Y:86 P:a5 SP:fb CYC:4494
d2c6  85 78      STA $78     A:7f X:33 Y:86 P:25 SP:fb CYC:4496
d2c8  20 51 f8   JSR $f851   A:7f X:33 Y:86 P:25 SP:fb CYC:4499
f851  38         SEC         A:7f X:33 Y:86 P:25 SP:f9 CYC:4505
f852  b8         CLV         A:7f X:33 Y:86 P:25 SP:f9 CYC:4507
f853  a9 7f      LDA #$7f    A:7f X:33 Y:86 P:25 SP:f9 CYC:4509
f855  60         RTS         A:7f X:33 Y:86 P:25 SP:f9 CYC:4511
d2cb  65 78      ADC $78     A:7f X:33 Y:86 P:25 SP:fb CYC:4517
d2cd  20 56 f8   JSR $f856   A:ff X:33 Y:86 P:e4 SP:fb CYC:4520
f856  10 09      BPL $f861   A:ff X:33 Y:86 P:e4 SP:f9 CYC:4526
f858  b0 07      BCS $f861   A:ff X:33 Y:86 P:e4 SP:f9 CYC:4528
f85a  c9 ff      CMP #$ff    A:ff X:33 Y:86 P:e4 SP:f9 CYC:4530
f85c  d0 03      BNE $f861   A:ff X:33 Y:86 P:67 SP:f9 CYC:4532
f85e  50 01      BVC $f861   A:ff X:33 Y:86 P:67 SP:f9 CYC:4534
f860  60         RTS         A:ff X:33 Y:86 P:67 SP:f9 CYC:4536
d2d0  c8         INY         A:ff X:33 Y:86 P:67 SP:fb CYC:4542
d2d1  a9 80      LDA #$80    A:ff X:33 Y:87 P:e5 SP:fb CYC:4544
d2d3  85 78      STA $78     A:80 X:33 Y:87 P:e5 SP:fb CYC:4546
d2d5  20 64 f8   JSR $f864   A:80 X:33 Y:87 P:e5 SP:fb CYC:4549
f864  18         CLC         A:80 X:33 Y:87 P:e5 SP:f9 CYC:4555
f865  24 01      BIT $01     A:80 X:33 Y:87 P:e4 SP:f9 CYC:4557
f867  a9 7f      LDA #$7f    A:80 X:33 Y:87 P:e4 SP:f9 CYC:4560
f869  60         RTS         A:7f X:33 Y:87 P:64 SP:f9 CYC:4562
d2d8  65 78      ADC $78     A:7f X:33 Y:87 P:64 SP:fb CYC:4568
d2da  20 6a f8   JSR $f86a   A:ff X:33 Y:87 P:a4 SP:fb CYC:4571
f86a  10 09      BPL $f875   A:ff X:33 Y:87 P:a4 SP:f9 CYC:4577
f86c  b0 07      BCS $f875   A:ff X:33 Y:87 P:a4 SP:f9 CYC:4579
f86e  c9 ff      CMP #$ff    A:ff X:33 Y:87 P:a4 SP:f9 CYC:4581
f870  d0 03      BNE $f875   A:ff X:33 Y:87 P:27 SP:f9 CYC:4583
f872  70 01      BVS $f875   A:ff X:33 Y:87 P:27 SP:f9 CYC:4585
f874  60         RTS         A:ff X:33 Y:87 P:27 SP:f9 CYC:4587
d2dd  c8         INY         A:ff X:33 Y:87 P:27 SP:fb CYC:4593
d2de  20 78 f8   JSR $f878   A:ff X:33 Y:88 P:a5 SP:fb CYC:4595
f878  38         SEC         A:ff X:33 Y:88 P:a5 SP:f9 CYC:4601
f879  b8         CLV         A:ff X:33 Y:88 P:a5 SP:f9 CYC:4603
f87a  a9 7f      LDA #$7f    A:ff X:33 Y:88 P:a5 SP:f9 CYC:4605
f87c  60         RTS         A:7f X:33 Y:88 P:25 SP:f9 CYC:4607
d2e1  65 78      ADC $78     A:7f X:33 Y:88 P:25 SP:fb CYC:4613
d2e3  20 7d f8   JSR $f87d   A:00 X:33 Y:88 P:27 SP:fb CYC:4616
f87d  d0 07      BNE $f886   A:00 X:33 Y:88 P:27 SP:f9 CYC:4622
f87f  30 05      BMI $f886   A:00 X:33 Y:88 P:27 SP:f9 CYC:4624
f881  70 03      BVS $f886   A:00 X:33 Y:88 P:27 SP:f9 CYC:4626
f883  90 01      BCC $f886   A:00 X:33 Y:88 P:27 SP:f9 CYC:4628
f885  60         RTS         A:00 X:33 Y:88 P:27 SP:f9 CYC:4630
d2e6  c8         INY         A:00 X:33 Y:88 P:27 SP:fb CYC:4636
d2e7  a9 40      LDA #$40    A:00 X:33 Y:89 P:a5 SP:fb CYC:4638
d2e9  85 78      STA $78     A:40 X:33 Y:89 P:25 SP:fb CYC:4640
d2eb  20 89 f8   JSR $f889   A:40 X:33 Y:89 P:25 SP:fb CYC:4643
f889  24 01      BIT $01     A:40 X:33 Y:89 P:25 SP:f9 CYC:4649
f88b  a9 40      LDA #$40    A:40 X:33 Y:89 P:e5 SP:f9 CYC:4652
f88d  60         RTS         A:40 X:33 Y:89 P:65 SP:f9 CYC:4654
d2ee  c5 78      CMP $78     A:40 X:33 Y:89 P:65 SP:fb CYC:4660
d2f0  20 8e f8   JSR $f88e   A:40 X:33 Y:89 P:67 SP:fb CYC:4663
f88e  30 07      BMI $f897   A:40 X:33 Y:89 P:67 SP:f9 CYC:4669
f890  90 05      BCC $f897   A:40 X:33 Y:89 P:67 SP:f9 CYC:4671
f892  d0 03      BNE $f897   A:40 X:33 Y:89 P:67 SP:f9 CYC:4673
f894  50 01      BVC $f897   A:40 X:33 Y:89 P:67 SP:f9 CYC:4675
f896  60         RTS         A:40 X:33 Y:89 P:67 SP:f9 CYC:4677
d2f3  c8         INY         A:40 X:33 Y:89 P:67 SP:fb CYC:4683
d2f4  48         PHA         A:40 X:33 Y:8a P:e5 SP:fb CYC:4685
d2f5  a9 3f      LDA #$3f    A:40 X:33 Y:8a P:e5 SP:fa CYC:4688
d2f7  85 78      STA $78     A:3f X:33 Y:8a P:65 SP:fa CYC:4690
d2f9  68         PLA         A:3f X:33 Y:8a P:65 SP:fa CYC:4693
d2fa  20 9a f8   JSR $f89a   A:40 X:33 Y:8a P:65 SP:fb CYC:4697
f89a  b8         CLV         A:40 X:33 Y:8a P:65 SP:f9 CYC:4703
f89b  60         RTS         A:40 X:33 Y:8a P:25 SP:f9 CYC:4705
d2fd  c5 78      CMP $78     A:40 X:33 Y:8a P:25 SP:fb CYC:4711
d2ff  20 9c f8   JSR $f89c   A:40 X:33 Y:8a P:25 SP:fb CYC:4714
f89c  f0 07      BEQ $f8a5   A:40 X:33 Y:8a P:25 SP:f9 CYC:4720
f89e  30 05      BMI $f8a5   A:40 X:33 Y:8a P:25 SP:f9 CYC:4722
f8a0  90 03      BCC $f8a5   A:40 X:33 Y:8a P:25 SP:f9 CYC:4724
f8a2  70 01      BVS $f8a5   A:40 X:33 Y:8a P:25 SP:f9 CYC:4726
f8a4  60         RTS         A:40 X:33 Y:8a P:25 SP:f9 CYC:4728
d302  c8         INY         A:40 X:33 Y:8a P:25 SP:fb CYC:4734
d303  48         PHA         A:40 X:33 Y:8b P:a5 SP:fb CYC:4736
d304  a9 41      LDA #$41    A:40 X:33 Y:8b P:a5 SP:fa CYC:4739
d306  85 78      STA $78     A:41 X:33 Y:8b P:25 SP:fa CYC:4741
d308  68         PLA         A:41 X:33 Y:8b P:25 SP:fa CYC:4744
d309  c5 78      CMP $78     A:40 X:33 Y:8b P:25 SP:fb CYC:4748
d30b  20 a8 f8   JSR $f8a8   A:40 X:33 Y:8b P:a4 SP:fb CYC:4751
f8a8  f0 05      BEQ $f8af   A:40 X:33 Y:8b P:a4 SP:f9 CYC:4757
f8aa  10 03      BPL $f8af   A:40 X:33 Y:8b P:a4 SP:f9 CYC:4759
f8ac  10 01      BPL $f8af   A:40 X:33 Y:8b P:a4 SP:f9 CYC:4761
f8ae  60         RTS         A:40 X:33 Y:8b P:a4 SP:f9 CYC:4763
d30e  c8         INY         A:40 X:33 Y:8b P:a4 SP:fb CYC:4769
d30f  48         PHA         A:40 X:33 Y:8c P:a4 SP:fb CYC:4771
d310  a9 00      LDA #$00    A:40 X:33 Y:8c P:a4 SP:fa CYC:4774
d312  85 78      STA $78     A:00 X:33 Y:8c P:26 SP:fa CYC:4776
d314  68         PLA         A:00 X:33 Y:8c P:26 SP:fa CYC:4779
d315  20 b2 f8   JSR $f8b2   A:40 X:33 Y:8c P:24 SP:fb CYC:4783
f8b2  a9 80      LDA #$80    A:40 X:33 Y:8c P:24 SP:f9 CYC:4789
f8b4  60         RTS         A:80 X:33 Y:8c P:a4 SP:f9 CYC:4791
d318  c5 78      CMP $78     A:80 X:33 Y:8c P:a4 SP:fb CYC:4797
d31a  20 b5 f8   JSR $f8b5   A:80 X:33 Y:8c P:a5 SP:fb CYC:4800
f8b5  f0 05      BEQ $f8bc   A:80 X:33 Y:8c P:a5 SP:f9 CYC:4806
f8b7  10 03      BPL $f8bc   A:80 X:33 Y:8c P:a5 SP:f9 CYC:4808
f8b9  90 01      BCC $f8bc   A:80 X:33 Y:8c P:a5 SP:f9 CYC:4810
f8bb  60         RTS         A:80 X:33 Y:8c P:a5 SP:f9 CYC:4812
d31d  c8         INY         A:80 X:33 Y:8c P:a5 SP:fb CYC:4818
d31e  48         PHA         A:80 X:33 Y:8d P:a5 SP:fb CYC:4820
d31f  a9 80      LDA #$80    A:80 X:33 Y:8d P:a5 SP:fa CYC:4823
d321  85 78      STA $78     A:80 X:33 Y:8d P:a5 SP:fa CYC:4825
d323  68         PLA         A:80 X:33 Y:8d P:a5 SP:fa CYC:4828
d324  c5 78      CMP $78     A:80 X:33 Y:8d P:a5 SP:fb CYC:4832
d326  20 bf f8   JSR $f8bf   A:80 X:33 Y:8d P:27 SP:fb CYC:4835
f8bf  d0 05      BNE $f8c6   A:80 X:33 Y:8d P:27 SP:f9 CYC:4841
f8c1  30 03      BMI $f8c6   A:80 X:33 Y:8d P:27 SP:f9 CYC:4843
f8c3  90 01      BCC $f8c6   A:80 X:33 Y:8d P:27 SP:f9 CYC:4845
f8c5  60         RTS         A:80 X:33 Y:8d P:27 SP:f9 CYC:4847
d329  c8         INY         A:80 X:33 Y:8d P:27 SP:fb CYC:4853
d32a  48         PHA         A:80 X:33 Y:8e P:a5 SP:fb CYC:4855
d32b  a9 81      LDA #$81    A:80 X:33 Y:8e P:a5 SP:fa CYC:4858
d32d  85 78      STA $78     A:81 X:33 Y:8e P:a5 SP:fa CYC:4860
d32f  68         PLA         A:81 X:33 Y:8e P:a5 SP:fa CYC:4863
d330  c5 78      CMP $78     A:80 X:33 Y:8e P:a5 SP:fb CYC:4867
d332  20 c9 f8   JSR $f8c9   A:80 X:33 Y:8e P:a4 SP:fb CYC:4870
f8c9  b0 05      BCS $f8d0   A:80 X:33 Y:8e P:a4 SP:f9 CYC:4876
f8cb  f0 03      BEQ $f8d0   A:80 X:33 Y:8e P:a4 SP:f9 CYC:4878
f8cd  10 01      BPL $f8d0   A:80 X:33 Y:8e P:a4 SP:f9 CYC:4880
f8cf  60         RTS         A:80 X:33 Y:8e P:a4 SP:f9 CYC:4882
d335  c8         INY         A:80 X:33 Y:8e P:a4 SP:fb CYC:4888
d336  48         PHA         A:80 X:33 Y:8f P:a4 SP:fb CYC:4890
d337  a9 7f      LDA #$7f    A:80 X:33 Y:8f P:a4 SP:fa CYC:4893
d339  85 78      STA $78     A:7f X:33 Y:8f P:24 SP:fa CYC:4895
d33b  68         PLA         A:7f X:33 Y:8f P:24 SP:fa CYC:4898
d33c  c5 78      CMP $78     A:80 X:33 Y:8f P:a4 SP:fb CYC:4902
d33e  20 d3 f8   JSR $f8d3   A:80 X:33 Y:8f P:25 SP:fb CYC:4905
f8d3  90 05      BCC $f8da   A:80 X:33 Y:8f P:25 SP:f9 CYC:4911
f8d5  f0 03      BEQ $f8da   A:80 X:33 Y:8f P:25 SP:f9 CYC:4913
f8d7  30 01      BMI $f8da   A:80 X:33 Y:8f P:25 SP:f9 CYC:4915
f8d9  60         RTS         A:80 X:33 Y:8f P:25 SP:f9 CYC:4917
d341  c8         INY         A:80 X:33 Y:8f P:25 SP:fb CYC:4923
d342  a9 40      LDA #$40    A:80 X:33 Y:90 P:a5 SP:fb CYC:4925
d344  85 78      STA $78     A:40 X:33 Y:90 P:25 SP:fb CYC:4927
d346  20 31 f9   JSR $f931   A:40 X:33 Y:90 P:25 SP:fb CYC:4930
f931  24 01      BIT $01     A:40 X:33 Y:90 P:25 SP:f9 CYC:4936
f933  a9 40      LDA #$40    A:40 X:33 Y:90 P:e5 SP:f9 CYC:4939
f935  38         SEC         A:40 X:33 Y:90 P:65 SP:f9 CYC:4941
f936  60         RTS         A:40 X:33 Y:90 P:65 SP:f9 CYC:4943
d349  e5 78      SBC $78     A:40 X:33 Y:90 P:65 SP:fb CYC:4949
d34b  20 37 f9   JSR $f937   A:00 X:33 Y:90 P:27 SP:fb CYC:4952
f937  30 0b      BMI $f944   A:00 X:33 Y:90 P:27 SP:f9 CYC:4958
f939  90 09      BCC $f944   A:00 X:33 Y:90 P:27 SP:f9 CYC:4960
f93b  d0 07      BNE $f944   A:00 X:33 Y:90 P:27 SP:f9 CYC:4962
f93d  70 05      BVS $f944   A:00 X:33 Y:90 P:27 SP:f9 CYC:4964
f93f  c9 00      CMP #$00    A:00 X:33 Y:90 P:27 SP:f9 CYC:4966
f941  d0 01      BNE $f944   A:00 X:33 Y:90 P:27 SP:f9 CYC:4968
f943  60         RTS         A:00 X:33 Y:90 P:27 SP:f9 CYC:4970
d34e  c8         INY         A:00 X:33 Y:90 P:27 SP:fb CYC:4976
d34f  a9 3f      LDA #$3f    A:00 X:33 Y:91 P:a5 SP:fb CYC:4978
d351  85 78      STA $78     A:3f X:33 Y:91 P:25 SP:fb CYC:4980
d353  20 47 f9   JSR $f947   A:3f X:33 Y:91 P:25 SP:fb CYC:4983
f947  b8         CLV         A:3f X:33 Y:91 P:25 SP:f9 CYC:4989
f948  38         SEC         A:3f X:33 Y:91 P:25 SP:f9 CYC:4991
f949  a9 40      LDA #$40    A:3f X:33 Y:91 P:25 SP:f9 CYC:4993
f94b  60         RTS         A:40 X:33 Y:91 P:25 SP:f9 CYC:4995
d356  e5 78      SBC $78     A:40 X:33 Y:91 P:25 SP:fb CYC:5001
d358  20 4c f9   JSR $f94c   A:01 X:33 Y:91 P:25 SP:fb CYC:5004
f94c  f0 0b      BEQ $f959   A:01 X:33 Y:91 P:25 SP:f9 CYC:5010
f94e  30 09      BMI $f959   A:01 X:33 Y:91 P:25 SP:f9 CYC:5012
f950  90 07      BCC $f959   A:01 X:33 Y:91 P:25 SP:f9 CYC:5014
f952  70 05      BVS $f959   A:01 X:33 Y:91 P:25 SP:f9 CYC:5016
f954  c9 01      CMP #$01    A:01 X:33 Y:91 P:25 SP:f9 CYC:5018
f956  d0 01      BNE $f959   A:01 X:33 Y:91 P:27 SP:f9 CYC:5020
f958  60         RTS         A:01 X:33 Y:91 P:27 SP:f9 CYC:5022
d35b  c8         INY         A:01 X:33 Y:91 P:27 SP:fb CYC:5028
d35c  a9 41      LDA #$41    A:01 X:33 Y:92 P:a5 SP:fb CYC:5030
d35e  85 78      STA $78     A:41 X:33 Y:92 P:25 SP:fb CYC:5032
d360  20 5c f9   JSR $f95c   A:41 X:33 Y:92 P:25 SP:fb CYC:5035
f95c  a9 40      LDA #$40    A:41 X:33 Y:92 P:25 SP:f9 CYC:5041
f95e  38         SEC         A:40 X:33 Y:92 P:25 SP:f9 CYC:5043
f95f  24 01      BIT $01     A:40 X:33 Y:92 P:25 SP:f9 CYC:5045
f961  60         RTS         A:40 X:33 Y:92 P:e5 SP:f9 CYC:5048
d363  e5 78      SBC $78     A:40 X:33 Y:92 P:e5 SP:fb CYC:5054
d365  20 62 f9   JSR $f962   A:ff X:33 Y:92 P:a4 SP:fb CYC:5057
f962  b0 0b      BCS $f96f   A:ff X:33 Y:92 P:a4 SP:f9 CYC:5063
f964  f0 09      BEQ $f96f   A:ff X:33 Y:92 P:a4 SP:f9 CYC:5065
f966  10 07      BPL $f96f   A:ff X:33 Y:92 P:a4 SP:f9 CYC:5067
f968  70 05      BVS $f96f   A:ff X:33 Y:92 P:a4 SP:f9 CYC:5069
f96a  c9 ff      CMP #$ff    A:ff X:33 Y:92 P:a4 SP:f9 CYC:5071
f96c  d0 01      BNE $f96f   A:ff X:33 Y:92 P:27 SP:f9 CYC:5073
f96e  60         RTS         A:ff X:33 Y:92 P:27 SP:f9 CYC:5075
d368  c8         INY         A:ff X:33 Y:92 P:27 SP:fb CYC:5081
d369  a9 00      LDA #$00    A:ff X:33 Y:93 P:a5 SP:fb CYC:5083
d36b  85 78      STA $78     A:00 X:33 Y:93 P:27 SP:fb CYC:5085
d36d  20 72 f9   JSR $f972   A:00 X:33 Y:93 P:27 SP:fb CYC:5088
f972  18         CLC         A:00 X:33 Y:93 P:27 SP:f9 CYC:5094
f973  a9 80      LDA #$80    A:00 X:33 Y:93 P:26 SP:f9 CYC:5096
f975  60         RTS         A:80 X:33 Y:93 P:a4 SP:f9 CYC:5098
d370  e5 78      SBC $78     A:80 X:33 Y:93 P:a4 SP:fb CYC:5104
d372  20 76 f9   JSR $f976   A:7f X:33 Y:93 P:65 SP:fb CYC:5107
f976  90 05      BCC $f97d   A:7f X:33 Y:93 P:65 SP:f9 CYC:5113
f978  c9 7f      CMP #$7f    A:7f X:33 Y:93 P:65 SP:f9 CYC:5115
f97a  d0 01      BNE $f97d   A:7f X:33 Y:93 P:67 SP:f9 CYC:5117
f97c  60         RTS         A:7f X:33 Y:93 P:67 SP:f9 CYC:5119
d375  c8         INY         A:7f X:33 Y:93 P:67 SP:fb CYC:5125
d376  a9 7f      LDA #$7f    A:7f X:33 Y:94 P:e5 SP:fb CYC:5127
d378  85 78      STA $78     A:7f X:33 Y:94 P:65 SP:fb CYC:5129
d37a  20 80 f9   JSR $f980   A:7f X:33 Y:94 P:65 SP:fb CYC:5132
f980  38         SEC         A:7f X:33 Y:94 P:65 SP:f9 CYC:5138
f981  a9 81      LDA #$81    A:7f X:33 Y:94 P:65 SP:f9 CYC:5140
f983  60         RTS         A:81 X:33 Y:94 P:e5 SP:f9 CYC:5142
d37d  e5 78      SBC $78     A:81 X:33 Y:94 P:e5 SP:fb CYC:5148
d37f  20 84 f9   JSR $f984   A:02 X:33 Y:94 P:65 SP:fb CYC:5151
f984  50 07      BVC $f98d   A:02 X:33 Y:94 P:65 SP:f9 CYC:5157
f986  90 05      BCC $f98d   A:02 X:33 Y:94 P:65 SP:f9 CYC:5159
f988  c9 02      CMP #$02    A:02 X:33 Y:94 P:65 SP:f9 CYC:5161
f98a  d0 01      BNE $f98d   A:02 X:33 Y:94 P:67 SP:f9 CYC:5163
f98c  60         RTS         A:02 X:33 Y:94 P:67 SP:f9 CYC:5165
d382  c8         INY         A:02 X:33 Y:94 P:67 SP:fb CYC:5171
d383  a9 40      LDA #$40    A:02 X:33 Y:95 P:e5 SP:fb CYC:5173
d385  85 78      STA $78     A:40 X:33 Y:95 P:65 SP:fb CYC:5175
d387  20 89 f8   JSR $f889   A:40 X:33 Y:95 P:65 SP:fb CYC:5178
f889  24 01      BIT $01     A:40 X:33 Y:95 P:65 SP:f9 CYC:5184
f88b  a9 40      LDA #$40    A:40 X:33 Y:95 P:e5 SP:f9 CYC:5187
f88d  60         RTS         A:40 X:33 Y:95 P:65 SP:f9 CYC:5189
d38a  aa         TAX         A:40 X:33 Y:95 P:65 SP:fb CYC:5195
d38b  e4 78      CPX $78     A:40 X:40 Y:95 P:65 SP:fb CYC:5197
d38d  20 8e f8   JSR $f88e   A:40 X:40 Y:95 P:67 SP:fb CYC:5200
f88e  30 07      BMI $f897   A:40 X:40 Y:95 P:67 SP:f9 CYC:5206
f890  90 05      BCC $f897   A:40 X:40 Y:95 P:67 SP:f9 CYC:5208
f892  d0 03      BNE $f897   A:40 X:40 Y:95 P:67 SP:f9 CYC:5210
f894  50 01      BVC $f897   A:40 X:40 Y:95 P:67 SP:f9 CYC:5212
f896  60         RTS         A:40 X:40 Y:95 P:67 SP:f9 CYC:5214
d390  c8         INY         A:40 X:40 Y:95 P:67 SP:fb CYC:5220
d391  a9 3f      LDA #$3f    A:40 X:40 Y:96 P:e5 SP:fb CYC:5222
d393  85 78      STA $78     A:3f X:40 Y:96 P:65 SP:fb CYC:5224
d395  20 9a f8   JSR $f89a   A:3f X:40 Y:96 P:65 SP:fb CYC:5227
f89a  b8         CLV         A:3f X:40 Y:96 P:65 SP:f9 CYC:5233
f89b  60         RTS         A:3f X:40 Y:96 P:25 SP:f9 CYC:5235
d398  e4 78      CPX $78     A:3f X:40 Y:96 P:25 SP:fb CYC:5241
d39a  20 9c f8   JSR $f89c   A:3f X:40 Y:96 P:25 SP:fb CYC:5244
f89c  f0 07      BEQ $f8a5   A:3f X:40 Y:96 P:25 SP:f9 CYC:5250
f89e  30 05      BMI $f8a5   A:3f X:40 Y:96 P:25 SP:f9 CYC:5252
f8a0  90 03      BCC $f8a5   A:3f X:40 Y:96 P:25 SP:f9 CYC:5254
f8a2  70 01      BVS $f8a5   A:3f X:40 Y:96 P:25 SP:f9 CYC:5256
f8a4  60         RTS         A:3f X:40 Y:96 P:25 SP:f9 CYC:5258
d39d  c8         INY         A:3f X:40 Y:96 P:25 SP:fb CYC:5264
d39e  a9 41      LDA #$41    A:3f X:40 Y:97 P:a5 SP:fb CYC:5266
d3a0  85 78      STA $78     A:41 X:40 Y:97 P:25 SP:fb CYC:5268
d3a2  e4 78      CPX $78     A:41 X:40 Y:97 P:25 SP:fb CYC:5271
d3a4  20 a8 f8   JSR $f8a8   A:41 X:40 Y:97 P:a4 SP:fb CYC:5274
f8a8  f0 05      BEQ $f8af   A:41 X:40 Y:97 P:a4 SP:f9 CYC:5280
f8aa  10 03      BPL $f8af   A:41 X:40 Y:97 P:a4 SP:f9 CYC:5282
f8ac  10 01      BPL $f8af   A:41 X:40 Y:97 P:a4 SP:f9 CYC:5284
f8ae  60         RTS         A:41 X:40 Y:97 P:a4 SP:f9 CYC:5286
d3a7  c8         INY         A:41 X:40 Y:97 P:a4 SP:fb CYC:5292
d3a8  a9 00      LDA #$00    A:41 X:40 Y:98 P:a4 SP:fb CYC:5294
d3aa  85 78      STA $78     A:00 X:40 Y:98 P:26 SP:fb CYC:5296
d3ac  20 b2 f8   JSR $f8b2   A:00 X:40 Y:98 P:26 SP:fb CYC:5299
f8b2  a9 80      LDA #$80    A:00 X:40 Y:98 P:26 SP:f9 CYC:5305
f8b4  60         RTS         A:80 X:40 Y:98 P:a4 SP:f9 CYC:5307
d3af  aa         TAX         A:80 X:40 Y:98 P:a4 SP:fb CYC:5313
d3b0  e4 78      CPX $78     A:80 X:80 Y:98 P:a4 SP:fb CYC:5315
d3b2  20 b5 f8   JSR $f8b5   A:80 X:80 Y:98 P:a5 SP:fb CYC:5318
f8b5  f0 05      BEQ $f8bc   A:80 X:80 Y:98 P:a5 SP:f9 CYC:5324
f8b7  10 03      BPL $f8bc   A:80 X:80 Y:98 P:a5 SP:f9 CYC:5326
f8b9  90 01      BCC $f8bc   A:80 X:80 Y:98 P:a5 SP:f9 CYC:5328
f8bb  60         RTS         A:80 X:80 Y:98 P:a5 SP:f9 CYC:5330
d3b5  c8         INY         A:80 X:80 Y:98 P:a5 SP:fb CYC:5336
d3b6  a9 80      LDA #$80    A:80 X:80 Y:99 P:a5 SP:fb CYC:5338
d3b8  85 78      STA $78     A:80 X:80 Y:99 P:a5 SP:fb CYC:5340
d3ba  e4 78      CPX $78     A:80 X:80 Y:99 P:a5 SP:fb CYC:5343
d3bc  20 bf f8   JSR $f8bf   A:80 X:80 Y:99 P:27 SP:fb CYC:5346
f8bf  d0 05      BNE $f8c6   A:80 X:80 Y:99 P:27 SP:f9 CYC:5352
f8c1  30 03      BMI $f8c6   A:80 X:80 Y:99 P:27 SP:f9 CYC:5354
f8c3  90 01      BCC $f8c6   A:80 X:80 Y:99 P:27 SP:f9 CYC:5356
f8c5  60         RTS         A:80 X:80 Y:99 P:27 SP:f9 CYC:5358
d3bf  c8         INY         A:80 X:80 Y:99 P:27 SP:fb CYC:5364
d3c0  a9 81      LDA #$81    A:80 X:80 Y:9a P:a5 SP:fb CYC:5366
d3c2  85 78      STA $78     A:81 X:80 Y:9a P:a5 SP:fb CYC:5368
d3c4  e4 78      CPX $78     A:81 X:80 Y:9a P:a5 SP:fb CYC:5371
d3c6  20 c9 f8   JSR $f8c9   A:81 X:80 Y:9a P:a4 SP:fb CYC:5374
f8c9  b0 05      BCS $f8d0   A:81 X:80 Y:9a P:a4 SP:f9 CYC:5380
f8cb  f0 03      BEQ $f8d0   A:81 X:80 Y:9a P:a4 SP:f9 CYC:5382
f8cd  10 01      BPL $f8d0   A:81 X:80 Y:9a P:a4 SP:f9 CYC:5384
f8cf  60         RTS         A:81 X:80 Y:9a P:a4 SP:f9 CYC:5386
d3c9  c8         INY         A:81 X:80 Y:9a P:a4 SP:fb CYC:5392
d3ca  a9 7f      LDA #$7f    A:81 X:80 Y:9b P:a4 SP:fb CYC:5394
d3cc  85 78      STA $78     A:7f X:80 Y:9b P:24 SP:fb CYC:5396
d3ce  e4 78      CPX $78     A:7f X:80 Y:9b P:24 SP:fb CYC:5399
d3d0  20 d3 f8   JSR $f8d3   A:7f X:80 Y:9b P:25 SP:fb CYC:5402
f8d3  90 05      BCC $f8da   A:7f X:80 Y:9b P:25 SP:f9 CYC:5408
f8d5  f0 03      BEQ $f8da   A:7f X:80 Y:9b P:25 SP:f9 CYC:5410
f8d7  30 01      BMI $f8da   A:7f X:80 Y:9b P:25 SP:f9 CYC:5412
f8d9  60         RTS         A:7f X:80 Y:9b P:25 SP:f9 CYC:5414
d3d3  c8         INY         A:7f X:80 Y:9b P:25 SP:fb CYC:5420
d3d4  98         TYA         A:7f X:80 Y:9c P:a5 SP:fb CYC:5422
d3d5  aa         TAX         A:9c X:80 Y:9c P:a5 SP:fb CYC:5424
d3d6  a9 40      LDA #$40    A:9c X:9c Y:9c P:a5 SP:fb CYC:5426
d3d8  85 78      STA $78     A:40 X:9c Y:9c P:25 SP:fb CYC:5428
d3da  20 dd f8   JSR $f8dd   A:40 X:9c Y:9c P:25 SP:fb CYC:5431
f8dd  24 01      BIT $01     A:40 X:9c Y:9c P:25 SP:f9 CYC:5437
f8df  a0 40      LDY #$40    A:40 X:9c Y:9c P:e5 SP:f9 CYC:5440
f8e1  60         RTS         A:40 X:9c Y:40 P:65 SP:f9 CYC:5442
d3dd  c4 78      CPY $78     A:40 X:9c Y:40 P:65 SP:fb CYC:5448
d3df  20 e2 f8   JSR $f8e2   A:40 X:9c Y:40 P:67 SP:fb CYC:5451
f8e2  30 07      BMI $f8eb   A:40 X:9c Y:40 P:67 SP:f9 CYC:5457
f8e4  90 05      BCC $f8eb   A:40 X:9c Y:40 P:67 SP:f9 CYC:5459
f8e6  d0 03      BNE $f8eb   A:40 X:9c Y:40 P:67 SP:f9 CYC:5461
f8e8  50 01      BVC $f8eb   A:40 X:9c Y:40 P:67 SP:f9 CYC:5463
f8ea  60         RTS         A:40 X:9c Y:40 P:67 SP:f9 CYC:5465
d3e2  e8         INX         A:40 X:9c Y:40 P:67 SP:fb CYC:5471
d3e3  a9 3f      LDA #$3f    A:40 X:9d Y:40 P:e5 SP:fb CYC:5473
d3e5  85 78      STA $78     A:3f X:9d Y:40 P:65 SP:fb CYC:5475
d3e7  20 ee f8   JSR $f8ee   A:3f X:9d Y:40 P:65 SP:fb CYC:5478
f8ee  b8         CLV         A:3f X:9d Y:40 P:65 SP:f9 CYC:5484
f8ef  60         RTS         A:3f X:9d Y:40 P:25 SP:f9 CYC:5486
d3ea  c4 78      CPY $78     A:3f X:9d Y:40 P:25 SP:fb CYC:5492
d3ec  20 f0 f8   JSR $f8f0   A:3f X:9d Y:40 P:25 SP:fb CYC:5495
f8f0  f0 07      BEQ $f8f9   A:3f X:9d Y:40 P:25 SP:f9 CYC:5501
f8f2  30 05      BMI $f8f9   A:3f X:9d Y:40 P:25 SP:f9 CYC:5503
f8f4  90 03      BCC $f8f9   A:3f X:9d Y:40 P:25 SP:f9 CYC:5505
f8f6  70 01      BVS $f8f9   A:3f X:9d Y:40 P:25 SP:f9 CYC:5507
f8f8  60         RTS         A:3f X:9d Y:40 P:25 SP:f9 CYC:5509
d3ef  e8         INX         A:3f X:9d Y:40 P:25 SP:fb CYC:5515
d3f0  a9 41      LDA #$41    A:3f X:9e Y:40 P:a5 SP:fb CYC:5517
d3f2  85 78      STA $78     A:41 X:9e Y:40 P:25 SP:fb CYC:5519
d3f4  c4 78      CPY $78     A:41 X:9e Y:40 P:25 SP:fb CYC:5522
d3f6  20 fc f8   JSR $f8fc   A:41 X:9e Y:40 P:a4 SP:fb CYC:5525
f8fc  f0 05      BEQ $f903   A:41 X:9e Y:40 P:a4 SP:f9 CYC:5531
f8fe  10 03      BPL $f903   A:41 X:9e Y:40 P:a4 SP:f9 CYC:5533
f900  10 01      BPL $f903   A:41 X:9e Y:40 P:a4 SP:f9 CYC:5535
f902  60         RTS         A:41 X:9e Y:40 P:a4 SP:f9 CYC:5537
d3f9  e8         INX         A:41 X:9e Y:40 P:a4 SP:fb CYC:5543
d3fa  a9 00      LDA #$00    A:41 X:9f Y:40 P:a4 SP:fb CYC:5545
d3fc  85 78      STA $78     A:00 X:9f Y:40 P:26 SP:fb CYC:5547
d3fe  20 06 f9   JSR $f906   A:00 X:9f Y:40 P:26 SP:fb CYC:5550
f906  a0 80      LDY #$80    A:00 X:9f Y:40 P:26 SP:f9 CYC:5556
f908  60         RTS         A:00 X:9f Y:80 P:a4 SP:f9 CYC:5558
d401  c4 78      CPY $78     A:00 X:9f Y:80 P:a4 SP:fb CYC:5564
d403  20 09 f9   JSR $f909   A:00 X:9f Y:80 P:a5 SP:fb CYC:5567
f909  f0 05      BEQ $f910   A:00 X:9f Y:80 P:a5 SP:f9 CYC:5573
f90b  10 03      BPL $f910   A:00 X:9f Y:80 P:a5 SP:f9 CYC:5575
f90d  90 01      BCC $f910   A:00 X:9f Y:80 P:a5 SP:f9 CYC:5577
f90f  60         RTS         A:00 X:9f Y:80 P:a5 SP:f9 CYC:5579
d406  e8         INX         A:00 X:9f Y:80 P:a5 SP:fb CYC:5585
d407  a9 80      LDA #$80    A:00 X:a0 Y:80 P:a5 SP:fb CYC:5587
d409  85 78      STA $78     A:80 X:a0 Y:80 P:a5 SP:fb CYC:5589
d40b  c4 78      CPY $78     A:80 X:a0 Y:80 P:a5 SP:fb CYC:5592
d40d  20 13 f9   JSR $f913   A:80 X:a0 Y:80 P:27 SP:fb CYC:5595
f913  d0 05      BNE $f91a   A:80 X:a0 Y:80 P:27 SP:f9 CYC:5601
f915  30 03      BMI $f91a   A:80 X:a0 Y:80 P:27 SP:f9 CYC:5603
f917  90 01      BCC $f91a   A:80 X:a0 Y:80 P:27 SP:f9 CYC:5605
f919  60         RTS         A:80 X:a0 Y:80 P:27 SP:f9 CYC:5607
d410  e8         INX         A:80 X:a0 Y:80 P:27 SP:fb CYC:5613
d411  a9 81      LDA #$81    A:80 X:a1 Y:80 P:a5 SP:fb CYC:5615
d413  85 78      STA $78     A:81 X:a1 Y:80 P:a5 SP:fb CYC:5617
d415  c4 78      CPY $78     A:81 X:a1 Y:80 P:a5 SP:fb CYC:5620
d417  20 1d f9   JSR $f91d   A:81 X:a1 Y:80 P:a4 SP:fb CYC:5623
f91d  b0 05      BCS $f924   A:81 X:a1 Y:80 P:a4 SP:f9 CYC:5629
f91f  f0 03      BEQ $f924   A:81 X:a1 Y:80 P:a4 SP:f9 CYC:5631
f921  10 01      BPL $f924   A:81 X:a1 Y:80 P:a4 SP:f9 CYC:5633
f923  60         RTS         A:81 X:a1 Y:80 P:a4 SP:f9 CYC:5635
d41a  e8         INX         A:81 X:a1 Y:80 P:a4 SP:fb CYC:5641
d41b  a9 7f      LDA #$7f    A:81 X:a2 Y:80 P:a4 SP:fb CYC:5643
d41d  85 78      STA $78     A:7f X:a2 Y:80 P:24 SP:fb CYC:5645
d41f  c4 78      CPY $78     A:7f X:a2 Y:80 P:24 SP:fb CYC:5648
d421  20 27 f9   JSR $f927   A:7f X:a2 Y:80 P:25 SP:fb CYC:5651
f927  90 05      BCC $f92e   A:7f X:a2 Y:80 P:25 SP:f9 CYC:5657
f929  f0 03      BEQ $f92e   A:7f X:a2 Y:80 P:25 SP:f9 CYC:5659
f92b  30 01      BMI $f92e   A:7f X:a2 Y:80 P:25 SP:f9 CYC:5661
f92d  60         RTS         A:7f X:a2 Y:80 P:25 SP:f9 CYC:5663
d424  e8         INX         A:7f X:a2 Y:80 P:25 SP:fb CYC:5669
d425  8a         TXA         A:7f X:a3 Y:80 P:a5 SP:fb CYC:5671
d426  a8         TAY         A:a3 X:a3 Y:80 P:a5 SP:fb CYC:5673
d427  20 90 f9   JSR $f990   A:a3 X:a3 Y:a3 P:a5 SP:fb CYC:5675
f990  a2 55      LDX #$55    A:a3 X:a3 Y:a3 P:a5 SP:f9 CYC:5681
f992  a9 ff      LDA #$ff    A:a3 X:55 Y:a3 P:25 SP:f9 CYC:5683
f994  85 01      STA $01     A:ff X:55 Y:a3 P:a5 SP:f9 CYC:5685
f996  ea         NOP         A:ff X:55 Y:a3 P:a5 SP:f9 CYC:5688
f997  24 01      BIT $01     A:ff X:55 Y:a3 P:a5 SP:f9 CYC:5690
f999  38         SEC         A:ff X:55 Y:a3 P:e5 SP:f9 CYC:5693
f99a  a9 01      LDA #$01    A:ff X:55 Y:a3 P:e5 SP:f9 CYC:5695
f99c  60         RTS         A:01 X:55 Y:a3 P:65 SP:f9 CYC:5697
d42a  85 78      STA $78     A:01 X:55 Y:a3 P:65 SP:fb CYC:5703
d42c  46 78      LSR $78     A:01 X:55 Y:a3 P:65 SP:fb CYC:5706
d42e  a5 78      LDA $78     A:01 X:55 Y:a3 P:67 SP:fb CYC:5711
d430  20 9d f9   JSR $f99d   A:00 X:55 Y:a3 P:67 SP:fb CYC:5714
f99d  90 1b      BCC $f9ba   A:00 X:55 Y:a3 P:67 SP:f9 CYC:5720
f99f  d0 19      BNE $f9ba   A:00 X:55 Y:a3 P:67 SP:f9 CYC:5722
f9a1  30 17      BMI $f9ba   A:00 X:55 Y:a3 P:67 SP:f9 CYC:5724
f9a3  50 15      BVC $f9ba   A:00 X:55 Y:a3 P:67 SP:f9 CYC:5726
f9a5  c9 00      CMP #$00    A:00 X:55 Y:a3 P:67 SP:f9 CYC:5728
f9a7  d0 11      BNE $f9ba   A:00 X:55 Y:a3 P:67 SP:f9 CYC:5730
f9a9  b8         CLV         A:00 X:55 Y:a3 P:67 SP:f9 CYC:5732
f9aa  a9 aa      LDA #$aa    A:00 X:55 Y:a3 P:27 SP:f9 CYC:5734
f9ac  60         RTS         A:aa X:55 Y:a3 P:a5 SP:f9 CYC:5736
d433  c8         INY         A:aa X:55 Y:a3 P:a5 SP:fb CYC:5742
d434  85 78      STA $78     A:aa X:55 Y:a4 P:a5 SP:fb CYC:5744
d436  46 78      LSR $78     A:aa X:55 Y:a4 P:a5 SP:fb CYC:5747
d438  a5 78      LDA $78     A:aa X:55 Y:a4 P:24 SP:fb CYC:5752
d43a  20 ad f9   JSR $f9ad   A:55 X:55 Y:a4 P:24 SP:fb CYC:5755
f9ad  b0 0b      BCS $f9ba   A:55 X:55 Y:a4 P:24 SP:f9 CYC:5761
f9af  f0 09      BEQ $f9ba   A:55 X:55 Y:a4 P:24 SP:f9 CYC:5763
f9b1  30 07      BMI $f9ba   A:55 X:55 Y:a4 P:24 SP:f9 CYC:5765
f9b3  70 05      BVS $f9ba   A:55 X:55 Y:a4 P:24 SP:f9 CYC:5767
f9b5  c9 55      CMP #$55    A:55 X:55 Y:a4 P:24 SP:f9 CYC:5769
f9b7  d0 01      BNE $f9ba   A:55 X:55 Y:a4 P:27 SP:f9 CYC:5771
f9b9  60         RTS         A:55 X:55 Y:a4 P:27 SP:f9 CYC:5773
d43d  c8         INY         A:55 X:55 Y:a4 P:27 SP:fb CYC:5779
d43e  20 bd f9   JSR $f9bd   A:55 X:55 Y:a5 P:a5 SP:fb CYC:5781
f9bd  24 01      BIT $01     A:55 X:55 Y:a5 P:a5 SP:f9 CYC:5787
f9bf  38         SEC         A:55 X:55 Y:a5 P:e5 SP:f9 CYC:5790
f9c0  a9 80      LDA #$80    A:55 X:55 Y:a5 P:e5 SP:f9 CYC:5792
f9c2  60         RTS         A:80 X:55 Y:a5 P:e5 SP:f9 CYC:5794
d441  85 78      STA $78     A:80 X:55 Y:a5 P:e5 SP:fb CYC:5800
d443  06 78      ASL $78     A:80 X:55 Y:a5 P:e5 SP:fb CYC:5803
d445  a5 78      LDA $78     A:80 X:55 Y:a5 P:67 SP:fb CYC:5808
d447  20 c3 f9   JSR $f9c3   A:00 X:55 Y:a5 P:67 SP:fb CYC:5811
f9c3  90 1c      BCC $f9e1   A:00 X:55 Y:a5 P:67 SP:f9 CYC:5817
f9c5  d0 1a      BNE $f9e1   A:00 X:55 Y:a5 P:67 SP:f9 CYC:5819
f9c7  30 18      BMI $f9e1   A:00 X:55 Y:a5 P:67 SP:f9 CYC:5821
f9c9  50 16      BVC $f9e1   A:00 X:55 Y:a5 P:67 SP:f9 CYC:5823
f9cb  c9 00      CMP #$00    A:00 X:55 Y:a5 P:67 SP:f9 CYC:5825
f9cd  d0 12      BNE $f9e1   A:00 X:55 Y:a5 P:67 SP:f9 CYC:5827
f9cf  b8         CLV         A:00 X:55 Y:a5 P:67 SP:f9 CYC:5829
f9d0  a9 55      LDA #$55    A:00 X:55 Y:a5 P:27 SP:f9 CYC:5831
f9d2  38         SEC         A:55 X:55 Y:a5 P:25 SP:f9 CYC:5833
f9d3  60         RTS         A:55 X:55 Y:a5 P:25 SP:f9 CYC:5835
d44a  c8         INY         A:55 X:55 Y:a5 P:25 SP:fb CYC:5841
d44b  85 78      STA $78     A:55 X:55 Y:a6 P:a5 SP:fb CYC:5843
d44d  06 78      ASL $78     A:55 X:55 Y:a6 P:a5 SP:fb CYC:5846
d44f  a5 78      LDA $78     A:55 X:55 Y:a6 P:a4 SP:fb CYC:5851
d451  20 d4 f9   JSR $f9d4   A:aa X:55 Y:a6 P:a4 SP:fb CYC:5854
f9d4  b0 0b      BCS $f9e1   A:aa X:55 Y:a6 P:a4 SP:f9 CYC:5860
f9d6  f0 09      BEQ $f9e1   A:aa X:55 Y:a6 P:a4 SP:f9 CYC:5862
f9d8  10 07      BPL $f9e1   A:aa X:55 Y:a6 P:a4 SP:f9 CYC:5864
f9da  70 05      BVS $f9e1   A:aa X:55 Y:a6 P:a4 SP:f9 CYC:5866
f9dc  c9 aa      CMP #$aa    A:aa X:55 Y:a6 P:a4 SP:f9 CYC:5868
f9de  d0 01      BNE $f9e1   A:aa X:55 Y:a6 P:27 SP:f9 CYC:5870
f9e0  60         RTS         A:aa X:55 Y:a6 P:27 SP:f9 CYC:5872
d454  c8         INY         A:aa X:55 Y:a6 P:27 SP:fb CYC:5878
d455  20 e4 f9   JSR $f9e4   A:aa X:55 Y:a7 P:a5 SP:fb CYC:5880
f9e4  24 01      BIT $01     A:aa X:55 Y:a7 P:a5 SP:f9 CYC:5886
f9e6  38         SEC         A:aa X:55 Y:a7 P:e5 SP:f9 CYC:5889
f9e7  a9 01      LDA #$01    A:aa X:55 Y:a7 P:e5 SP:f9 CYC:5891
f9e9  60         RTS         A:01 X:55 Y:a7 P:65 SP:f9 CYC:5893
d458  85 78      STA $78     A:01 X:55 Y:a7 P:65 SP:fb CYC:5899
d45a  66 78      ROR $78     A:01 X:55 Y:a7 P:65 SP:fb CYC:5902
d45c  a5 78      LDA $78     A:01 X:55 Y:a7 P:e5 SP:fb CYC:5907
d45e  20 ea f9   JSR $f9ea   A:80 X:55 Y:a7 P:e5 SP:fb CYC:5910
f9ea  90 1c      BCC $fa08   A:80 X:55 Y:a7 P:e5 SP:f9 CYC:5916
f9ec  f0 1a      BEQ $fa08   A:80 X:55 Y:a7 P:e5 SP:f9 CYC:5918
f9ee  10 18      BPL $fa08   A:80 X:55 Y:a7 P:e5 SP:f9 CYC:5920
f9f0  50 16      BVC $fa08   A:80 X:55 Y:a7 P:e5 SP:f9 CYC:5922
f9f2  c9 80      CMP #$80    A:80 X:55 Y:a7 P:e5 SP:f9 CYC:5924
f9f4  d0 12      BNE $fa08   A:80 X:55 Y:a7 P:67 SP:f9 CYC:5926
f9f6  b8         CLV         A:80 X:55 Y:a7 P:67 SP:f9 CYC:5928
f9f7  18         CLC         A:80 X:55 Y:a7 P:27 SP:f9 CYC:5930
f9f8  a9 55      LDA #$55    A:80 X:55 Y:a7 P:26 SP:f9 CYC:5932
f9fa  60         RTS         A:55 X:55 Y:a7 P:24 SP:f9 CYC:5934
d461  c8         INY         A:55 X:55 Y:a7 P:24 SP:fb CYC:5940
d462  85 78      STA $78     A:55 X:55 Y:a8 P:a4 SP:fb CYC:5942
d464  66 78      ROR $78     A:55 X:55 Y:a8 P:a4 SP:fb CYC:5945
d466  a5 78      LDA $78     A:55 X:55 Y:a8 P:25 SP:fb CYC:5950
d468  20 fb f9   JSR $f9fb   A:2a X:55 Y:a8 P:25 SP:fb CYC:5953
f9fb  90 0b      BCC $fa08   A:2a X:55 Y:a8 P:25 SP:f9 CYC:5959
f9fd  f0 09      BEQ $fa08   A:2a X:55 Y:a8 P:25 SP:f9 CYC:5961
f9ff  30 07      BMI $fa08   A:2a X:55 Y:a8 P:25 SP:f9 CYC:5963
fa01  70 05      BVS $fa08   A:2a X:55 Y:a8 P:25 SP:f9 CYC:5965
fa03  c9 2a      CMP #$2a    A:2a X:55 Y:a8 P:25 SP:f9 CYC:5967
fa05  d0 01      BNE $fa08   A:2a X:55 Y:a8 P:27 SP:f9 CYC:5969
fa07  60         RTS         A:2a X:55 Y:a8 P:27 SP:f9 CYC:5971
d46b  c8         INY         A:2a X:55 Y:a8 P:27 SP:fb CYC:5977
d46c  20 0a fa   JSR $fa0a   A:2a X:55 Y:a9 P:a5 SP:fb CYC:5979
fa0a  24 01      BIT $01     A:2a X:55 Y:a9 P:a5 SP:f9 CYC:5985
fa0c  38         SEC         A:2a X:55 Y:a9 P:e5 SP:f9 CYC:5988
fa0d  a9 80      LDA #$80    A:2a X:55 Y:a9 P:e5 SP:f9 CYC:5990
fa0f  60         RTS         A:80 X:55 Y:a9 P:e5 SP:f9 CYC:5992
d46f  85 78      STA $78     A:80 X:55 Y:a9 P:e5 SP:fb CYC:5998
d471  26 78      ROL $78     A:80 X:55 Y:a9 P:e5 SP:fb CYC:6001
d473  a5 78      LDA $78     A:80 X:55 Y:a9 P:65 SP:fb CYC:6006
d475  20 10 fa   JSR $fa10   A:01 X:55 Y:a9 P:65 SP:fb CYC:6009
fa10  90 1c      BCC $fa2e   A:01 X:55 Y:a9 P:65 SP:f9 CYC:6015
fa12  f0 1a      BEQ $fa2e   A:01 X:55 Y:a9 P:65 SP:f9 CYC:6017
fa14  30 18      BMI $fa2e   A:01 X:55 Y:a9 P:65 SP:f9 CYC:6019
fa16  50 16      BVC $fa2e   A:01 X:55 Y:a9 P:65 SP:f9 CYC:6021
fa18  c9 01      CMP #$01    A:01 X:55 Y:a9 P:65 SP:f9 CYC:6023
fa1a  d0 12      BNE $fa2e   A:01 X:55 Y:a9 P:67 SP:f9 CYC:6025
fa1c  b8         CLV         A:01 X:55 Y:a9 P:67 SP:f9 CYC:6027
fa1d  18         CLC         A:01 X:55 Y:a9 P:27 SP:f9 CYC:6029
fa1e  a9 55      LDA #$55    A:01 X:55 Y:a9 P:26 SP:f9 CYC:6031
fa20  60         RTS         A:55 X:55 Y:a9 P:24 SP:f9 CYC:6033
d478  c8         INY         A:55 X:55 Y:a9 P:24 SP:fb CYC:6039
d479  85 78      STA $78     A:55 X:55 Y:aa P:a4 SP:fb CYC:6041
d47b  26 78      ROL $78     A:55 X:55 Y:aa P:a4 SP:fb CYC:6044
d47d  a5 78      LDA $78     A:55 X:55 Y:aa P:a4 SP:fb CYC:6049
d47f  20 21 fa   JSR $fa21   A:aa X:55 Y:aa P:a4 SP:fb CYC:6052
fa21  b0 0b      BCS $fa2e   A:aa X:55 Y:aa P:a4 SP:f9 CYC:6058
fa23  f0 09      BEQ $fa2e   A:aa X:55 Y:aa P:a4 SP:f9 CYC:6060
fa25  10 07      BPL $fa2e   A:aa X:55 Y:aa P:a4 SP:f9 CYC:6062
fa27  70 05      BVS $fa2e   A:aa X:55 Y:aa P:a4 SP:f9 CYC:6064
fa29  c9 aa      CMP #$aa    A:aa X:55 Y:aa P:a4 SP:f9 CYC:6066
fa2b  d0 01      BNE $fa2e   A:aa X:55 Y:aa P:27 SP:f9 CYC:6068
fa2d  60         RTS         A:aa X:55 Y:aa P:27 SP:f9 CYC:6070
d482  a9 ff      LDA #$ff    A:aa X:55 Y:aa P:27 SP:fb CYC:6076
d484  85 78      STA $78     A:ff X:55 Y:aa P:a5 SP:fb CYC:6078
d486  85 01      STA $01     A:ff X:55 Y:aa P:a5 SP:fb CYC:6081
d488  24 01      BIT $01     A:ff X:55 Y:aa P:a5 SP:fb CYC:6084
d48a  38         SEC         A:ff X:55 Y:aa P:e5 SP:fb CYC:6087
d48b  e6 78      INC $78     A:ff X:55 Y:aa P:e5 SP:fb CYC:6089
d48d  d0 0c      BNE $d49b   A:ff X:55 Y:aa P:67 SP:fb CYC:6094
d48f  30 0a      BMI $d49b   A:ff X:55 Y:aa P:67 SP:fb CYC:6096
d491  50 08      BVC $d49b   A:ff X:55 Y:aa P:67 SP:fb CYC:6098
d493  90 06      BCC $d49b   A:ff X:55 Y:aa P:67 SP:fb CYC:6100
d495  a5 78      LDA $78     A:ff X:55 Y:aa P:67 SP:fb CYC:6102
d497  c9 00      CMP #$00    A:00 X:55 Y:aa P:67 SP:fb CYC:6105
d499  f0 04      BEQ $d49f   A:00 X:55 Y:aa P:67 SP:fb CYC:6107
d49f  a9 7f      LDA #$7f    A:00 X:55 Y:aa P:67 SP:fb CYC:6110
d4a1  85 78      STA $78     A:7f X:55 Y:aa P:65 SP:fb CYC:6112
d4a3  b8         CLV         A:7f X:55 Y:aa P:65 SP:fb CYC:6115
d4a4  18         CLC         A:7f X:55 Y:aa P:25 SP:fb CYC:6117
d4a5  e6 78      INC $78     A:7f X:55 Y:aa P:24 SP:fb CYC:6119
d4a7  f0 0c      BEQ $d4b5   A:7f X:55 Y:aa P:a4 SP:fb CYC:6124
d4a9  10 0a      BPL $d4b5   A:7f X:55 Y:aa P:a4 SP:fb CYC:6126
d4ab  70 08      BVS $d4b5   A:7f X:55 Y:aa P:a4 SP:fb CYC:6128
d4ad  b0 06      BCS $d4b5   A:7f X:55 Y:aa P:a4 SP:fb CYC:6130
d4af  a5 78      LDA $78     A:7f X:55 Y:aa P:a4 SP:fb CYC:6132
d4b1  c9 80      CMP #$80    A:80 X:55 Y:aa P:a4 SP:fb CYC:6135
d4b3  f0 04      BEQ $d4b9   A:80 X:55 Y:aa P:27 SP:fb CYC:6137
d4b9  a9 00      LDA #$00    A:80 X:55 Y:aa P:27 SP:fb CYC:6140
d4bb  85 78      STA $78     A:00 X:55 Y:aa P:27 SP:fb CYC:6142
d4bd  24 01      BIT $01     A:00 X:55 Y:aa P:27 SP:fb CYC:6145
d4bf  38         SEC         A:00 X:55 Y:aa P:e7 SP:fb CYC:6148
d4c0  c6 78      DEC $78     A:00 X:55 Y:aa P:e7 SP:fb CYC:6150
d4c2  f0 0c      BEQ $d4d0   A:00 X:55 Y:aa P:e5 SP:fb CYC:6155
d4c4  10 0a      BPL $d4d0   A:00 X:55 Y:aa P:e5 SP:fb CYC:6157
d4c6  50 08      BVC $d4d0   A:00 X:55 Y:aa P:e5 SP:fb CYC:6159
d4c8  90 06      BCC $d4d0   A:00 X:55 Y:aa P:e5 SP:fb CYC:6161
d4ca  a5 78      LDA $78     A:00 X:55 Y:aa P:e5 SP:fb CYC:6163
d4cc  c9 ff      CMP #$ff    A:ff X:55 Y:aa P:e5 SP:fb CYC:6166
d4ce  f0 04      BEQ $d4d4   A:ff X:55 Y:aa P:67 SP:fb CYC:6168
d4d4  a9 80      LDA #$80    A:ff X:55 Y:aa P:67 SP:fb CYC:6171
d4d6  85 78      STA $78     A:80 X:55 Y:aa P:e5 SP:fb CYC:6173
d4d8  b8         CLV         A:80 X:55 Y:aa P:e5 SP:fb CYC:6176
d4d9  18         CLC         A:80 X:55 Y:aa P:a5 SP:fb CYC:6178
d4da  c6 78      DEC $78     A:80 X:55 Y:aa P:a4 SP:fb CYC:6180
d4dc  f0 0c      BEQ $d4ea   A:80 X:55 Y:aa P:24 SP:fb CYC:6185
d4de  30 0a      BMI $d4ea   A:80 X:55 Y:aa P:24 SP:fb CYC:6187
d4e0  70 08      BVS $d4ea   A:80 X:55 Y:aa P:24 SP:fb CYC:6189
d4e2  b0 06      BCS $d4ea   A:80 X:55 Y:aa P:24 SP:fb CYC:6191
d4e4  a5 78      LDA $78     A:80 X:55 Y:aa P:24 SP:fb CYC:6193
d4e6  c9 7f      CMP #$7f    A:7f X:55 Y:aa P:24 SP:fb CYC:6196
d4e8  f0 04      BEQ $d4ee   A:7f X:55 Y:aa P:27 SP:fb CYC:6198
d4ee  a9 01      LDA #$01    A:7f X:55 Y:aa P:27 SP:fb CYC:6201
d4f0  85 78      STA $78     A:01 X:55 Y:aa P:25 SP:fb CYC:6203
d4f2  c6 78      DEC $78     A:01 X:55 Y:aa P:25 SP:fb CYC:6206
d4f4  f0 04      BEQ $d4fa   A:01 X:55 Y:aa P:27 SP:fb CYC:6211
d4fa  60         RTS         A:01 X:55 Y:aa P:27 SP:fb CYC:6214
c615  20 fb d4   JSR $d4fb   A:01 X:55 Y:aa P:27 SP:fd CYC:6220
d4fb  a9 55      LDA #$55    A:01 X:55 Y:aa P:27 SP:fb CYC:6226
d4fd  8d 78 06   STA $0678   A:55 X:55 Y:aa P:25 SP:fb CYC:6228
d500  a9 ff      LDA #$ff    A:55 X:55 Y:aa P:25 SP:fb CYC:6232
d502  85 01      STA $01     A:ff X:55 Y:aa P:a5 SP:fb CYC:6234
d504  24 01      BIT $01     A:ff X:55 Y:aa P:a5 SP:fb CYC:6237
d506  a0 11      LDY #$11    A:ff X:55 Y:aa P:e5 SP:fb CYC:6240
d508  a2 23      LDX #$23    A:ff X:55 Y:11 P:65 SP:fb CYC:6242
d50a  a9 00      LDA #$00    A:ff X:23 Y:11 P:65 SP:fb CYC:6244
d50c  ad 78 06   LDA $0678   A:00 X:23 Y:11 P:67 SP:fb CYC:6246
d50f  f0 10      BEQ $d521   A:55 X:23 Y:11 P:65 SP:fb CYC:6250
d511  30 0e      BMI $d521   A:55 X:23 Y:11 P:65 SP:fb CYC:6252
d513  c9 55      CMP #$55    A:55 X:23 Y:11 P:65 SP:fb CYC:6254
d515  d0 0a      BNE $d521   A:55 X:23 Y:11 P:67 SP:fb CYC:6256
d517  c0 11      CPY #$11    A:55 X:23 Y:11 P:67 SP:fb CYC:6258
d519  d0 06      BNE $d521   A:55 X:23 Y:11 P:67 SP:fb CYC:6260
d51b  e0 23      CPX #$23    A:55 X:23 Y:11 P:67 SP:fb CYC:6262
d51d  50 02      BVC $d521   A:55 X:23 Y:11 P:67 SP:fb CYC:6264
d51f  f0 04      BEQ $d525   A:55 X:23 Y:11 P:67 SP:fb CYC:6266
d525  a9 46      LDA #$46    A:55 X:23 Y:11 P:67 SP:fb CYC:6269
d527  24 01      BIT $01     A:46 X:23 Y:11 P:65 SP:fb CYC:6271
d529  8d 78 06   STA $0678   A:46 X:23 Y:11 P:e5 SP:fb CYC:6274
d52c  f0 0b      BEQ $d539   A:46 X:23 Y:11 P:e5 SP:fb CYC:6278
d52e  10 09      BPL $d539   A:46 X:23 Y:11 P:e5 SP:fb CYC:6280
d530  50 07      BVC $d539   A:46 X:23 Y:11 P:e5 SP:fb CYC:6282
d532  ad 78 06   LDA $0678   A:46 X:23 Y:11 P:e5 SP:fb CYC:6284
d535  c9 46      CMP #$46    A:46 X:23 Y:11 P:65 SP:fb CYC:6288
d537  f0 04      BEQ $d53d   A:46 X:23 Y:11 P:67 SP:fb CYC:6290
d53d  a9 55      LDA #$55    A:46 X:23 Y:11 P:67 SP:fb CYC:6293
d53f  8d 78 06   STA $0678   A:55 X:23 Y:11 P:65 SP:fb CYC:6295
d542  24 01      BIT $01     A:55 X:23 Y:11 P:65 SP:fb CYC:6299
d544  a9 11      LDA #$11    A:55 X:23 Y:11 P:e5 SP:fb CYC:6302
d546  a2 23      LDX #$23    A:11 X:23 Y:11 P:65 SP:fb CYC:6304
d548  a0 00      LDY #$00    A:11 X:23 Y:11 P:65 SP:fb CYC:6306
d54a  ac 78 06   LDY $0678   A:11 X:23 Y:00 P:67 SP:fb CYC:6308
d54d  f0 10      BEQ $d55f   A:11 X:23 Y:55 P:65 SP:fb CYC:6312
d54f  30 0e      BMI $d55f   A:11 X:23 Y:55 P:65 SP:fb CYC:6314
d551  c0 55      CPY #$55    A:11 X:23 Y:55 P:65 SP:fb CYC:6316
d553  d0 0a      BNE $d55f   A:11 X:23 Y:55 P:67 SP:fb CYC:6318
d555  c9 11      CMP #$11    A:11 X:23 Y:55 P:67 SP:fb CYC:6320
d557  d0 06      BNE $d55f   A:11 X:23 Y:55 P:67 SP:fb CYC:6322
d559  e0 23      CPX #$23    A:11 X:23 Y:55 P:67 SP:fb CYC:6324
d55b  50 02      BVC $d55f   A:11 X:23 Y:55 P:67 SP:fb CYC:6326
d55d  f0 04      BEQ $d563   A:11 X:23 Y:55 P:67 SP:fb CYC:6328
d563  a0 46      LDY #$46    A:11 X:23 Y:55 P:67 SP:fb CYC:6331
d565  24 01      BIT $01     A:11 X:23 Y:46 P:65 SP:fb CYC:6333
d567  8c 78 06   STY $0678   A:11 X:23 Y:46 P:e5 SP:fb CYC:6336
d56a  f0 0b      BEQ $d577   A:11 X:23 Y:46 P:e5 SP:fb CYC:6340
d56c  10 09      BPL $d577   A:11 X:23 Y:46 P:e5 SP:fb CYC:6342
d56e  50 07      BVC $d577   A:11 X:23 Y:46 P:e5 SP:fb CYC:6344
d570  ac 78 06   LDY $0678   A:11 X:23 Y:46 P:e5 SP:fb CYC:6346
d573  c0 46      CPY #$46    A:11 X:23 Y:46 P:65 SP:fb CYC:6350
d575  f0 04      BEQ $d57b   A:11 X:23 Y:46 P:67 SP:fb CYC:6352
d57b  24 01      BIT $01     A:11 X:23 Y:46 P:67 SP:fb CYC:6355
d57d  a9 55      LDA #$55    A:11 X:23 Y:46 P:e5 SP:fb CYC:6358
d57f  8d 78 06   STA $0678   A:55 X:23 Y:46 P:65 SP:fb CYC:6360
d582  a0 11      LDY #$11    A:55 X:23 Y:46 P:65 SP:fb CYC:6364
d584  a9 23      LDA #$23    A:55 X:23 Y:11 P:65 SP:fb CYC:6366
d586  a2 00      LDX #$00    A:23 X:23 Y:11 P:65 SP:fb CYC:6368
d588  ae 78 06   LDX $0678   A:23 X:00 Y:11 P:67 SP:fb CYC:6370
d58b  f0 10      BEQ $d59d   A:23 X:55 Y:11 P:65 SP:fb CYC:6374
d58d  30 0e      BMI $d59d   A:23 X:55 Y:11 P:65 SP:fb CYC:6376
d58f  e0 55      CPX #$55    A:23 X:55 Y:11 P:65 SP:fb CYC:6378
d591  d0 0a      BNE $d59d   A:23 X:55 Y:11 P:67 SP:fb CYC:6380
d593  c0 11      CPY #$11    A:23 X:55 Y:11 P:67 SP:fb CYC:6382
d595  d0 06      BNE $d59d   A:23 X:55 Y:11 P:67 SP:fb CYC:6384
d597  c9 23      CMP #$23    A:23 X:55 Y:11 P:67 SP:fb CYC:6386
d599  50 02      BVC $d59d   A:23 X:55 Y:11 P:67 SP:fb CYC:6388
d59b  f0 04      BEQ $d5a1   A:23 X:55 Y:11 P:67 SP:fb CYC:6390
d5a1  a2 46      LDX #$46    A:23 X:55 Y:11 P:67 SP:fb CYC:6393
d5a3  24 01      BIT $01     A:23 X:46 Y:11 P:65 SP:fb CYC:6395
d5a5  8e 78 06   STX $0678   A:23 X:46 Y:11 P:e5 SP:fb CYC:6398
d5a8  f0 0b      BEQ $d5b5   A:23 X:46 Y:11 P:e5 SP:fb CYC:6402
d5aa  10 09      BPL $d5b5   A:23 X:46 Y:11 P:e5 SP:fb CYC:6404
d5ac  50 07      BVC $d5b5   A:23 X:46 Y:11 P:e5 SP:fb CYC:6406
d5ae  ae 78 06   LDX $0678   A:23 X:46 Y:11 P:e5 SP:fb CYC:6408
d5b1  e0 46      CPX #$46    A:23 X:46 Y:11 P:65 SP:fb CYC:6412
d5b3  f0 04      BEQ $d5b9   A:23 X:46 Y:11 P:67 SP:fb CYC:6414
d5b9  a9 c0      LDA #$c0    A:23 X:46 Y:11 P:67 SP:fb CYC:6417
d5bb  8d 78 06   STA $0678   A:c0 X:46 Y:11 P:e5 SP:fb CYC:6419
d5be  a2 33      LDX #$33    A:c0 X:46 Y:11 P:e5 SP:fb CYC:6423
d5c0  a0 88      LDY #$88    A:c0 X:33 Y:11 P:65 SP:fb CYC:6425
d5c2  a9 05      LDA #$05    A:c0 X:33 Y:88 P:e5 SP:fb CYC:6427
d5c4  2c 78 06   BIT $0678   A:05 X:33 Y:88 P:65 SP:fb CYC:6429
d5c7  10 10      BPL $d5d9   A:05 X:33 Y:88 P:e7 SP:fb CYC:6433
d5c9  50 0e      BVC $d5d9   A:05 X:33 Y:88 P:e7 SP:fb CYC:6435
d5cb  d0 0c      BNE $d5d9   A:05 X:33 Y:88 P:e7 SP:fb CYC:6437
d5cd  c9 05      CMP #$05    A:05 X:33 Y:88 P:e7 SP:fb CYC:6439
d5cf  d0 08      BNE $d5d9   A:05 X:33 Y:88 P:67 SP:fb CYC:6441
d5d1  e0 33      CPX #$33    A:05 X:33 Y:88 P:67 SP:fb CYC:6443
d5d3  d0 04      BNE $d5d9   A:05 X:33 Y:88 P:67 SP:fb CYC:6445
d5d5  c0 88      CPY #$88    A:05 X:33 Y:88 P:67 SP:fb CYC:6447
d5d7  f0 04      BEQ $d5dd   A:05 X:33 Y:88 P:67 SP:fb CYC:6449
d5dd  a9 03      LDA #$03    A:05 X:33 Y:88 P:67 SP:fb CYC:6452
d5df  8d 78 06   STA $0678   A:03 X:33 Y:88 P:65 SP:fb CYC:6454
d5e2  a9 01      LDA #$01    A:03 X:33 Y:88 P:65 SP:fb CYC:6458
d5e4  2c 78 06   BIT $0678   A:01 X:33 Y:88 P:65 SP:fb CYC:6460
d5e7  30 08      BMI $d5f1   A:01 X:33 Y:88 P:25 SP:fb CYC:6464
d5e9  70 06      BVS $d5f1   A:01 X:33 Y:88 P:25 SP:fb CYC:6466
d5eb  f0 04      BEQ $d5f1   A:01 X:33 Y:88 P:25 SP:fb CYC:6468
d5ed  c9 01      CMP #$01    A:01 X:33 Y:88 P:25 SP:fb CYC:6470
d5ef  f0 04      BEQ $d5f5   A:01 X:33 Y:88 P:27 SP:fb CYC:6472
d5f5  a0 b8      LDY #$b8    A:01 X:33 Y:88 P:27 SP:fb CYC:6475
d5f7  a9 aa      LDA #$aa    A:01 X:33 Y:b8 P:a5 SP:fb CYC:6477
d5f9  8d 78 06   STA $0678   A:aa X:33 Y:b8 P:a5 SP:fb CYC:6479
d5fc  20 b6 f7   JSR $f7b6   A:aa X:33 Y:b8 P:a5 SP:fb CYC:6483
f7b6  18         CLC         A:aa X:33 Y:b8 P:a5 SP:f9 CYC:6489
f7b7  a9 ff      LDA #$ff    A:aa X:33 Y:b8 P:a4 SP:f9 CYC:6491
f7b9  85 01      STA $01     A:ff X:33 Y:b8 P:a4 SP:f9 CYC:6493
f7bb  24 01      BIT $01     A:ff X:33 Y:b8 P:a4 SP:f9 CYC:6496
f7bd  a9 55      LDA #$55    A:ff X:33 Y:b8 P:e4 SP:f9 CYC:6499
f7bf  60         RTS         A:55 X:33 Y:b8 P:64 SP:f9 CYC:6501
d5ff  0d 78 06   ORA $0678   A:55 X:33 Y:b8 P:64 SP:fb CYC:6507
d602  20 c0 f7   JSR $f7c0   A:ff X:33 Y:b8 P:e4 SP:fb CYC:6511
f7c0  b0 09      BCS $f7cb   A:ff X:33 Y:b8 P:e4 SP:f9 CYC:6517
f7c2  10 07      BPL $f7cb   A:ff X:33 Y:b8 P:e4 SP:f9 CYC:6519
f7c4  c9 ff      CMP #$ff    A:ff X:33 Y:b8 P:e4 SP:f9 CYC:6521
f7c6  d0 03      BNE $f7cb   A:ff X:33 Y:b8 P:67 SP:f9 CYC:6523
f7c8  50 01      BVC $f7cb   A:ff X:33 Y:b8 P:67 SP:f9 CYC:6525
f7ca  60         RTS         A:ff X:33 Y:b8 P:67 SP:f9 CYC:6527
d605  c8         INY         A:ff X:33 Y:b8 P:67 SP:fb CYC:6533
d606  a9 00      LDA #$00    A:ff X:33 Y:b9 P:e5 SP:fb CYC:6535
d608  8d 78 06   STA $0678   A:00 X:33 Y:b9 P:67 SP:fb CYC:6537
d60b  20 ce f7   JSR $f7ce   A:00 X:33 Y:b9 P:67 SP:fb CYC:6541
f7ce  38         SEC         A:00 X:33 Y:b9 P:67 SP:f9 CYC:6547
f7cf  b8         CLV         A:00 X:33 Y:b9 P:67 SP:f9 CYC:6549
f7d0  a9 00      LDA #$00    A:00 X:33 Y:b9 P:27 SP:f9 CYC:6551
f7d2  60         RTS         A:00 X:33 Y:b9 P:27 SP:f9 CYC:6553
d60e  0d 78 06   ORA $0678   A:00 X:33 Y:b9 P:27 SP:fb CYC:6559
d611  20 d3 f7   JSR $f7d3   A:00 X:33 Y:b9 P:27 SP:fb CYC:6563
f7d3  d0 07      BNE $f7dc   A:00 X:33 Y:b9 P:27 SP:f9 CYC:6569
f7d5  70 05      BVS $f7dc   A:00 X:33 Y:b9 P:27 SP:f9 CYC:6571
f7d7  90 03      BCC $f7dc   A:00 X:33 Y:b9 P:27 SP:f9 CYC:6573
f7d9  30 01      BMI $f7dc   A:00 X:33 Y:b9 P:27 SP:f9 CYC:6575
f7db  60         RTS         A:00 X:33 Y:b9 P:27 SP:f9 CYC:6577
d614  c8         INY         A:00 X:33 Y:b9 P:27 SP:fb CYC:6583
d615  a9 aa      LDA #$aa    A:00 X:33 Y:ba P:a5 SP:fb CYC:6585
d617  8d 78 06   STA $0678   A:aa X:33 Y:ba P:a5 SP:fb CYC:6587
d61a  20 df f7   JSR $f7df   A:aa X:33 Y:ba P:a5 SP:fb CYC:6591
f7df  18         CLC         A:aa X:33 Y:ba P:a5 SP:f9 CYC:6597
f7e0  24 01      BIT $01     A:aa X:33 Y:ba P:a4 SP:f9 CYC:6599
f7e2  a9 55      LDA #$55    A:aa X:33 Y:ba P:e4 SP:f9 CYC:6602
f7e4  60         RTS         A:55 X:33 Y:ba P:64 SP:f9 CYC:6604
d61d  2d 78 06   AND $0678   A:55 X:33 Y:ba P:64 SP:fb CYC:6610
d620  20 e5 f7   JSR $f7e5   A:00 X:33 Y:ba P:66 SP:fb CYC:6614
f7e5  d0 07      BNE $f7ee   A:00 X:33 Y:ba P:66 SP:f9 CYC:6620
f7e7  50 05      BVC $f7ee   A:00 X:33 Y:ba P:66 SP:f9 CYC:6622
f7e9  b0 03      BCS $f7ee   A:00 X:33 Y:ba P:66 SP:f9 CYC:6624
f7eb  30 01      BMI $f7ee   A:00 X:33 Y:ba P:66 SP:f9 CYC:6626
f7ed  60         RTS         A:00 X:33 Y:ba P:66 SP:f9 CYC:6628
d623  c8         INY         A:00 X:33 Y:ba P:66 SP:fb CYC:6634
d624  a9 ef      LDA #$ef    A:00 X:33 Y:bb P:e4 SP:fb CYC:6636
d626  8d 78 06   STA $0678   A:ef X:33 Y:bb P:e4 SP:fb CYC:6638
d629  20 f1 f7   JSR $f7f1   A:ef X:33 Y:bb P:e4 SP:fb CYC:6642
f7f1  38         SEC         A:ef X:33 Y:bb P:e4 SP:f9 CYC:6648
f7f2  b8         CLV         A:ef X:33 Y:bb P:e5 SP:f9 CYC:6650
f7f3  a9 f8      LDA #$f8    A:ef X:33 Y:bb P:a5 SP:f9 CYC:6652
f7f5  60         RTS         A:f8 X:33 Y:bb P:a5 SP:f9 CYC:6654
d62c  2d 78 06   AND $0678   A:f8 X:33 Y:bb P:a5 SP:fb CYC:6660
d62f  20 f6 f7   JSR $f7f6   A:e8 X:33 Y:bb P:a5 SP:fb CYC:6664
f7f6  90 09      BCC $f801   A:e8 X:33 Y:bb P:a5 SP:f9 CYC:6670
f7f8  10 07      BPL $f801   A:e8 X:33 Y:bb P:a5 SP:f9 CYC:6672
f7fa  c9 e8      CMP #$e8    A:e8 X:33 Y:bb P:a5 SP:f9 CYC:6674
f7fc  d0 03      BNE $f801   A:e8 X:33 Y:bb P:27 SP:f9 CYC:6676
f7fe  70 01      BVS $f801   A:e8 X:33 Y:bb P:27 SP:f9 CYC:6678
f800  60         RTS         A:e8 X:33 Y:bb P:27 SP:f9 CYC:6680
d632  c8         INY         A:e8 X:33 Y:bb P:27 SP:fb CYC:6686
d633  a9 aa      LDA #$aa    A:e8 X:33 Y:bc P:a5 SP:fb CYC:6688
d635  8d 78 06   STA $0678   A:aa X:33 Y:bc P:a5 SP:fb CYC:6690
d638  20 04 f8   JSR $f804   A:aa X:33 Y:bc P:a5 SP:fb CYC:6694
f804  18         CLC         A:aa X:33 Y:bc P:a5 SP:f9 CYC:6700
f805  24 01      BIT $01     A:aa X:33 Y:bc P:a4 SP:f9 CYC:6702
f807  a9 5f      LDA #$5f    A:aa X:33 Y:bc P:e4 SP:f9 CYC:6705
f809  60         RTS         A:5f X:33 Y:bc P:64 SP:f9 CYC:6707
d63b  4d 78 06   EOR $0678   A:5f X:33 Y:bc P:64 SP:fb CYC:6713
d63e  20 0a f8   JSR $f80a   A:f5 X:33 Y:bc P:e4 SP:fb CYC:6717
f80a  b0 09      BCS $f815   A:f5 X:33 Y:bc P:e4 SP:f9 CYC:6723
f80c  10 07      BPL $f815   A:f5 X:33 Y:bc P:e4 SP:f9 CYC:6725
f80e  c9 f5      CMP #$f5    A:f5 X:33 Y:bc P:e4 SP:f9 CYC:6727
f810  d0 03      BNE $f815   A:f5 X:33 Y:bc P:67 SP:f9 CYC:6729
f812  50 01      BVC $f815   A:f5 X:33 Y:bc P:67 SP:f9 CYC:6731
f814  60         RTS         A:f5 X:33 Y:bc P:67 SP:f9 CYC:6733
d641  c8         INY         A:f5 X:33 Y:bc P:67 SP:fb CYC:6739
d642  a9 70      LDA #$70    A:f5 X:33 Y:bd P:e5 SP:fb CYC:6741
d644  8d 78 06   STA $0678   A:70 X:33 Y:bd P:65 SP:fb CYC:6743
d647  20 18 f8   JSR $f818   A:70 X:33 Y:bd P:65 SP:fb CYC:6747
f818  38         SEC         A:70 X:33 Y:bd P:65 SP:f9 CYC:6753
f819  b8         CLV         A:70 X:33 Y:bd P:65 SP:f9 CYC:6755
f81a  a9 70      LDA #$70    A:70 X:33 Y:bd P:25 SP:f9 CYC:6757
f81c  60         RTS         A:70 X:33 Y:bd P:25 SP:f9 CYC:6759
d64a  4d 78 06   EOR $0678   A:70 X:33 Y:bd P:25 SP:fb CYC:6765
d64d  20 1d f8   JSR $f81d   A:00 X:33 Y:bd P:27 SP:fb CYC:6769
f81d  d0 07      BNE $f826   A:00 X:33 Y:bd P:27 SP:f9 CYC:6775
f81f  70 05      BVS $f826   A:00 X:33 Y:bd P:27 SP:f9 CYC:6777
f821  90 03      BCC $f826   A:00 X:33 Y:bd P:27 SP:f9 CYC:6779
f823  30 01      BMI $f826   A:00 X:33 Y:bd P:27 SP:f9 CYC:6781
f825  60         RTS         A:00 X:33 Y:bd P:27 SP:f9 CYC:6783
d650  c8         INY         A:00 X:33 Y:bd P:27 SP:fb CYC:6789
d651  a9 69      LDA #$69    A:00 X:33 Y:be P:a5 SP:fb CYC:6791
d653  8d 78 06   STA $0678   A:69 X:33 Y:be P:25 SP:fb CYC:6793
d656  20 29 f8   JSR $f829   A:69 X:33 Y:be P:25 SP:fb CYC:6797
f829  18         CLC         A:69 X:33 Y:be P:25 SP:f9 CYC:6803
f82a  24 01      BIT $01     A:69 X:33 Y:be P:24 SP:f9 CYC:6805
f82c  a9 00      LDA #$00    A:69 X:33 Y:be P:e4 SP:f9 CYC:6808
f82e  60         RTS         A:00 X:33 Y:be P:66 SP:f9 CYC:6810
d659  6d 78 06   ADC $0678   A:00 X:33 Y:be P:66 SP:fb CYC:6816
d65c  20 2f f8   JSR $f82f   A:69 X:33 Y:be P:24 SP:fb CYC:6820
f82f  30 09      BMI $f83a   A:69 X:33 Y:be P:24 SP:f9 CYC:6826
f831  b0 07      BCS $f83a   A:69 X:33 Y:be P:24 SP:f9 CYC:6828
f833  c9 69      CMP #$69    A:69 X:33 Y:be P:24 SP:f9 CYC:6830
f835  d0 03      BNE $f83a   A:69 X:33 Y:be P:27 SP:f9 CYC:6832
f837  70 01      BVS $f83a   A:69 X:33 Y:be P:27 SP:f9 CYC:6834
f839  60         RTS         A:69 X:33 Y:be P:27 SP:f9 CYC:6836
d65f  c8         INY         A:69 X:33 Y:be P:27 SP:fb CYC:6842
d660  20 3d f8   JSR $f83d   A:69 X:33 Y:bf P:a5 SP:fb CYC:6844
f83d  38         SEC         A:69 X:33 Y:bf P:a5 SP:f9 CYC:6850
f83e  24 01      BIT $01     A:69 X:33 Y:bf P:a5 SP:f9 CYC:6852
f840  a9 00      LDA #$00    A:69 X:33 Y:bf P:e5 SP:f9 CYC:6855
f842  60         RTS         A:00 X:33 Y:bf P:67 SP:f9 CYC:6857
d663  6d 78 06   ADC $0678   A:00 X:33 Y:bf P:67 SP:fb CYC:6863
d666  20 43 f8   JSR $f843   A:6a X:33 Y:bf P:24 SP:fb CYC:6867
f843  30 09      BMI $f84e   A:6a X:33 Y:bf P:24 SP:f9 CYC:6873
f845  b0 07      BCS $f84e   A:6a X:33 Y:bf P:24 SP:f9 CYC:6875
f847  c9 6a      CMP #$6a    A:6a X:33 Y:bf P:24 SP:f9 CYC:6877
f849  d0 03      BNE $f84e   A:6a X:33 Y:bf P:27 SP:f9 CYC:6879
f84b  70 01      BVS $f84e   A:6a X:33 Y:bf P:27 SP:f9 CYC:6881
f84d  60         RTS         A:6a X:33 Y:bf P:27 SP:f9 CYC:6883
d669  c8         INY         A:6a X:33 Y:bf P:27 SP:fb CYC:6889
d66a  a9 7f      LDA #$7f    A:6a X:33 Y:c0 P:a5 SP:fb CYC:6891
d66c  8d 78 06   STA $0678   A:7f X:33 Y:c0 P:25 SP:fb CYC:6893
d66f  20 51 f8   JSR $f851   A:7f X:33 Y:c0 P:25 SP:fb CYC:6897
f851  38         SEC         A:7f X:33 Y:c0 P:25 SP:f9 CYC:6903
f852  b8         CLV         A:7f X:33 Y:c0 P:25 SP:f9 CYC:6905
f853  a9 7f      LDA #$7f    A:7f X:33 Y:c0 P:25 SP:f9 CYC:6907
f855  60         RTS         A:7f X:33 Y:c0 P:25 SP:f9 CYC:6909
d672  6d 78 06   ADC $0678   A:7f X:33 Y:c0 P:25 SP:fb CYC:6915
d675  20 56 f8   JSR $f856   A:ff X:33 Y:c0 P:e4 SP:fb CYC:6919
f856  10 09      BPL $f861   A:ff X:33 Y:c0 P:e4 SP:f9 CYC:6925
f858  b0 07      BCS $f861   A:ff X:33 Y:c0 P:e4 SP:f9 CYC:6927
f85a  c9 ff      CMP #$ff    A:ff X:33 Y:c0 P:e4 SP:f9 CYC:6929
f85c  d0 03      BNE $f861   A:ff X:33 Y:c0 P:67 SP:f9 CYC:6931
f85e  50 01      BVC $f861   A:ff X:33 Y:c0 P:67 SP:f9 CYC:6933
f860  60         RTS         A:ff X:33 Y:c0 P:67 SP:f9 CYC:6935
d678  c8         INY         A:ff X:33 Y:c0 P:67 SP:fb CYC:6941
d679  a9 80      LDA #$80    A:ff X:33 Y:c1 P:e5 SP:fb CYC:6943
d67b  8d 78 06   STA $0678   A:80 X:33 Y:c1 P:e5 SP:fb CYC:6945
d67e  20 64 f8   JSR $f864   A:80 X:33 Y:c1 P:e5 SP:fb CYC:6949
f864  18         CLC         A:80 X:33 Y:c1 P:e5 SP:f9 CYC:6955
f865  24 01      BIT $01     A:80 X:33 Y:c1 P:e4 SP:f9 CYC:6957
f867  a9 7f      LDA #$7f    A:80 X:33 Y:c1 P:e4 SP:f9 CYC:6960
f869  60         RTS         A:7f X:33 Y:c1 P:64 SP:f9 CYC:6962
d681  6d 78 06   ADC $0678   A:7f X:33 Y:c1 P:64 SP:fb CYC:6968
d684  20 6a f8   JSR $f86a   A:ff X:33 Y:c1 P:a4 SP:fb CYC:6972
f86a  10 09      BPL $f875   A:ff X:33 Y:c1 P:a4 SP:f9 CYC:6978
f86c  b0 07      BCS $f875   A:ff X:33 Y:c1 P:a4 SP:f9 CYC:6980
f86e  c9 ff      CMP #$ff    A:ff X:33 Y:c1 P:a4 SP:f9 CYC:6982
f870  d0 03      BNE $f875   A:ff X:33 Y:c1 P:27 SP:f9 CYC:6984
f872  70 01      BVS $f875   A:ff X:33 Y:c1 P:27 SP:f9 CYC:6986
f874  60         RTS         A:ff X:33 Y:c1 P:27 SP:f9 CYC:6988
d687  c8         INY         A:ff X:33 Y:c1 P:27 SP:fb CYC:6994
d688  20 78 f8   JSR $f878   A:ff X:33 Y:c2 P:a5 SP:fb CYC:6996
f878  38         SEC         A:ff X:33 Y:c2 P:a5 SP:f9 CYC:7002
f879  b8         CLV         A:ff X:33 Y:c2 P:a5 SP:f9 CYC:7004
f87a  a9 7f      LDA #$7f    A:ff X:33 Y:c2 P:a5 SP:f9 CYC:7006
f87c  60         RTS         A:7f X:33 Y:c2 P:25 SP:f9 CYC:7008
d68b  6d 78 06   ADC $0678   A:7f X:33 Y:c2 P:25 SP:fb CYC:7014
d68e  20 7d f8   JSR $f87d   A:00 X:33 Y:c2 P:27 SP:fb CYC:7018
f87d  d0 07      BNE $f886   A:00 X:33 Y:c2 P:27 SP:f9 CYC:7024
f87f  30 05      BMI $f886   A:00 X:33 Y:c2 P:27 SP:f9 CYC:7026
f881  70 03      BVS $f886   A:00 X:33 Y:c2 P:27 SP:f9 CYC:7028
f883  90 01      BCC $f886   A:00 X:33 Y:c2 P:27 SP:f9 CYC:7030
f885  60         RTS         A:00 X:33 Y:c2 P:27 SP:f9 CYC:7032
d691  c8         INY         A:00 X:33 Y:c2 P:27 SP:fb CYC:7038
d692  a9 40      LDA #$40    A:00 X:33 Y:c3 P:a5 SP:fb CYC:7040
d694  8d 78 06   STA $0678   A:40 X:33 Y:c3 P:25 SP:fb CYC:7042
d697  20 89 f8   JSR $f889   A:40 X:33 Y:c3 P:25 SP:fb CYC:7046
f889  24 01      BIT $01     A:40 X:33 Y:c3 P:25 SP:f9 CYC:7052
f88b  a9 40      LDA #$40    A:40 X:33 Y:c3 P:e5 SP:f9 CYC:7055
f88d  60         RTS         A:40 X:33 Y:c3 P:65 SP:f9 CYC:7057
d69a  cd 78 06   CMP $0678   A:40 X:33 Y:c3 P:65 SP:fb CYC:7063
d69d  20 8e f8   JSR $f88e   A:40 X:33 Y:c3 P:67 SP:fb CYC:7067
f88e  30 07      BMI $f897   A:40 X:33 Y:c3 P:67 SP:f9 CYC:7073
f890  90 05      BCC $f897   A:40 X:33 Y:c3 P:67 SP:f9 CYC:7075
f892  d0 03      BNE $f897   A:40 X:33 Y:c3 P:67 SP:f9 CYC:7077
f894  50 01      BVC $f897   A:40 X:33 Y:c3 P:67 SP:f9 CYC:7079
f896  60         RTS         A:40 X:33 Y:c3 P:67 SP:f9 CYC:7081
d6a0  c8         INY         A:40 X:33 Y:c3 P:67 SP:fb CYC:7087
d6a1  48         PHA         A:40 X:33 Y:c4 P:e5 SP:fb CYC:7089
d6a2  a9 3f      LDA #$3f    A:40 X:33 Y:c4 P:e5 SP:fa CYC:7092
d6a4  8d 78 06   STA $0678   A:3f X:33 Y:c4 P:65 SP:fa CYC:7094
d6a7  68         PLA         A:3f X:33 Y:c4 P:65 SP:fa CYC:7098
d6a8  20 9a f8   JSR $f89a   A:40 X:33 Y:c4 P:65 SP:fb CYC:7102
f89a  b8         CLV         A:40 X:33 Y:c4 P:65 SP:f9 CYC:7108
f89b  60         RTS         A:40 X:33 Y:c4 P:25 SP:f9 CYC:7110
d6ab  cd 78 06   CMP $0678   A:40 X:33 Y:c4 P:25 SP:fb CYC:7116
d6ae  20 9c f8   JSR $f89c   A:40 X:33 Y:c4 P:25 SP:fb CYC:7120
f89c  f0 07      BEQ $f8a5   A:40 X:33 Y:c4 P:25 SP:f9 CYC:7126
f89e  30 05      BMI $f8a5   A:40 X:33 Y:c4 P:25 SP:f9 CYC:7128
f8a0  90 03      BCC $f8a5   A:40 X:33 Y:c4 P:25 SP:f9 CYC:7130
f8a2  70 01      BVS $f8a5   A:40 X:33 Y:c4 P:25 SP:f9 CYC:7132
f8a4  60         RTS         A:40 X:33 Y:c4 P:25 SP:f9 CYC:7134
d6b1  c8         INY         A:40 X:33 Y:c4 P:25 SP:fb CYC:7140
d6b2  48         PHA         A:40 X:33 Y:c5 P:a5 SP:fb CYC:7142
d6b3  a9 41      LDA #$41    A:40 X:33 Y:c5 P:a5 SP:fa CYC:7145
d6b5  8d 78 06   STA $0678   A:41 X:33 Y:c5 P:25 SP:fa CYC:7147
d6b8  68         PLA         A:41 X:33 Y:c5 P:25 SP:fa CYC:7151
d6b9  cd 78 06   CMP $0678   A:40 X:33 Y:c5 P:25 SP:fb CYC:7155
d6bc  20 a8 f8   JSR $f8a8   A:40 X:33 Y:c5 P:a4 SP:fb CYC:7159
f8a8  f0 05      BEQ $f8af   A:40 X:33 Y:c5 P:a4 SP:f9 CYC:7165
f8aa  10 03      BPL $f8af   A:40 X:33 Y:c5 P:a4 SP:f9 CYC:7167
f8ac  10 01      BPL $f8af   A:40 X:33 Y:c5 P:a4 SP:f9 CYC:7169
f8ae  60         RTS         A:40 X:33 Y:c5 P:a4 SP:f9 CYC:7171
d6bf  c8         INY         A:40 X:33 Y:c5 P:a4 SP:fb CYC:7177
d6c0  48         PHA         A:40 X:33 Y:c6 P:a4 SP:fb CYC:7179
d6c1  a9 00      LDA #$00    A:40 X:33 Y:c6 P:a4 SP:fa CYC:7182
d6c3  8d 78 06   STA $0678   A:00 X:33 Y:c6 P:26 SP:fa CYC:7184
d6c6  68         PLA         A:00 X:33 Y:c6 P:26 SP:fa CYC:7188
d6c7  20 b2 f8   JSR $f8b2   A:40 X:33 Y:c6 P:24 SP:fb CYC:7192
f8b2  a9 80      LDA #$80    A:40 X:33 Y:c6 P:24 SP:f9 CYC:7198
f8b4  60         RTS         A:80 X:33 Y:c6 P:a4 SP:f9 CYC:7200
d6ca  cd 78 06   CMP $0678   A:80 X:33 Y:c6 P:a4 SP:fb CYC:7206
d6cd  20 b5 f8   JSR $f8b5   A:80 X:33 Y:c6 P:a5 SP:fb CYC:7210
f8b5  f0 05      BEQ $f8bc   A:80 X:33 Y:c6 P:a5 SP:f9 CYC:7216
f8b7  10 03      BPL $f8bc   A:80 X:33 Y:c6 P:a5 SP:f9 CYC:7218
f8b9  90 01      BCC $f8bc   A:80 X:33 Y:c6 P:a5 SP:f9 CYC:7220
f8bb  60         RTS         A:80 X:33 Y:c6 P:a5 SP:f9 CYC:7222
d6d0  c8         INY         A:80 X:33 Y:c6 P:a5 SP:fb CYC:7228
d6d1  48         PHA         A:80 X:33 Y:c7 P:a5 SP:fb CYC:7230
d6d2  a9 80      LDA #$80    A:80 X:33 Y:c7 P:a5 SP:fa CYC:7233
d6d4  8d 78 06   STA $0678   A:80 X:33 Y:c7 P:a5 SP:fa CYC:7235
d6d7  68         PLA         A:80 X:33 Y:c7 P:a5 SP:fa CYC:7239
d6d8  cd 78 06   CMP $0678   A:80 X:33 Y:c7 P:a5 SP:fb CYC:7243
d6db  20 bf f8   JSR $f8bf   A:80 X:33 Y:c7 P:27 SP:fb CYC:7247
f8bf  d0 05      BNE $f8c6   A:80 X:33 Y:c7 P:27 SP:f9 CYC:7253
f8c1  30 03      BMI $f8c6   A:80 X:33 Y:c7 P:27 SP:f9 CYC:7255
f8c3  90 01      BCC $f8c6   A:80 X:33 Y:c7 P:27 SP:f9 CYC:7257
f8c5  60         RTS         A:80 X:33 Y:c7 P:27 SP:f9 CYC:7259
d6de  c8         INY         A:80 X:33 Y:c7 P:27 SP:fb CYC:7265
d6df  48         PHA         A:80 X:33 Y:c8 P:a5 SP:fb CYC:7267
d6e0  a9 81      LDA #$81    A:80 X:33 Y:c8 P:a5 SP:fa CYC:7270
d6e2  8d 78 06   STA $0678   A:81 X:33 Y:c8 P:a5 SP:fa CYC:7272
d6e5  68         PLA         A:81 X:33 Y:c8 P:a5 SP:fa CYC:7276
d6e6  cd 78 06   CMP $0678   A:80 X:33 Y:c8 P:a5 SP:fb CYC:7280
d6e9  20 c9 f8   JSR $f8c9   A:80 X:33 Y:c8 P:a4 SP:fb CYC:7284
f8c9  b0 05      BCS $f8d0   A:80 X:33 Y:c8 P:a4 SP:f9 CYC:7290
f8cb  f0 03      BEQ $f8d0   A:80 X:33 Y:c8 P:a4 SP:f9 CYC:7292
f8cd  10 01      BPL $f8d0   A:80 X:33 Y:c8 P:a4 SP:f9 CYC:7294
f8cf  60         RTS         A:80 X:33 Y:c8 P:a4 SP:f9 CYC:7296
d6ec  c8         INY         A:80 X:33 Y:c8 P:a4 SP:fb CYC:7302
d6ed  48         PHA         A:80 X:33 Y:c9 P:a4 SP:fb CYC:7304
d6ee  a9 7f      LDA #$7f    A:80 X:33 Y:c9 P:a4 SP:fa CYC:7307
d6f0  8d 78 06   STA $0678   A:7f X:33 Y:c9 P:24 SP:fa CYC:7309
d6f3  68         PLA         A:7f X:33 Y:c9 P:24 SP:fa CYC:7313
d6f4  cd 78 06   CMP $0678   A:80 X:33 Y:c9 P:a4 SP:fb CYC:7317
d6f7  20 d3 f8   JSR $f8d3   A:80 X:33 Y:c9 P:25 SP:fb CYC:7321
f8d3  90 05      BCC $f8da   A:80 X:33 Y:c9 P:25 SP:f9 CYC:7327
f8d5  f0 03      BEQ $f8da   A:80 X:33 Y:c9 P:25 SP:f9 CYC:7329
f8d7  30 01      BMI $f8da   A:80 X:33 Y:c9 P:25 SP:f9 CYC:7331
f8d9  60         RTS         A:80 X:33 Y:c9 P:25 SP:f9 CYC:7333
d6fa  c8         INY         A:80 X:33 Y:c9 P:25 SP:fb CYC:7339
d6fb  a9 40      LDA #$40    A:80 X:33 Y:ca P:a5 SP:fb CYC:7341
d6fd  8d 78 06   STA $0678   A:40 X:33 Y:ca P:25 SP:fb CYC:7343
d700  20 31 f9   JSR $f931   A:40 X:33 Y:ca P:25 SP:fb CYC:7347
f931  24 01      BIT $01     A:40 X:33 Y:ca P:25 SP:f9 CYC:7353
f933  a9 40      LDA #$40    A:40 X:33 Y:ca P:e5 SP:f9 CYC:7356
f935  38         SEC         A:40 X:33 Y:ca P:65 SP:f9 CYC:7358
f936  60         RTS         A:40 X:33 Y:ca P:65 SP:f9 CYC:7360
d703  ed 78 06   SBC $0678   A:40 X:33 Y:ca P:65 SP:fb CYC:7366
d706  20 37 f9   JSR $f937   A:00 X:33 Y:ca P:27 SP:fb CYC:7370
f937  30 0b      BMI $f944   A:00 X:33 Y:ca P:27 SP:f9 CYC:7376
f939  90 09      BCC $f944   A:00 X:33 Y:ca P:27 SP:f9 CYC:7378
f93b  d0 07      BNE $f944   A:00 X:33 Y:ca P:27 SP:f9 CYC:7380
f93d  70 05      BVS $f944   A:00 X:33 Y:ca P:27 SP:f9 CYC:7382
f93f  c9 00      CMP #$00    A:00 X:33 Y:ca P:27 SP:f9 CYC:7384
f941  d0 01      BNE $f944   A:00 X:33 Y:ca P:27 SP:f9 CYC:7386
f943  60         RTS         A:00 X:33 Y:ca P:27 SP:f9 CYC:7388
d709  c8         INY         A:00 X:33 Y:ca P:27 SP:fb CYC:7394
d70a  a9 3f      LDA #$3f    A:00 X:33 Y:cb P:a5 SP:fb CYC:7396
d70c  8d 78 06   STA $0678   A:3f X:33 Y:cb P:25 SP:fb CYC:7398
d70f  20 47 f9   JSR $f947   A:3f X:33 Y:cb P:25 SP:fb CYC:7402
f947  b8         CLV         A:3f X:33 Y:cb P:25 SP:f9 CYC:7408
f948  38         SEC         A:3f X:33 Y:cb P:25 SP:f9 CYC:7410
f949  a9 40      LDA #$40    A:3f X:33 Y:cb P:25 SP:f9 CYC:7412
f94b  60         RTS         A:40 X:33 Y:cb P:25 SP:f9 CYC:7414
d712  ed 78 06   SBC $0678   A:40 X:33 Y:cb P:25 SP:fb CYC:7420
d715  20 4c f9   JSR $f94c   A:01 X:33 Y:cb P:25 SP:fb CYC:7424
f94c  f0 0b      BEQ $f959   A:01 X:33 Y:cb P:25 SP:f9 CYC:7430
f94e  30 09      BMI $f959   A:01 X:33 Y:cb P:25 SP:f9 CYC:7432
f950  90 07      BCC $f959   A:01 X:33 Y:cb P:25 SP:f9 CYC:7434
f952  70 05      BVS $f959   A:01 X:33 Y:cb P:25 SP:f9 CYC:7436
f954  c9 01      CMP #$01    A:01 X:33 Y:cb P:25 SP:f9 CYC:7438
f956  d0 01      BNE $f959   A:01 X:33 Y:cb P:27 SP:f9 CYC:7440
f958  60         RTS         A:01 X:33 Y:cb P:27 SP:f9 CYC:7442
d718  c8         INY         A:01 X:33 Y:cb P:27 SP:fb CYC:7448
d719  a9 41      LDA #$41    A:01 X:33 Y:cc P:a5 SP:fb CYC:7450
d71b  8d 78 06   STA $0678   A:41 X:33 Y:cc P:25 SP:fb CYC:7452
d71e  20 5c f9   JSR $f95c   A:41 X:33 Y:cc P:25 SP:fb CYC:7456
f95c  a9 40      LDA #$40    A:41 X:33 Y:cc P:25 SP:f9 CYC:7462
f95e  38         SEC         A:40 X:33 Y:cc P:25 SP:f9 CYC:7464
f95f  24 01      BIT $01     A:40 X:33 Y:cc P:25 SP:f9 CYC:7466
f961  60         RTS         A:40 X:33 Y:cc P:e5 SP:f9 CYC:7469
d721  ed 78 06   SBC $0678   A:40 X:33 Y:cc P:e5 SP:fb CYC:7475
d724  20 62 f9   JSR $f962   A:ff X:33 Y:cc P:a4 SP:fb CYC:7479
f962  b0 0b      BCS $f96f   A:ff X:33 Y:cc P:a4 SP:f9 CYC:7485
f964  f0 09      BEQ $f96f   A:ff X:33 Y:cc P:a4 SP:f9 CYC:7487
f966  10 07      BPL $f96f   A:ff X:33 Y:cc P:a4 SP:f9 CYC:7489
f968  70 05      BVS $f96f   A:ff X:33 Y:cc P:a4 SP:f9 CYC:7491
f96a  c9 ff      CMP #$ff    A:ff X:33 Y:cc P:a4 SP:f9 CYC:7493
f96c  d0 01      BNE $f96f   A:ff X:33 Y:cc P:27 SP:f9 CYC:7495
f96e  60         RTS         A:ff X:33 Y:cc P:27 SP:f9 CYC:7497
d727  c8         INY         A:ff X:33 Y:cc P:27 SP:fb CYC:7503
d728  a9 00      LDA #$00    A:ff X:33 Y:cd P:a5 SP:fb CYC:7505
d72a  8d 78 06   STA $0678   A:00 X:33 Y:cd P:27 SP:fb CYC:7507
d72d  20 72 f9   JSR $f972   A:00 X:33 Y:cd P:27 SP:fb CYC:7511
f972  18         CLC         A:00 X:33 Y:cd P:27 SP:f9 CYC:7517
f973  a9 80      LDA #$80    A:00 X:33 Y:cd P:26 SP:f9 CYC:7519
f975  60         RTS         A:80 X:33 Y:cd P:a4 SP:f9 CYC:7521
d730  ed 78 06   SBC $0678   A:80 X:33 Y:cd P:a4 SP:fb CYC:7527
d733  20 76 f9   JSR $f976   A:7f X:33 Y:cd P:65 SP:fb CYC:7531
f976  90 05      BCC $f97d   A:7f X:33 Y:cd P:65 SP:f9 CYC:7537
f978  c9 7f      CMP #$7f    A:7f X:33 Y:cd P:65 SP:f9 CYC:7539
f97a  d0 01      BNE $f97d   A:7f X:33 Y:cd P:67 SP:f9 CYC:7541
f97c  60         RTS         A:7f X:33 Y:cd P:67 SP:f9 CYC:7543
d736  c8         INY         A:7f X:33 Y:cd P:67 SP:fb CYC:7549
d737  a9 7f      LDA #$7f    A:7f X:33 Y:ce P:e5 SP:fb CYC:7551
d739  8d 78 06   STA $0678   A:7f X:33 Y:ce P:65 SP:fb CYC:7553
d73c  20 80 f9   JSR $f980   A:7f X:33 Y:ce P:65 SP:fb CYC:7557
f980  38         SEC         A:7f X:33 Y:ce P:65 SP:f9 CYC:7563
f981  a9 81      LDA #$81    A:7f X:33 Y:ce P:65 SP:f9 CYC:7565
f983  60         RTS         A:81 X:33 Y:ce P:e5 SP:f9 CYC:7567
d73f  ed 78 06   SBC $0678   A:81 X:33 Y:ce P:e5 SP:fb CYC:7573
d742  20 84 f9   JSR $f984   A:02 X:33 Y:ce P:65 SP:fb CYC:7577
f984  50 07      BVC $f98d   A:02 X:33 Y:ce P:65 SP:f9 CYC:7583
f986  90 05      BCC $f98d   A:02 X:33 Y:ce P:65 SP:f9 CYC:7585
f988  c9 02      CMP #$02    A:02 X:33 Y:ce P:65 SP:f9 CYC:7587
f98a  d0 01      BNE $f98d   A:02 X:33 Y:ce P:67 SP:f9 CYC:7589
f98c  60         RTS         A:02 X:33 Y:ce P:67 SP:f9 CYC:7591
d745  c8         INY         A:02 X:33 Y:ce P:67 SP:fb CYC:7597
d746  a9 40      LDA #$40    A:02 X:33 Y:cf P:e5 SP:fb CYC:7599
d748  8d 78 06   STA $0678   A:40 X:33 Y:cf P:65 SP:fb CYC:7601
d74b  20 89 f8   JSR $f889   A:40 X:33 Y:cf P:65 SP:fb CYC:7605
f889  24 01      BIT $01     A:40 X:33 Y:cf P:65 SP:f9 CYC:7611
f88b  a9 40      LDA #$40    A:40 X:33 Y:cf P:e5 SP:f9 CYC:7614
f88d  60         RTS         A:40 X:33 Y:cf P:65 SP:f9 CYC:7616
d74e  aa         TAX         A:40 X:33 Y:cf P:65 SP:fb CYC:7622
d74f  ec 78 06   CPX $0678   A:40 X:40 Y:cf P:65 SP:fb CYC:7624
d752  20 8e f8   JSR $f88e   A:40 X:40 Y:cf P:67 SP:fb CYC:7628
f88e  30 07      BMI $f897   A:40 X:40 Y:cf P:67 SP:f9 CYC:7634
f890  90 05      BCC $f897   A:40 X:40 Y:cf P:67 SP:f9 CYC:7636
f892  d0 03      BNE $f897   A:40 X:40 Y:cf P:67 SP:f9 CYC:7638
f894  50 01      BVC $f897   A:40 X:40 Y:cf P:67 SP:f9 CYC:7640
f896  60         RTS         A:40 X:40 Y:cf P:67 SP:f9 CYC:7642
d755  c8         INY         A:40 X:40 Y:cf P:67 SP:fb CYC:7648
d756  a9 3f      LDA #$3f    A:40 X:40 Y:d0 P:e5 SP:fb CYC:7650
d758  8d 78 06   STA $0678   A:3f X:40 Y:d0 P:65 SP:fb CYC:7652
d75b  20 9a f8   JSR $f89a   A:3f X:40 Y:d0 P:65 SP:fb CYC:7656
f89a  b8         CLV         A:3f X:40 Y:d0 P:65 SP:f9 CYC:7662
f89b  60         RTS         A:3f X:40 Y:d0 P:25 SP:f9 CYC:7664
d75e  ec 78 06   CPX $0678   A:3f X:40 Y:d0 P:25 SP:fb CYC:7670
d761  20 9c f8   JSR $f89c   A:3f X:40 Y:d0 P:25 SP:fb CYC:7674
f89c  f0 07      BEQ $f8a5   A:3f X:40 Y:d0 P:25 SP:f9 CYC:7680
f89e  30 05      BMI $f8a5   A:3f X:40 Y:d0 P:25 SP:f9 CYC:7682
f8a0  90 03      BCC $f8a5   A:3f X:40 Y:d0 P:25 SP:f9 CYC:7684
f8a2  70 01      BVS $f8a5   A:3f X:40 Y:d0 P:25 SP:f9 CYC:7686
f8a4  60         RTS         A:3f X:40 Y:d0 P:25 SP:f9 CYC:7688
d764  c8         INY         A:3f X:40 Y:d0 P:25 SP:fb CYC:7694
d765  a9 41      LDA #$41    A:3f X:40 Y:d1 P:a5 SP:fb CYC:7696
d767  8d 78 06   STA $0678   A:41 X:40 Y:d1 P:25 SP:fb CYC:7698
d76a  ec 78 06   CPX $0678   A:41 X:40 Y:d1 P:25 SP:fb CYC:7702
d76d  20 a8 f8   JSR $f8a8   A:41 X:40 Y:d1 P:a4 SP:fb CYC:7706
f8a8  f0 05      BEQ $f8af   A:41 X:40 Y:d1 P:a4 SP:f9 CYC:7712
f8aa  10 03      BPL $f8af   A:41 X:40 Y:d1 P:a4 SP:f9 CYC:7714
f8ac  10 01      BPL $f8af   A:41 X:40 Y:d1 P:a4 SP:f9 CYC:7716
f8ae  60         RTS         A:41 X:40 Y:d1 P:a4 SP:f9 CYC:7718
d770  c8         INY         A:41 X:40 Y:d1 P:a4 SP:fb CYC:7724
d771  a9 00      LDA #$00    A:41 X:40 Y:d2 P:a4 SP:fb CYC:7726
d773  8d 78 06   STA $0678   A:00 X:40 Y:d2 P:26 SP:fb CYC:7728
d776  20 b2 f8   JSR $f8b2   A:00 X:40 Y:d2 P:26 SP:fb CYC:7732
f8b2  a9 80      LDA #$80    A:00 X:40 Y:d2 P:26 SP:f9 CYC:7738
f8b4  60         RTS         A:80 X:40 Y:d2 P:a4 SP:f9 CYC:7740
d779  aa         TAX         A:80 X:40 Y:d2 P:a4 SP:fb CYC:7746
d77a  ec 78 06   CPX $0678   A:80 X:80 Y:d2 P:a4 SP:fb CYC:7748
d77d  20 b5 f8   JSR $f8b5   A:80 X:80 Y:d2 P:a5 SP:fb CYC:7752
f8b5  f0 05      BEQ $f8bc   A:80 X:80 Y:d2 P:a5 SP:f9 CYC:7758
f8b7  10 03      BPL $f8bc   A:80 X:80 Y:d2 P:a5 SP:f9 CYC:7760
f8b9  90 01      BCC $f8bc   A:80 X:80 Y:d2 P:a5 SP:f9 CYC:7762
f8bb  60         RTS         A:80 X:80 Y:d2 P:a5 SP:f9 CYC:7764
d780  c8         INY         A:80 X:80 Y:d2 P:a5 SP:fb CYC:7770
d781  a9 80      LDA #$80    A:80 X:80 Y:d3 P:a5 SP:fb CYC:7772
d783  8d 78 06   STA $0678   A:80 X:80 Y:d3 P:a5 SP:fb CYC:7774
d786  ec 78 06   CPX $0678   A:80 X:80 Y:d3 P:a5 SP:fb CYC:7778
d789  20 bf f8   JSR $f8bf   A:80 X:80 Y:d3 P:27 SP:fb CYC:7782
f8bf  d0 05      BNE $f8c6   A:80 X:80 Y:d3 P:27 SP:f9 CYC:7788
f8c1  30 03      BMI $f8c6   A:80 X:80 Y:d3 P:27 SP:f9 CYC:7790
f8c3  90 01      BCC $f8c6   A:80 X:80 Y:d3 P:27 SP:f9 CYC:7792
f8c5  60         RTS         A:80 X:80 Y:d3 P:27 SP:f9 CYC:7794
d78c  c8         INY         A:80 X:80 Y:d3 P:27 SP:fb CYC:7800
d78d  a9 81      LDA #$81    A:80 X:80 Y:d4 P:a5 SP:fb CYC:7802
d78f  8d 78 06   STA $0678   A:81 X:80 Y:d4 P:a5 SP:fb CYC:7804
d792  ec 78 06   CPX $0678   A:81 X:80 Y:d4 P:a5 SP:fb CYC:7808
d795  20 c9 f8   JSR $f8c9   A:81 X:80 Y:d4 P:a4 SP:fb CYC:7812
f8c9  b0 05      BCS $f8d0   A:81 X:80 Y:d4 P:a4 SP:f9 CYC:7818
f8cb  f0 03      BEQ $f8d0   A:81 X:80 Y:d4 P:a4 SP:f9 CYC:7820
f8cd  10 01      BPL $f8d0   A:81 X:80 Y:d4 P:a4 SP:f9 CYC:7822
f8cf  60         RTS         A:81 X:80 Y:d4 P:a4 SP:f9 CYC:7824
d798  c8         INY         A:81 X:80 Y:d4 P:a4 SP:fb CYC:7830
d799  a9 7f      LDA #$7f    A:81 X:80 Y:d5 P:a4 SP:fb CYC:7832
d79b  8d 78 06   STA $0678   A:7f X:80 Y:d5 P:24 SP:fb CYC:7834
d79e  ec 78 06   CPX $0678   A:7f X:80 Y:d5 P:24 SP:fb CYC:7838
d7a1  20 d3 f8   JSR $f8d3   A:7f X:80 Y:d5 P:25 SP:fb CYC:7842
f8d3  90 05      BCC $f8da   A:7f X:80 Y:d5 P:25 SP:f9 CYC:7848
f8d5  f0 03      BEQ $f8da   A:7f X:80 Y:d5 P:25 SP:f9 CYC:7850
f8d7  30 01      BMI $f8da   A:7f X:80 Y:d5 P:25 SP:f9 CYC:7852
f8d9  60         RTS         A:7f X:80 Y:d5 P:25 SP:f9 CYC:7854
d7a4  c8         INY         A:7f X:80 Y:d5 P:25 SP:fb CYC:7860
d7a5  98         TYA         A:7f X:80 Y:d6 P:a5 SP:fb CYC:7862
d7a6  aa         TAX         A:d6 X:80 Y:d6 P:a5 SP:fb CYC:7864
d7a7  a9 40      LDA #$40    A:d6 X:d6 Y:d6 P:a5 SP:fb CYC:7866
d7a9  8d 78 06   STA $0678   A:40 X:d6 Y:d6 P:25 SP:fb CYC:7868
d7ac  20 dd f8   JSR $f8dd   A:40 X:d6 Y:d6 P:25 SP:fb CYC:7872
f8dd  24 01      BIT $01     A:40 X:d6 Y:d6 P:25 SP:f9 CYC:7878
f8df  a0 40      LDY #$40    A:40 X:d6 Y:d6 P:e5 SP:f9 CYC:7881
f8e1  60         RTS         A:40 X:d6 Y:40 P:65 SP:f9 CYC:7883
d7af  cc 78 06   CPY $0678   A:40 X:d6 Y:40 P:65 SP:fb CYC:7889
d7b2  20 e2 f8   JSR $f8e2   A:40 X:d6 Y:40 P:67 SP:fb CYC:7893
f8e2  30 07      BMI $f8eb   A:40 X:d6 Y:40 P:67 SP:f9 CYC:7899
f8e4  90 05      BCC $f8eb   A:40 X:d6 Y:40 P:67 SP:f9 CYC:7901
f8e6  d0 03      BNE $f8eb   A:40 X:d6 Y:40 P:67 SP:f9 CYC:7903
f8e8  50 01      BVC $f8eb   A:40 X:d6 Y:40 P:67 SP:f9 CYC:7905
f8ea  60         RTS         A:40 X:d6 Y:40 P:67 SP:f9 CYC:7907
d7b5  e8         INX         A:40 X:d6 Y:40 P:67 SP:fb CYC:7913
d7b6  a9 3f      LDA #$3f    A:40 X:d7 Y:40 P:e5 SP:fb CYC:7915
d7b8  8d 78 06   STA $0678   A:3f X:d7 Y:40 P:65 SP:fb CYC:7917
d7bb  20 ee f8   JSR $f8ee   A:3f X:d7 Y:40 P:65 SP:fb CYC:7921
f8ee  b8         CLV         A:3f X:d7 Y:40 P:65 SP:f9 CYC:7927
f8ef  60         RTS         A:3f X:d7 Y:40 P:25 SP:f9 CYC:7929
d7be  cc 78 06   CPY $0678   A:3f X:d7 Y:40 P:25 SP:fb CYC:7935
d7c1  20 f0 f8   JSR $f8f0   A:3f X:d7 Y:40 P:25 SP:fb CYC:7939
f8f0  f0 07      BEQ $f8f9   A:3f X:d7 Y:40 P:25 SP:f9 CYC:7945
f8f2  30 05      BMI $f8f9   A:3f X:d7 Y:40 P:25 SP:f9 CYC:7947
f8f4  90 03      BCC $f8f9   A:3f X:d7 Y:40 P:25 SP:f9 CYC:7949
f8f6  70 01      BVS $f8f9   A:3f X:d7 Y:40 P:25 SP:f9 CYC:7951
f8f8  60         RTS         A:3f X:d7 Y:40 P:25 SP:f9 CYC:7953
d7c4  e8         INX         A:3f X:d7 Y:40 P:25 SP:fb CYC:7959
d7c5  a9 41      LDA #$41    A:3f X:d8 Y:40 P:a5 SP:fb CYC:7961
d7c7  8d 78 06   STA $0678   A:41 X:d8 Y:40 P:25 SP:fb CYC:7963
d7ca  cc 78 06   CPY $0678   A:41 X:d8 Y:40 P:25 SP:fb CYC:7967
d7cd  20 fc f8   JSR $f8fc   A:41 X:d8 Y:40 P:a4 SP:fb CYC:7971
f8fc  f0 05      BEQ $f903   A:41 X:d8 Y:40 P:a4 SP:f9 CYC:7977
f8fe  10 03      BPL $f903   A:41 X:d8 Y:40 P:a4 SP:f9 CYC:7979
f900  10 01      BPL $f903   A:41 X:d8 Y:40 P:a4 SP:f9 CYC:7981
f902  60         RTS         A:41 X:d8 Y:40 P:a4 SP:f9 CYC:7983
d7d0  e8         INX         A:41 X:d8 Y:40 P:a4 SP:fb CYC:7989
d7d1  a9 00      LDA #$00    A:41 X:d9 Y:40 P:a4 SP:fb CYC:7991
d7d3  8d 78 06   STA $0678   A:00 X:d9 Y:40 P:26 SP:fb CYC:7993
d7d6  20 06 f9   JSR $f906   A:00 X:d9 Y:40 P:26 SP:fb CYC:7997
f906  a0 80      LDY #$80    A:00 X:d9 Y:40 P:26 SP:f9 CYC:8003
f908  60         RTS         A:00 X:d9 Y:80 P:a4 SP:f9 CYC:8005
d7d9  cc 78 06   CPY $0678   A:00 X:d9 Y:80 P:a4 SP:fb CYC:8011
d7dc  20 09 f9   JSR $f909   A:00 X:d9 Y:80 P:a5 SP:fb CYC:8015
f909  f0 05      BEQ $f910   A:00 X:d9 Y:80 P:a5 SP:f9 CYC:8021
f90b  10 03      BPL $f910   A:00 X:d9 Y:80 P:a5 SP:f9 CYC:8023
f90d  90 01      BCC $f910   A:00 X:d9 Y:80 P:a5 SP:f9 CYC:8025
f90f  60         RTS         A:00 X:d9 Y:80 P:a5 SP:f9 CYC:8027
d7df  e8         INX         A:00 X:d9 Y:80 P:a5 SP:fb CYC:8033
d7e0  a9 80      LDA #$80    A:00 X:da Y:80 P:a5 SP:fb CYC:8035
d7e2  8d 78 06   STA $0678   A:80 X:da Y:80 P:a5 SP:fb CYC:8037
d7e5  cc 78 06   CPY $0678   A:80 X:da Y:80 P:a5 SP:fb CYC:8041
d7e8  20 13 f9   JSR $f913   A:80 X:da Y:80 P:27 SP:fb CYC:8045
f913  d0 05      BNE $f91a   A:80 X:da Y:80 P:27 SP:f9 CYC:8051
f915  30 03      BMI $f91a   A:80 X:da Y:80 P:27 SP:f9 CYC:8053
f917  90 01      BCC $f91a   A:80 X:da Y:80 P:27 SP:f9 CYC:8055
f919  60         RTS         A:80 X:da Y:80 P:27 SP:f9 CYC:8057
d7eb  e8         INX         A:80 X:da Y:80 P:27 SP:fb CYC:8063
d7ec  a9 81      LDA #$81    A:80 X:db Y:80 P:a5 SP:fb CYC:8065
d7ee  8d 78 06   STA $0678   A:81 X:db Y:80 P:a5 SP:fb CYC:8067
d7f1  cc 78 06   CPY $0678   A:81 X:db Y:80 P:a5 SP:fb CYC:8071
d7f4  20 1d f9   JSR $f91d   A:81 X:db Y:80 P:a4 SP:fb CYC:8075
f91d  b0 05      BCS $f924   A:81 X:db Y:80 P:a4 SP:f9 CYC:8081
f91f  f0 03      BEQ $f924   A:81 X:db Y:80 P:a4 SP:f9 CYC:8083
f921  10 01      BPL $f924   A:81 X:db Y:80 P:a4 SP:f9 CYC:8085
f923  60         RTS         A:81 X:db Y:80 P:a4 SP:f9 CYC:8087
d7f7  e8         INX         A:81 X:db Y:80 P:a4 SP:fb CYC:8093
d7f8  a9 7f      LDA #$7f    A:81 X:dc Y:80 P:a4 SP:fb CYC:8095
d7fa  8d 78 06   STA $0678   A:7f X:dc Y:80 P:24 SP:fb CYC:8097
d7fd  cc 78 06   CPY $0678   A:7f X:dc Y:80 P:24 SP:fb CYC:8101
d800  20 27 f9   JSR $f927   A:7f X:dc Y:80 P:25 SP:fb CYC:8105
f927  90 05      BCC $f92e   A:7f X:dc Y:80 P:25 SP:f9 CYC:8111
f929  f0 03      BEQ $f92e   A:7f X:dc Y:80 P:25 SP:f9 CYC:8113
f92b  30 01      BMI $f92e   A:7f X:dc Y:80 P:25 SP:f9 CYC:8115
f92d  60         RTS         A:7f X:dc Y:80 P:25 SP:f9 CYC:8117
d803  e8         INX         A:7f X:dc Y:80 P:25 SP:fb CYC:8123
d804  8a         TXA         A:7f X:dd Y:80 P:a5 SP:fb CYC:8125
d805  a8         TAY         A:dd X:dd Y:80 P:a5 SP:fb CYC:8127
d806  20 90 f9   JSR $f990   A:dd X:dd Y:dd P:a5 SP:fb CYC:8129
f990  a2 55      LDX #$55    A:dd X:dd Y:dd P:a5 SP:f9 CYC:8135
f992  a9 ff      LDA #$ff    A:dd X:55 Y:dd P:25 SP:f9 CYC:8137
f994  85 01      STA $01     A:ff X:55 Y:dd P:a5 SP:f9 CYC:8139
f996  ea         NOP         A:ff X:55 Y:dd P:a5 SP:f9 CYC:8142
f997  24 01      BIT $01     A:ff X:55 Y:dd P:a5 SP:f9 CYC:8144
f999  38         SEC         A:ff X:55 Y:dd P:e5 SP:f9 CYC:8147
f99a  a9 01      LDA #$01    A:ff X:55 Y:dd P:e5 SP:f9 CYC:8149
f99c  60         RTS         A:01 X:55 Y:dd P:65 SP:f9 CYC:8151
d809  8d 78 06   STA $0678   A:01 X:55 Y:dd P:65 SP:fb CYC:8157
d80c  4e 78 06   LSR $0678   A:01 X:55 Y:dd P:65 SP:fb CYC:8161
d80f  ad 78 06   LDA $0678   A:01 X:55 Y:dd P:67 SP:fb CYC:8167
d812  20 9d f9   JSR $f99d   A:00 X:55 Y:dd P:67 SP:fb CYC:8171
f99d  90 1b      BCC $f9ba   A:00 X:55 Y:dd P:67 SP:f9 CYC:8177
f99f  d0 19      BNE $f9ba   A:00 X:55 Y:dd P:67 SP:f9 CYC:8179
f9a1  30 17      BMI $f9ba   A:00 X:55 Y:dd P:67 SP:f9 CYC:8181
f9a3  50 15      BVC $f9ba   A:00 X:55 Y:dd P:67 SP:f9 CYC:8183
f9a5  c9 00      CMP #$00    A:00 X:55 Y:dd P:67 SP:f9 CYC:8185
f9a7  d0 11      BNE $f9ba   A:00 X:55 Y:dd P:67 SP:f9 CYC:8187
f9a9  b8         CLV         A:00 X:55 Y:dd P:67 SP:f9 CYC:8189
f9aa  a9 aa      LDA #$aa    A:00 X:55 Y:dd P:27 SP:f9 CYC:8191
f9ac  60         RTS         A:aa X:55 Y:dd P:a5 SP:f9 CYC:8193
d815  c8         INY         A:aa X:55 Y:dd P:a5 SP:fb CYC:8199
d816  8d 78 06   STA $0678   A:aa X:55 Y:de P:a5 SP:fb CYC:8201
d819  4e 78 06   LSR $0678   A:aa X:55 Y:de P:a5 SP:fb CYC:8205
d81c  ad 78 06   LDA $0678   A:aa X:55 Y:de P:24 SP:fb CYC:8211
d81f  20 ad f9   JSR $f9ad   A:55 X:55 Y:de P:24 SP:fb CYC:8215
f9ad  b0 0b      BCS $f9ba   A:55 X:55 Y:de P:24 SP:f9 CYC:8221
f9af  f0 09      BEQ $f9ba   A:55 X:55 Y:de P:24 SP:f9 CYC:8223
f9b1  30 07      BMI $f9ba   A:55 X:55 Y:de P:24 SP:f9 CYC:8225
f9b3  70 05      BVS $f9ba   A:55 X:55 Y:de P:24 SP:f9 CYC:8227
f9b5  c9 55      CMP #$55    A:55 X:55 Y:de P:24 SP:f9 CYC:8229
f9b7  d0 01      BNE $f9ba   A:55 X:55 Y:de P:27 SP:f9 CYC:8231
f9b9  60         RTS         A:55 X:55 Y:de P:27 SP:f9 CYC:8233
d822  c8         INY         A:55 X:55 Y:de P:27 SP:fb CYC:8239
d823  20 bd f9   JSR $f9bd   A:55 X:55 Y:df P:a5 SP:fb CYC:8241
f9bd  24 01      BIT $01     A:55 X:55 Y:df P:a5 SP:f9 CYC:8247
f9bf  38         SEC         A:55 X:55 Y:df P:e5 SP:f9 CYC:8250
f9c0  a9 80      LDA #$80    A:55 X:55 Y:df P:e5 SP:f9 CYC:8252
f9c2  60         RTS         A:80 X:55 Y:df P:e5 SP:f9 CYC:8254
d826  8d 78 06   STA $0678   A:80 X:55 Y:df P:e5 SP:fb CYC:8260
d829  0e 78 06   ASL $0678   A:80 X:55 Y:df P:e5 SP:fb CYC:8264
d82c  ad 78 06   LDA $0678   A:80 X:55 Y:df P:67 SP:fb CYC:8270
d82f  20 c3 f9   JSR $f9c3   A:00 X:55 Y:df P:67 SP:fb CYC:8274
f9c3  90 1c      BCC $f9e1   A:00 X:55 Y:df P:67 SP:f9 CYC:8280
f9c5  d0 1a      BNE $f9e1   A:00 X:55 Y:df P:67 SP:f9 CYC:8282
f9c7  30 18      BMI $f9e1   A:00 X:55 Y:df P:67 SP:f9 CYC:8284
f9c9  50 16      BVC $f9e1   A:00 X:55 Y:df P:67 SP:f9 CYC:8286
f9cb  c9 00      CMP #$00    A:00 X:55 Y:df P:67 SP:f9 CYC:8288
f9cd  d0 12      BNE $f9e1   A:00 X:55 Y:df P:67 SP:f9 CYC:8290
f9cf  b8         CLV         A:00 X:55 Y:df P:67 SP:f9 CYC:8292
f9d0  a9 55      LDA #$55    A:00 X:55 Y:df P:27 SP:f9 CYC:8294
f9d2  38         SEC         A:55 X:55 Y:df P:25 SP:f9 CYC:8296
f9d3  60         RTS         A:55 X:55 Y:df P:25 SP:f9 CYC:8298
d832  c8         INY         A:55 X:55 Y:df P:25 SP:fb CYC:8304
d833  8d 78 06   STA $0678   A:55 X:55 Y:e0 P:a5 SP:fb CYC:8306
d836  0e 78 06   ASL $0678   A:55 X:55 Y:e0 P:a5 SP:fb CYC:8310
d839  ad 78 06   LDA $0678   A:55 X:55 Y:e0 P:a4 SP:fb CYC:8316
d83c  20 d4 f9   JSR $f9d4   A:aa X:55 Y:e0 P:a4 SP:fb CYC:8320
f9d4  b0 0b      BCS $f9e1   A:aa X:55 Y:e0 P:a4 SP:f9 CYC:8326
f9d6  f0 09      BEQ $f9e1   A:aa X:55 Y:e0 P:a4 SP:f9 CYC:8328
f9d8  10 07      BPL $f9e1   A:aa X:55 Y:e0 P:a4 SP:f9 CYC:8330
f9da  70 05      BVS $f9e1   A:aa X:55 Y:e0 P:a4 SP:f9 CYC:8332
f9dc  c9 aa      CMP #$aa    A:aa X:55 Y:e0 P:a4 SP:f9 CYC:8334
f9de  d0 01      BNE $f9e1   A:aa X:55 Y:e0 P:27 SP:f9 CYC:8336
f9e0  60         RTS         A:aa X:55 Y:e0 P:27 SP:f9 CYC:8338
d83f  c8         INY         A:aa X:55 Y:e0 P:27 SP:fb CYC:8344
d840  20 e4 f9   JSR $f9e4   A:aa X:55 Y:e1 P:a5 SP:fb CYC:8346
f9e4  24 01      BIT $01     A:aa X:55 Y:e1 P:a5 SP:f9 CYC:8352
f9e6  38         SEC         A:aa X:55 Y:e1 P:e5 SP:f9 CYC:8355
f9e7  a9 01      LDA #$01    A:aa X:55 Y:e1 P:e5 SP:f9 CYC:8357
f9e9  60         RTS         A:01 X:55 Y:e1 P:65 SP:f9 CYC:8359
d843  8d 78 06   STA $0678   A:01 X:55 Y:e1 P:65 SP:fb CYC:8365
d846  6e 78 06   ROR $0678   A:01 X:55 Y:e1 P:65 SP:fb CYC:8369
d849  ad 78 06   LDA $0678   A:01 X:55 Y:e1 P:e5 SP:fb CYC:8375
d84c  20 ea f9   JSR $f9ea   A:80 X:55 Y:e1 P:e5 SP:fb CYC:8379
f9ea  90 1c      BCC $fa08   A:80 X:55 Y:e1 P:e5 SP:f9 CYC:8385
f9ec  f0 1a      BEQ $fa08   A:80 X:55 Y:e1 P:e5 SP:f9 CYC:8387
f9ee  10 18      BPL $fa08   A:80 X:55 Y:e1 P:e5 SP:f9 CYC:8389
f9f0  50 16      BVC $fa08   A:80 X:55 Y:e1 P:e5 SP:f9 CYC:8391
f9f2  c9 80      CMP #$80    A:80 X:55 Y:e1 P:e5 SP:f9 CYC:8393
f9f4  d0 12      BNE $fa08   A:80 X:55 Y:e1 P:67 SP:f9 CYC:8395
f9f6  b8         CLV         A:80 X:55 Y:e1 P:67 SP:f9 CYC:8397
f9f7  18         CLC         A:80 X:55 Y:e1 P:27 SP:f9 CYC:8399
f9f8  a9 55      LDA #$55    A:80 X:55 Y:e1 P:26 SP:f9 CYC:8401
f9fa  60         RTS         A:55 X:55 Y:e1 P:24 SP:f9 CYC:8403
d84f  c8         INY         A:55 X:55 Y:e1 P:24 SP:fb CYC:8409
d850  8d 78 06   STA $0678   A:55 X:55 Y:e2 P:a4 SP:fb CYC:8411
d853  6e 78 06   ROR $0678   A:55 X:55 Y:e2 P:a4 SP:fb CYC:8415
d856  ad 78 06   LDA $0678   A:55 X:55 Y:e2 P:25 SP:fb CYC:8421
d859  20 fb f9   JSR $f9fb   A:2a X:55 Y:e2 P:25 SP:fb CYC:8425
f9fb  90 0b      BCC $fa08   A:2a X:55 Y:e2 P:25 SP:f9 CYC:8431
f9fd  f0 09      BEQ $fa08   A:2a X:55 Y:e2 P:25 SP:f9 CYC:8433
f9ff  30 07      BMI $fa08   A:2a X:55 Y:e2 P:25 SP:f9 CYC:8435
fa01  70 05      BVS $fa08   A:2a X:55 Y:e2 P:25 SP:f9 CYC:8437
fa03  c9 2a      CMP #$2a    A:2a X:55 Y:e2 P:25 SP:f9 CYC:8439
fa05  d0 01      BNE $fa08   A:2a X:55 Y:e2 P:27 SP:f9 CYC:8441
fa07  60         RTS         A:2a X:55 Y:e2 P:27 SP:f9 CYC:8443
d85c  c8         INY         A:2a X:55 Y:e2 P:27 SP:fb CYC:8449
d85d  20 0a fa   JSR $fa0a   A:2a X:55 Y:e3 P:a5 SP:fb CYC:8451
fa0a  24 01      BIT $01     A:2a X:55 Y:e3 P:a5 SP:f9 CYC:8457
fa0c  38         SEC         A:2a X:55 Y:e3 P:e5 SP:f9 CYC:8460
fa0d  a9 80      LDA #$80    A:2a X:55 Y:e3 P:e5 SP:f9 CYC:8462
fa0f  60         RTS         A:80 X:55 Y:e3 P:e5 SP:f9 CYC:8464
d860  8d 78 06   STA $0678   A:80 X:55 Y:e3 P:e5 SP:fb CYC:8470
d863  2e 78 06   ROL $0678   A:80 X:55 Y:e3 P:e5 SP:fb CYC:8474
d866  ad 78 06   LDA $0678   A:80 X:55 Y:e3 P:65 SP:fb CYC:8480
d869  20 10 fa   JSR $fa10   A:01 X:55 Y:e3 P:65 SP:fb CYC:8484
fa10  90 1c      BCC $fa2e   A:01 X:55 Y:e3 P:65 SP:f9 CYC:8490
fa12  f0 1a      BEQ $fa2e   A:01 X:55 Y:e3 P:65 SP:f9 CYC:8492
fa14  30 18      BMI $fa2e   A:01 X:55 Y:e3 P:65 SP:f9 CYC:8494
fa16  50 16      BVC $fa2e   A:01 X:55 Y:e3 P:65 SP:f9 CYC:8496
fa18  c9 01      CMP #$01    A:01 X:55 Y:e3 P:65 SP:f9 CYC:8498
fa1a  d0 12      BNE $fa2e   A:01 X:55 Y:e3 P:67 SP:f9 CYC:8500
fa1c  b8         CLV         A:01 X:55 Y:e3 P:67 SP:f9 CYC:8502
fa1d  18         CLC         A:01 X:55 Y:e3 P:27 SP:f9 CYC:8504
fa1e  a9 55      LDA #$55    A:01 X:55 Y:e3 P:26 SP:f9 CYC:8506
fa20  60         RTS         A:55 X:55 Y:e3 P:24 SP:f9 CYC:8508
d86c  c8         INY         A:55 X:55 Y:e3 P:24 SP:fb CYC:8514
d86d  8d 78 06   STA $0678   A:55 X:55 Y:e4 P:a4 SP:fb CYC:8516
d870  2e 78 06   ROL $0678   A:55 X:55 Y:e4 P:a4 SP:fb CYC:8520
d873  ad 78 06   LDA $0678   A:55 X:55 Y:e4 P:a4 SP:fb CYC:8526
d876  20 21 fa   JSR $fa21   A:aa X:55 Y:e4 P:a4 SP:fb CYC:8530
fa21  b0 0b      BCS $fa2e   A:aa X:55 Y:e4 P:a4 SP:f9 CYC:8536
fa23  f0 09      BEQ $fa2e   A:aa X:55 Y:e4 P:a4 SP:f9 CYC:8538
fa25  10 07      BPL $fa2e   A:aa X:55 Y:e4 P:a4 SP:f9 CYC:8540
fa27  70 05      BVS $fa2e   A:aa X:55 Y:e4 P:a4 SP:f9 CYC:8542
fa29  c9 aa      CMP #$aa    A:aa X:55 Y:e4 P:a4 SP:f9 CYC:8544
fa2b  d0 01      BNE $fa2e   A:aa X:55 Y:e4 P:27 SP:f9 CYC:8546
fa2d  60         RTS         A:aa X:55 Y:e4 P:27 SP:f9 CYC:8548
d879  a9 ff      LDA #$ff    A:aa X:55 Y:e4 P:27 SP:fb CYC:8554
d87b  8d 78 06   STA $0678   A:ff X:55 Y:e4 P:a5 SP:fb CYC:8556
d87e  85 01      STA $01     A:ff X:55 Y:e4 P:a5 SP:fb CYC:8560
d880  24 01      BIT $01     A:ff X:55 Y:e4 P:a5 SP:fb CYC:8563
d882  38         SEC         A:ff X:55 Y:e4 P:e5 SP:fb CYC:8566
d883  ee 78 06   INC $0678   A:ff X:55 Y:e4 P:e5 SP:fb CYC:8568
d886  d0 0d      BNE $d895   A:ff X:55 Y:e4 P:67 SP:fb CYC:8574
d888  30 0b      BMI $d895   A:ff X:55 Y:e4 P:67 SP:fb CYC:8576
d88a  50 09      BVC $d895   A:ff X:55 Y:e4 P:67 SP:fb CYC:8578
d88c  90 07      BCC $d895   A:ff X:55 Y:e4 P:67 SP:fb CYC:8580
d88e  ad 78 06   LDA $0678   A:ff X:55 Y:e4 P:67 SP:fb CYC:8582
d891  c9 00      CMP #$00    A:00 X:55 Y:e4 P:67 SP:fb CYC:8586
d893  f0 04      BEQ $d899   A:00 X:55 Y:e4 P:67 SP:fb CYC:8588
d899  a9 7f      LDA #$7f    A:00 X:55 Y:e4 P:67 SP:fb CYC:8591
d89b  8d 78 06   STA $0678   A:7f X:55 Y:e4 P:65 SP:fb CYC:8593
d89e  b8         CLV         A:7f X:55 Y:e4 P:65 SP:fb CYC:8597
d89f  18         CLC         A:7f X:55 Y:e4 P:25 SP:fb CYC:8599
d8a0  ee 78 06   INC $0678   A:7f X:55 Y:e4 P:24 SP:fb CYC:8601
d8a3  f0 0d      BEQ $d8b2   A:7f X:55 Y:e4 P:a4 SP:fb CYC:8607
d8a5  10 0b      BPL $d8b2   A:7f X:55 Y:e4 P:a4 SP:fb CYC:8609
d8a7  70 09      BVS $d8b2   A:7f X:55 Y:e4 P:a4 SP:fb CYC:8611
d8a9  b0 07      BCS $d8b2   A:7f X:55 Y:e4 P:a4 SP:fb CYC:8613
d8ab  ad 78 06   LDA $0678   A:7f X:55 Y:e4 P:a4 SP:fb CYC:8615
d8ae  c9 80      CMP #$80    A:80 X:55 Y:e4 P:a4 SP:fb CYC:8619
d8b0  f0 04      BEQ $d8b6   A:80 X:55 Y:e4 P:27 SP:fb CYC:8621
d8b6  a9 00      LDA #$00    A:80 X:55 Y:e4 P:27 SP:fb CYC:8624
d8b8  8d 78 06   STA $0678   A:00 X:55 Y:e4 P:27 SP:fb CYC:8626
d8bb  24 01      BIT $01     A:00 X:55 Y:e4 P:27 SP:fb CYC:8630
d8bd  38         SEC         A:00 X:55 Y:e4 P:e7 SP:fb CYC:8633
d8be  ce 78 06   DEC $0678   A:00 X:55 Y:e4 P:e7 SP:fb CYC:8635
d8c1  f0 0d      BEQ $d8d0   A:00 X:55 Y:e4 P:e5 SP:fb CYC:8641
d8c3  10 0b      BPL $d8d0   A:00 X:55 Y:e4 P:e5 SP:fb CYC:8643
d8c5  50 09      BVC $d8d0   A:00 X:55 Y:e4 P:e5 SP:fb CYC:8645
d8c7  90 07      BCC $d8d0   A:00 X:55 Y:e4 P:e5 SP:fb CYC:8647
d8c9  ad 78 06   LDA $0678   A:00 X:55 Y:e4 P:e5 SP:fb CYC:8649
d8cc  c9 ff      CMP #$ff    A:ff X:55 Y:e4 P:e5 SP:fb CYC:8653
d8ce  f0 04      BEQ $d8d4   A:ff X:55 Y:e4 P:67 SP:fb CYC:8655
d8d4  a9 80      LDA #$80    A:ff X:55 Y:e4 P:67 SP:fb CYC:8658
d8d6  8d 78 06   STA $0678   A:80 X:55 Y:e4 P:e5 SP:fb CYC:8660
d8d9  b8         CLV         A:80 X:55 Y:e4 P:e5 SP:fb CYC:8664
d8da  18         CLC         A:80 X:55 Y:e4 P:a5 SP:fb CYC:8666
d8db  ce 78 06   DEC $0678   A:80 X:55 Y:e4 P:a4 SP:fb CYC:8668
d8de  f0 0d      BEQ $d8ed   A:80 X:55 Y:e4 P:24 SP:fb CYC:8674
d8e0  30 0b      BMI $d8ed   A:80 X:55 Y:e4 P:24 SP:fb CYC:8676
d8e2  70 09      BVS $d8ed   A:80 X:55 Y:e4 P:24 SP:fb CYC:8678
d8e4  b0 07      BCS $d8ed   A:80 X:55 Y:e4 P:24 SP:fb CYC:8680
d8e6  ad 78 06   LDA $0678   A:80 X:55 Y:e4 P:24 SP:fb CYC:8682
d8e9  c9 7f      CMP #$7f    A:7f X:55 Y:e4 P:24 SP:fb CYC:8686
d8eb  f0 04      BEQ $d8f1   A:7f X:55 Y:e4 P:27 SP:fb CYC:8688
d8f1  a9 01      LDA #$01    A:7f X:55 Y:e4 P:27 SP:fb CYC:8691
d8f3  8d 78 06   STA $0678   A:01 X:55 Y:e4 P:25 SP:fb CYC:8693
d8f6  ce 78 06   DEC $0678   A:01 X:55 Y:e4 P:25 SP:fb CYC:8697
d8f9  f0 04      BEQ $d8ff   A:01 X:55 Y:e4 P:27 SP:fb CYC:8703
d8ff  60         RTS         A:01 X:55 Y:e4 P:27 SP:fb CYC:8706
c618  20 00 d9   JSR $d900   A:01 X:55 Y:e4 P:27 SP:fd CYC:8712
d900  a9 a3      LDA #$a3    A:01 X:55 Y:e4 P:27 SP:fb CYC:8718
d902  85 33      STA $33     A:a3 X:55 Y:e4 P:a5 SP:fb CYC:8720
d904  a9 89      LDA #$89    A:a3 X:55 Y:e4 P:a5 SP:fb CYC:8723
d906  8d 00 03   STA $0300   A:89 X:55 Y:e4 P:a5 SP:fb CYC:8725
d909  a9 12      LDA #$12    A:89 X:55 Y:e4 P:a5 SP:fb CYC:8729
d90b  8d 45 02   STA $0245   A:12 X:55 Y:e4 P:25 SP:fb CYC:8731
d90e  a9 ff      LDA #$ff    A:12 X:55 Y:e4 P:25 SP:fb CYC:8735
d910  85 01      STA $01     A:ff X:55 Y:e4 P:a5 SP:fb CYC:8737
d912  a2 65      LDX #$65    A:ff X:55 Y:e4 P:a5 SP:fb CYC:8740
d914  a9 00      LDA #$00    A:ff X:65 Y:e4 P:25 SP:fb CYC:8742
d916  85 89      STA $89     A:00 X:65 Y:e4 P:27 SP:fb CYC:8744
d918  a9 03      LDA #$03    A:00 X:65 Y:e4 P:27 SP:fb CYC:8747
d91a  85 8a      STA $8a     A:03 X:65 Y:e4 P:25 SP:fb CYC:8749
d91c  a0 00      LDY #$00    A:03 X:65 Y:e4 P:25 SP:fb CYC:8752
d91e  38         SEC         A:03 X:65 Y:00 P:27 SP:fb CYC:8754
d91f  a9 00      LDA #$00    A:03 X:65 Y:00 P:27 SP:fb CYC:8756
d921  b8         CLV         A:00 X:65 Y:00 P:27 SP:fb CYC:8758
d922  b1 89      LDA ($89),Y A:00 X:65 Y:00 P:27 SP:fb CYC:8760
d924  f0 0c      BEQ $d932   A:89 X:65 Y:00 P:a5 SP:fb CYC:8765
d926  90 0a      BCC $d932   A:89 X:65 Y:00 P:a5 SP:fb CYC:8767
d928  70 08      BVS $d932   A:89 X:65 Y:00 P:a5 SP:fb CYC:8769
d92a  c9 89      CMP #$89    A:89 X:65 Y:00 P:a5 SP:fb CYC:8771
d92c  d0 04      BNE $d932   A:89 X:65 Y:00 P:27 SP:fb CYC:8773
d92e  e0 65      CPX #$65    A:89 X:65 Y:00 P:27 SP:fb CYC:8775
d930  f0 04      BEQ $d936   A:89 X:65 Y:00 P:27 SP:fb CYC:8777
d936  a9 ff      LDA #$ff    A:89 X:65 Y:00 P:27 SP:fb CYC:8780
d938  85 97      STA $97     A:ff X:65 Y:00 P:a5 SP:fb CYC:8782
d93a  85 98      STA $98     A:ff X:65 Y:00 P:a5 SP:fb CYC:8785
d93c  24 98      BIT $98     A:ff X:65 Y:00 P:a5 SP:fb CYC:8788
d93e  a0 34      LDY #$34    A:ff X:65 Y:00 P:e5 SP:fb CYC:8791
d940  b1 97      LDA ($97),Y A:ff X:65 Y:34 P:65 SP:fb CYC:8793
d942  c9 a3      CMP #$a3    A:a3 X:65 Y:34 P:e5 SP:fb CYC:8799
d944  d0 02      BNE $d948   A:a3 X:65 Y:34 P:67 SP:fb CYC:8801
d946  b0 04      BCS $d94c   A:a3 X:65 Y:34 P:67 SP:fb CYC:8803
d94c  a5 00      LDA $00     A:a3 X:65 Y:34 P:67 SP:fb CYC:8806
d94e  48         PHA         A:00 X:65 Y:34 P:67 SP:fb CYC:8809
d94f  a9 46      LDA #$46    A:00 X:65 Y:34 P:67 SP:fa CYC:8812
d951  85 ff      STA $ff     A:46 X:65 Y:34 P:65 SP:fa CYC:8814
d953  a9 01      LDA #$01    A:46 X:65 Y:34 P:65 SP:fa CYC:8817
d955  85 00      STA $00     A:01 X:65 Y:34 P:65 SP:fa CYC:8819
d957  a0 ff      LDY #$ff    A:01 X:65 Y:34 P:65 SP:fa CYC:8822
d959  b1 ff      LDA ($ff),Y A:01 X:65 Y:ff P:e5 SP:fa CYC:8824
d95b  c9 12      CMP #$12    A:12 X:65 Y:ff P:65 SP:fa CYC:8830
d95d  f0 04      BEQ $d963   A:12 X:65 Y:ff P:67 SP:fa CYC:8832
d963  68         PLA         A:12 X:65 Y:ff P:67 SP:fa CYC:8835
d964  85 00      STA $00     A:00 X:65 Y:ff P:67 SP:fb CYC:8839
d966  a2 ed      LDX #$ed    A:00 X:65 Y:ff P:67 SP:fb CYC:8842
d968  a9 00      LDA #$00    A:00 X:ed Y:ff P:e5 SP:fb CYC:8844
d96a  85 33      STA $33     A:00 X:ed Y:ff P:67 SP:fb CYC:8846
d96c  a9 04      LDA #$04    A:00 X:ed Y:ff P:67 SP:fb CYC:8849
d96e  85 34      STA $34     A:04 X:ed Y:ff P:65 SP:fb CYC:8851
d970  a0 00      LDY #$00    A:04 X:ed Y:ff P:65 SP:fb CYC:8854
d972  18         CLC         A:04 X:ed Y:00 P:67 SP:fb CYC:8856
d973  a9 ff      LDA #$ff    A:04 X:ed Y:00 P:66 SP:fb CYC:8858
d975  85 01      STA $01     A:ff X:ed Y:00 P:e4 SP:fb CYC:8860
d977  24 01      BIT $01     A:ff X:ed Y:00 P:e4 SP:fb CYC:8863
d979  a9 aa      LDA #$aa    A:ff X:ed Y:00 P:e4 SP:fb CYC:8866
d97b  8d 00 04   STA $0400   A:aa X:ed Y:00 P:e4 SP:fb CYC:8868
d97e  a9 55      LDA #$55    A:aa X:ed Y:00 P:e4 SP:fb CYC:8872
d980  11 33      ORA ($33),Y A:55 X:ed Y:00 P:64 SP:fb CYC:8874
d982  b0 08      BCS $d98c   A:ff X:ed Y:00 P:e4 SP:fb CYC:8879
d984  10 06      BPL $d98c   A:ff X:ed Y:00 P:e4 SP:fb CYC:8881
d986  c9 ff      CMP #$ff    A:ff X:ed Y:00 P:e4 SP:fb CYC:8883
d988  d0 02      BNE $d98c   A:ff X:ed Y:00 P:67 SP:fb CYC:8885
d98a  70 02      BVS $d98e   A:ff X:ed Y:00 P:67 SP:fb CYC:8887
d98e  e8         INX         A:ff X:ed Y:00 P:67 SP:fb CYC:8890
d98f  38         SEC         A:ff X:ee Y:00 P:e5 SP:fb CYC:8892
d990  b8         CLV         A:ff X:ee Y:00 P:e5 SP:fb CYC:8894
d991  a9 00      LDA #$00    A:ff X:ee Y:00 P:a5 SP:fb CYC:8896
d993  11 33      ORA ($33),Y A:00 X:ee Y:00 P:27 SP:fb CYC:8898
d995  f0 06      BEQ $d99d   A:aa X:ee Y:00 P:a5 SP:fb CYC:8903
d997  70 04      BVS $d99d   A:aa X:ee Y:00 P:a5 SP:fb CYC:8905
d999  90 02      BCC $d99d   A:aa X:ee Y:00 P:a5 SP:fb CYC:8907
d99b  30 02      BMI $d99f   A:aa X:ee Y:00 P:a5 SP:fb CYC:8909
d99f  e8         INX         A:aa X:ee Y:00 P:a5 SP:fb CYC:8912
d9a0  18         CLC         A:aa X:ef Y:00 P:a5 SP:fb CYC:8914
d9a1  24 01      BIT $01     A:aa X:ef Y:00 P:a4 SP:fb CYC:8916
d9a3  a9 55      LDA #$55    A:aa X:ef Y:00 P:e4 SP:fb CYC:8919
d9a5  31 33      AND ($33),Y A:55 X:ef Y:00 P:64 SP:fb CYC:8921
d9a7  d0 06      BNE $d9af   A:00 X:ef Y:00 P:66 SP:fb CYC:8926
d9a9  50 04      BVC $d9af   A:00 X:ef Y:00 P:66 SP:fb CYC:8928
d9ab  b0 02      BCS $d9af   A:00 X:ef Y:00 P:66 SP:fb CYC:8930
d9ad  10 02      BPL $d9b1   A:00 X:ef Y:00 P:66 SP:fb CYC:8932
d9b1  e8         INX         A:00 X:ef Y:00 P:66 SP:fb CYC:8935
d9b2  38         SEC         A:00 X:f0 Y:00 P:e4 SP:fb CYC:8937
d9b3  b8         CLV         A:00 X:f0 Y:00 P:e5 SP:fb CYC:8939
d9b4  a9 ef      LDA #$ef    A:00 X:f0 Y:00 P:a5 SP:fb CYC:8941
d9b6  8d 00 04   STA $0400   A:ef X:f0 Y:00 P:a5 SP:fb CYC:8943
d9b9  a9 f8      LDA #$f8    A:ef X:f0 Y:00 P:a5 SP:fb CYC:8947
d9bb  31 33      AND ($33),Y A:f8 X:f0 Y:00 P:a5 SP:fb CYC:8949
d9bd  90 08      BCC $d9c7   A:e8 X:f0 Y:00 P:a5 SP:fb CYC:8954
d9bf  10 06      BPL $d9c7   A:e8 X:f0 Y:00 P:a5 SP:fb CYC:8956
d9c1  c9 e8      CMP #$e8    A:e8 X:f0 Y:00 P:a5 SP:fb CYC:8958
d9c3  d0 02      BNE $d9c7   A:e8 X:f0 Y:00 P:27 SP:fb CYC:8960
d9c5  50 02      BVC $d9c9   A:e8 X:f0 Y:00 P:27 SP:fb CYC:8962
d9c9  e8         INX         A:e8 X:f0 Y:00 P:27 SP:fb CYC:8965
d9ca  18         CLC         A:e8 X:f1 Y:00 P:a5 SP:fb CYC:8967
d9cb  24 01      BIT $01     A:e8 X:f1 Y:00 P:a4 SP:fb CYC:8969
d9cd  a9 aa      LDA #$aa    A:e8 X:f1 Y:00 P:e4 SP:fb CYC:8972
d9cf  8d 00 04   STA $0400   A:aa X:f1 Y:00 P:e4 SP:fb CYC:8974
d9d2  a9 5f      LDA #$5f    A:aa X:f1 Y:00 P:e4 SP:fb CYC:8978
d9d4  51 33      EOR ($33),Y A:5f X:f1 Y:00 P:64 SP:fb CYC:8980
d9d6  b0 08      BCS $d9e0   A:f5 X:f1 Y:00 P:e4 SP:fb CYC:8985
d9d8  10 06      BPL $d9e0   A:f5 X:f1 Y:00 P:e4 SP:fb CYC:8987
d9da  c9 f5      CMP #$f5    A:f5 X:f1 Y:00 P:e4 SP:fb CYC:8989
d9dc  d0 02      BNE $d9e0   A:f5 X:f1 Y:00 P:67 SP:fb CYC:8991
d9de  70 02      BVS $d9e2   A:f5 X:f1 Y:00 P:67 SP:fb CYC:8993
d9e2  e8         INX         A:f5 X:f1 Y:00 P:67 SP:fb CYC:8996
d9e3  38         SEC         A:f5 X:f2 Y:00 P:e5 SP:fb CYC:8998
d9e4  b8         CLV         A:f5 X:f2 Y:00 P:e5 SP:fb CYC:9000
d9e5  a9 70      LDA #$70    A:f5 X:f2 Y:00 P:a5 SP:fb CYC:9002
d9e7  8d 00 04   STA $0400   A:70 X:f2 Y:00 P:25 SP:fb CYC:9004
d9ea  51 33      EOR ($33),Y A:70 X:f2 Y:00 P:25 SP:fb CYC:9008
d9ec  d0 06      BNE $d9f4   A:00 X:f2 Y:00 P:27 SP:fb CYC:9013
d9ee  70 04      BVS $d9f4   A:00 X:f2 Y:00 P:27 SP:fb CYC:9015
d9f0  90 02      BCC $d9f4   A:00 X:f2 Y:00 P:27 SP:fb CYC:9017
d9f2  10 02      BPL $d9f6   A:00 X:f2 Y:00 P:27 SP:fb CYC:9019
d9f6  e8         INX         A:00 X:f2 Y:00 P:27 SP:fb CYC:9022
d9f7  18         CLC         A:00 X:f3 Y:00 P:a5 SP:fb CYC:9024
d9f8  24 01      BIT $01     A:00 X:f3 Y:00 P:a4 SP:fb CYC:9026
d9fa  a9 69      LDA #$69    A:00 X:f3 Y:00 P:e6 SP:fb CYC:9029
d9fc  8d 00 04   STA $0400   A:69 X:f3 Y:00 P:64 SP:fb CYC:9031
d9ff  a9 00      LDA #$00    A:69 X:f3 Y:00 P:64 SP:fb CYC:9035
da01  71 33      ADC ($33),Y A:00 X:f3 Y:00 P:66 SP:fb CYC:9037
da03  30 08      BMI $da0d   A:69 X:f3 Y:00 P:24 SP:fb CYC:9042
da05  b0 06      BCS $da0d   A:69 X:f3 Y:00 P:24 SP:fb CYC:9044
da07  c9 69      CMP #$69    A:69 X:f3 Y:00 P:24 SP:fb CYC:9046
da09  d0 02      BNE $da0d   A:69 X:f3 Y:00 P:27 SP:fb CYC:9048
da0b  50 02      BVC $da0f   A:69 X:f3 Y:00 P:27 SP:fb CYC:9050
da0f  e8         INX         A:69 X:f3 Y:00 P:27 SP:fb CYC:9053
da10  38         SEC         A:69 X:f4 Y:00 P:a5 SP:fb CYC:9055
da11  24 01      BIT $01     A:69 X:f4 Y:00 P:a5 SP:fb CYC:9057
da13  a9 00      LDA #$00    A:69 X:f4 Y:00 P:e5 SP:fb CYC:9060
da15  71 33      ADC ($33),Y A:00 X:f4 Y:00 P:67 SP:fb CYC:9062
da17  30 08      BMI $da21   A:6a X:f4 Y:00 P:24 SP:fb CYC:9067
da19  b0 06      BCS $da21   A:6a X:f4 Y:00 P:24 SP:fb CYC:9069
da1b  c9 6a      CMP #$6a    A:6a X:f4 Y:00 P:24 SP:fb CYC:9071
da1d  d0 02      BNE $da21   A:6a X:f4 Y:00 P:27 SP:fb CYC:9073
da1f  50 02      BVC $da23   A:6a X:f4 Y:00 P:27 SP:fb CYC:9075
da23  e8         INX         A:6a X:f4 Y:00 P:27 SP:fb CYC:9078
da24  38         SEC         A:6a X:f5 Y:00 P:a5 SP:fb CYC:9080
da25  b8         CLV         A:6a X:f5 Y:00 P:a5 SP:fb CYC:9082
da26  a9 7f      LDA #$7f    A:6a X:f5 Y:00 P:a5 SP:fb CYC:9084
da28  8d 00 04   STA $0400   A:7f X:f5 Y:00 P:25 SP:fb CYC:9086
da2b  71 33      ADC ($33),Y A:7f X:f5 Y:00 P:25 SP:fb CYC:9090
da2d  10 08      BPL $da37   A:ff X:f5 Y:00 P:e4 SP:fb CYC:9095
da2f  b0 06      BCS $da37   A:ff X:f5 Y:00 P:e4 SP:fb CYC:9097
da31  c9 ff      CMP #$ff    A:ff X:f5 Y:00 P:e4 SP:fb CYC:9099
da33  d0 02      BNE $da37   A:ff X:f5 Y:00 P:67 SP:fb CYC:9101
da35  70 02      BVS $da39   A:ff X:f5 Y:00 P:67 SP:fb CYC:9103
da39  e8         INX         A:ff X:f5 Y:00 P:67 SP:fb CYC:9106
da3a  18         CLC         A:ff X:f6 Y:00 P:e5 SP:fb CYC:9108
da3b  24 01      BIT $01     A:ff X:f6 Y:00 P:e4 SP:fb CYC:9110
da3d  a9 80      LDA #$80    A:ff X:f6 Y:00 P:e4 SP:fb CYC:9113
da3f  8d 00 04   STA $0400   A:80 X:f6 Y:00 P:e4 SP:fb CYC:9115
da42  a9 7f      LDA #$7f    A:80 X:f6 Y:00 P:e4 SP:fb CYC:9119
da44  71 33      ADC ($33),Y A:7f X:f6 Y:00 P:64 SP:fb CYC:9121
da46  10 08      BPL $da50   A:ff X:f6 Y:00 P:a4 SP:fb CYC:9126
da48  b0 06      BCS $da50   A:ff X:f6 Y:00 P:a4 SP:fb CYC:9128
da4a  c9 ff      CMP #$ff    A:ff X:f6 Y:00 P:a4 SP:fb CYC:9130
da4c  d0 02      BNE $da50   A:ff X:f6 Y:00 P:27 SP:fb CYC:9132
da4e  50 02      BVC $da52   A:ff X:f6 Y:00 P:27 SP:fb CYC:9134
da52  e8         INX         A:ff X:f6 Y:00 P:27 SP:fb CYC:9137
da53  38         SEC         A:ff X:f7 Y:00 P:a5 SP:fb CYC:9139
da54  b8         CLV         A:ff X:f7 Y:00 P:a5 SP:fb CYC:9141
da55  a9 80      LDA #$80    A:ff X:f7 Y:00 P:a5 SP:fb CYC:9143
da57  8d 00 04   STA $0400   A:80 X:f7 Y:00 P:a5 SP:fb CYC:9145
da5a  a9 7f      LDA #$7f    A:80 X:f7 Y:00 P:a5 SP:fb CYC:9149
da5c  71 33      ADC ($33),Y A:7f X:f7 Y:00 P:25 SP:fb CYC:9151
da5e  d0 06      BNE $da66   A:00 X:f7 Y:00 P:27 SP:fb CYC:9156
da60  30 04      BMI $da66   A:00 X:f7 Y:00 P:27 SP:fb CYC:9158
da62  70 02      BVS $da66   A:00 X:f7 Y:00 P:27 SP:fb CYC:9160
da64  b0 02      BCS $da68   A:00 X:f7 Y:00 P:27 SP:fb CYC:9162
da68  e8         INX         A:00 X:f7 Y:00 P:27 SP:fb CYC:9165
da69  24 01      BIT $01     A:00 X:f8 Y:00 P:a5 SP:fb CYC:9167
da6b  a9 40      LDA #$40    A:00 X:f8 Y:00 P:e7 SP:fb CYC:9170
da6d  8d 00 04   STA $0400   A:40 X:f8 Y:00 P:65 SP:fb CYC:9172
da70  d1 33      CMP ($33),Y A:40 X:f8 Y:00 P:65 SP:fb CYC:9176
da72  30 06      BMI $da7a   A:40 X:f8 Y:00 P:67 SP:fb CYC:9181
da74  90 04      BCC $da7a   A:40 X:f8 Y:00 P:67 SP:fb CYC:9183
da76  d0 02      BNE $da7a   A:40 X:f8 Y:00 P:67 SP:fb CYC:9185
da78  70 02      BVS $da7c   A:40 X:f8 Y:00 P:67 SP:fb CYC:9187
da7c  e8         INX         A:40 X:f8 Y:00 P:67 SP:fb CYC:9190
da7d  b8         CLV         A:40 X:f9 Y:00 P:e5 SP:fb CYC:9192
da7e  ce 00 04   DEC $0400   A:40 X:f9 Y:00 P:a5 SP:fb CYC:9194
da81  d1 33      CMP ($33),Y A:40 X:f9 Y:00 P:25 SP:fb CYC:9200
da83  f0 06      BEQ $da8b   A:40 X:f9 Y:00 P:25 SP:fb CYC:9205
da85  30 04      BMI $da8b   A:40 X:f9 Y:00 P:25 SP:fb CYC:9207
da87  90 02      BCC $da8b   A:40 X:f9 Y:00 P:25 SP:fb CYC:9209
da89  50 02      BVC $da8d   A:40 X:f9 Y:00 P:25 SP:fb CYC:9211
da8d  e8         INX         A:40 X:f9 Y:00 P:25 SP:fb CYC:9214
da8e  ee 00 04   INC $0400   A:40 X:fa Y:00 P:a5 SP:fb CYC:9216
da91  ee 00 04   INC $0400   A:40 X:fa Y:00 P:25 SP:fb CYC:9222
da94  d1 33      CMP ($33),Y A:40 X:fa Y:00 P:25 SP:fb CYC:9228
da96  f0 02      BEQ $da9a   A:40 X:fa Y:00 P:a4 SP:fb CYC:9233
da98  30 02      BMI $da9c   A:40 X:fa Y:00 P:a4 SP:fb CYC:9235
da9c  e8         INX         A:40 X:fa Y:00 P:a4 SP:fb CYC:9238
da9d  a9 00      LDA #$00    A:40 X:fb Y:00 P:a4 SP:fb CYC:9240
da9f  8d 00 04   STA $0400   A:00 X:fb Y:00 P:26 SP:fb CYC:9242
daa2  a9 80      LDA #$80    A:00 X:fb Y:00 P:26 SP:fb CYC:9246
daa4  d1 33      CMP ($33),Y A:80 X:fb Y:00 P:a4 SP:fb CYC:9248
daa6  f0 04      BEQ $daac   A:80 X:fb Y:00 P:a5 SP:fb CYC:9253
daa8  10 02      BPL $daac   A:80 X:fb Y:00 P:a5 SP:fb CYC:9255
daaa  b0 02      BCS $daae   A:80 X:fb Y:00 P:a5 SP:fb CYC:9257
daae  e8         INX         A:80 X:fb Y:00 P:a5 SP:fb CYC:9260
daaf  a0 80      LDY #$80    A:80 X:fc Y:00 P:a5 SP:fb CYC:9262
dab1  8c 00 04   STY $0400   A:80 X:fc Y:80 P:a5 SP:fb CYC:9264
dab4  a0 00      LDY #$00    A:80 X:fc Y:80 P:a5 SP:fb CYC:9268
dab6  d1 33      CMP ($33),Y A:80 X:fc Y:00 P:27 SP:fb CYC:9270
dab8  d0 04      BNE $dabe   A:80 X:fc Y:00 P:27 SP:fb CYC:9275
daba  30 02      BMI $dabe   A:80 X:fc Y:00 P:27 SP:fb CYC:9277
dabc  b0 02      BCS $dac0   A:80 X:fc Y:00 P:27 SP:fb CYC:9279
dac0  e8         INX         A:80 X:fc Y:00 P:27 SP:fb CYC:9282
dac1  ee 00 04   INC $0400   A:80 X:fd Y:00 P:a5 SP:fb CYC:9284
dac4  d1 33      CMP ($33),Y A:80 X:fd Y:00 P:a5 SP:fb CYC:9290
dac6  b0 04      BCS $dacc   A:80 X:fd Y:00 P:a4 SP:fb CYC:9295
dac8  f0 02      BEQ $dacc   A:80 X:fd Y:00 P:a4 SP:fb CYC:9297
daca  30 02      BMI $dace   A:80 X:fd Y:00 P:a4 SP:fb CYC:9299
dace  e8         INX         A:80 X:fd Y:00 P:a4 SP:fb CYC:9302
dacf  ce 00 04   DEC $0400   A:80 X:fe Y:00 P:a4 SP:fb CYC:9304
dad2  ce 00 04   DEC $0400   A:80 X:fe Y:00 P:a4 SP:fb CYC:9310
dad5  d1 33      CMP ($33),Y A:80 X:fe Y:00 P:24 SP:fb CYC:9316
dad7  90 04      BCC $dadd   A:80 X:fe Y:00 P:25 SP:fb CYC:9321
dad9  f0 02      BEQ $dadd   A:80 X:fe Y:00 P:25 SP:fb CYC:9323
dadb  10 02      BPL $dadf   A:80 X:fe Y:00 P:25 SP:fb CYC:9325
dadf  60         RTS         A:80 X:fe Y:00 P:25 SP:fb CYC:9328
c61b  a5 00      LDA $00     A:80 X:fe Y:00 P:25 SP:fd CYC:9334
c61d  85 10      STA $10     A:00 X:fe Y:00 P:27 SP:fd CYC:9337
c61f  a9 00      LDA #$00    A:00 X:fe Y:00 P:27 SP:fd CYC:9340
c621  85 00      STA $00     A:00 X:fe Y:00 P:27 SP:fd CYC:9342
c623  20 e0 da   JSR $dae0   A:00 X:fe Y:00 P:27 SP:fd CYC:9345
dae0  a9 00      LDA #$00    A:00 X:fe Y:00 P:27 SP:fb CYC:9351
dae2  85 33      STA $33     A:00 X:fe Y:00 P:27 SP:fb CYC:9353
dae4  a9 04      LDA #$04    A:00 X:fe Y:00 P:27 SP:fb CYC:9356
dae6  85 34      STA $34     A:04 X:fe Y:00 P:25 SP:fb CYC:9358
dae8  a0 00      LDY #$00    A:04 X:fe Y:00 P:25 SP:fb CYC:9361
daea  a2 01      LDX #$01    A:04 X:fe Y:00 P:27 SP:fb CYC:9363
daec  24 01      BIT $01     A:04 X:01 Y:00 P:25 SP:fb CYC:9365
daee  a9 40      LDA #$40    A:04 X:01 Y:00 P:e5 SP:fb CYC:9368
daf0  8d 00 04   STA $0400   A:40 X:01 Y:00 P:65 SP:fb CYC:9370
daf3  38         SEC         A:40 X:01 Y:00 P:65 SP:fb CYC:9374
daf4  f1 33      SBC ($33),Y A:40 X:01 Y:00 P:65 SP:fb CYC:9376
daf6  30 0a      BMI $db02   A:00 X:01 Y:00 P:27 SP:fb CYC:9381
daf8  90 08      BCC $db02   A:00 X:01 Y:00 P:27 SP:fb CYC:9383
dafa  d0 06      BNE $db02   A:00 X:01 Y:00 P:27 SP:fb CYC:9385
dafc  70 04      BVS $db02   A:00 X:01 Y:00 P:27 SP:fb CYC:9387
dafe  c9 00      CMP #$00    A:00 X:01 Y:00 P:27 SP:fb CYC:9389
db00  f0 02      BEQ $db04   A:00 X:01 Y:00 P:27 SP:fb CYC:9391
db04  e8         INX         A:00 X:01 Y:00 P:27 SP:fb CYC:9394
db05  b8         CLV         A:00 X:02 Y:00 P:25 SP:fb CYC:9396
db06  38         SEC         A:00 X:02 Y:00 P:25 SP:fb CYC:9398
db07  a9 40      LDA #$40    A:00 X:02 Y:00 P:25 SP:fb CYC:9400
db09  ce 00 04   DEC $0400   A:40 X:02 Y:00 P:25 SP:fb CYC:9402
db0c  f1 33      SBC ($33),Y A:40 X:02 Y:00 P:25 SP:fb CYC:9408
db0e  f0 0a      BEQ $db1a   A:01 X:02 Y:00 P:25 SP:fb CYC:9413
db10  30 08      BMI $db1a   A:01 X:02 Y:00 P:25 SP:fb CYC:9415
db12  90 06      BCC $db1a   A:01 X:02 Y:00 P:25 SP:fb CYC:9417
db14  70 04      BVS $db1a   A:01 X:02 Y:00 P:25 SP:fb CYC:9419
db16  c9 01      CMP #$01    A:01 X:02 Y:00 P:25 SP:fb CYC:9421
db18  f0 02      BEQ $db1c   A:01 X:02 Y:00 P:27 SP:fb CYC:9423
db1c  e8         INX         A:01 X:02 Y:00 P:27 SP:fb CYC:9426
db1d  a9 40      LDA #$40    A:01 X:03 Y:00 P:25 SP:fb CYC:9428
db1f  38         SEC         A:40 X:03 Y:00 P:25 SP:fb CYC:9430
db20  24 01      BIT $01     A:40 X:03 Y:00 P:25 SP:fb CYC:9432
db22  ee 00 04   INC $0400   A:40 X:03 Y:00 P:e5 SP:fb CYC:9435
db25  ee 00 04   INC $0400   A:40 X:03 Y:00 P:65 SP:fb CYC:9441
db28  f1 33      SBC ($33),Y A:40 X:03 Y:00 P:65 SP:fb CYC:9447
db2a  b0 0a      BCS $db36   A:ff X:03 Y:00 P:a4 SP:fb CYC:9452
db2c  f0 08      BEQ $db36   A:ff X:03 Y:00 P:a4 SP:fb CYC:9454
db2e  10 06      BPL $db36   A:ff X:03 Y:00 P:a4 SP:fb CYC:9456
db30  70 04      BVS $db36   A:ff X:03 Y:00 P:a4 SP:fb CYC:9458
db32  c9 ff      CMP #$ff    A:ff X:03 Y:00 P:a4 SP:fb CYC:9460
db34  f0 02      BEQ $db38   A:ff X:03 Y:00 P:27 SP:fb CYC:9462
db38  e8         INX         A:ff X:03 Y:00 P:27 SP:fb CYC:9465
db39  18         CLC         A:ff X:04 Y:00 P:25 SP:fb CYC:9467
db3a  a9 00      LDA #$00    A:ff X:04 Y:00 P:24 SP:fb CYC:9469
db3c  8d 00 04   STA $0400   A:00 X:04 Y:00 P:26 SP:fb CYC:9471
db3f  a9 80      LDA #$80    A:00 X:04 Y:00 P:26 SP:fb CYC:9475
db41  f1 33      SBC ($33),Y A:80 X:04 Y:00 P:a4 SP:fb CYC:9477
db43  90 04      BCC $db49   A:7f X:04 Y:00 P:65 SP:fb CYC:9482
db45  c9 7f      CMP #$7f    A:7f X:04 Y:00 P:65 SP:fb CYC:9484
db47  f0 02      BEQ $db4b   A:7f X:04 Y:00 P:67 SP:fb CYC:9486
db4b  e8         INX         A:7f X:04 Y:00 P:67 SP:fb CYC:9489
db4c  38         SEC         A:7f X:05 Y:00 P:65 SP:fb CYC:9491
db4d  a9 7f      LDA #$7f    A:7f X:05 Y:00 P:65 SP:fb CYC:9493
db4f  8d 00 04   STA $0400   A:7f X:05 Y:00 P:65 SP:fb CYC:9495
db52  a9 81      LDA #$81    A:7f X:05 Y:00 P:65 SP:fb CYC:9499
db54  f1 33      SBC ($33),Y A:81 X:05 Y:00 P:e5 SP:fb CYC:9501
db56  50 06      BVC $db5e   A:02 X:05 Y:00 P:65 SP:fb CYC:9506
db58  90 04      BCC $db5e   A:02 X:05 Y:00 P:65 SP:fb CYC:9508
db5a  c9 02      CMP #$02    A:02 X:05 Y:00 P:65 SP:fb CYC:9510
db5c  f0 02      BEQ $db60   A:02 X:05 Y:00 P:67 SP:fb CYC:9512
db60  e8         INX         A:02 X:05 Y:00 P:67 SP:fb CYC:9515
db61  a9 00      LDA #$00    A:02 X:06 Y:00 P:65 SP:fb CYC:9517
db63  a9 87      LDA #$87    A:00 X:06 Y:00 P:67 SP:fb CYC:9519
db65  91 33      STA ($33),Y A:87 X:06 Y:00 P:e5 SP:fb CYC:9521
db67  ad 00 04   LDA $0400   A:87 X:06 Y:00 P:e5 SP:fb CYC:9527
db6a  c9 87      CMP #$87    A:87 X:06 Y:00 P:e5 SP:fb CYC:9531
db6c  f0 02      BEQ $db70   A:87 X:06 Y:00 P:67 SP:fb CYC:9533
db70  e8         INX         A:87 X:06 Y:00 P:67 SP:fb CYC:9536
db71  a9 7e      LDA #$7e    A:87 X:07 Y:00 P:65 SP:fb CYC:9538
db73  8d 00 02   STA $0200   A:7e X:07 Y:00 P:65 SP:fb CYC:9540
db76  a9 db      LDA #$db    A:7e X:07 Y:00 P:65 SP:fb CYC:9544
db78  8d 01 02   STA $0201   A:db X:07 Y:00 P:e5 SP:fb CYC:9546
db7b  6c 00 02   JMP ($0200) A:db X:07 Y:00 P:e5 SP:fb CYC:9550
db7e  a9 00      LDA #$00    A:db X:07 Y:00 P:e5 SP:fb CYC:9555
db80  8d ff 02   STA $02ff   A:00 X:07 Y:00 P:67 SP:fb CYC:9557
db83  a9 01      LDA #$01    A:00 X:07 Y:00 P:67 SP:fb CYC:9561
db85  8d 00 03   STA $0300   A:01 X:07 Y:00 P:65 SP:fb CYC:9563
db88  a9 03      LDA #$03    A:01 X:07 Y:00 P:65 SP:fb CYC:9567
db8a  8d 00 02   STA $0200   A:03 X:07 Y:00 P:65 SP:fb CYC:9569
db8d  a9 a9      LDA #$a9    A:03 X:07 Y:00 P:65 SP:fb CYC:9573
db8f  8d 00 01   STA $0100   A:a9 X:07 Y:00 P:e5 SP:fb CYC:9575
db92  a9 55      LDA #$55    A:a9 X:07 Y:00 P:e5 SP:fb CYC:9579
db94  8d 01 01   STA $0101   A:55 X:07 Y:00 P:65 SP:fb CYC:9581
db97  a9 60      LDA #$60    A:55 X:07 Y:00 P:65 SP:fb CYC:9585
db99  8d 02 01   STA $0102   A:60 X:07 Y:00 P:65 SP:fb CYC:9587
db9c  a9 a9      LDA #$a9    A:60 X:07 Y:00 P:65 SP:fb CYC:9591
db9e  8d 00 03   STA $0300   A:a9 X:07 Y:00 P:e5 SP:fb CYC:9593
dba1  a9 aa      LDA #$aa    A:a9 X:07 Y:00 P:e5 SP:fb CYC:9597
dba3  8d 01 03   STA $0301   A:aa X:07 Y:00 P:e5 SP:fb CYC:9599
dba6  a9 60      LDA #$60    A:aa X:07 Y:00 P:e5 SP:fb CYC:9603
dba8  8d 02 03   STA $0302   A:60 X:07 Y:00 P:65 SP:fb CYC:9605
dbab  20 b5 db   JSR $dbb5   A:60 X:07 Y:00 P:65 SP:fb CYC:9609
dbb5  6c ff 02   JMP ($02ff) A:60 X:07 Y:00 P:65 SP:f9 CYC:9615
0300  a9 aa      LDA #$aa    A:60 X:07 Y:00 P:65 SP:f9 CYC:9620
0302  60         RTS         A:aa X:07 Y:00 P:e5 SP:f9 CYC:9622
dbae  c9 aa      CMP #$aa    A:aa X:07 Y:00 P:e5 SP:fb CYC:9628
dbb0  f0 02      BEQ $dbb4   A:aa X:07 Y:00 P:67 SP:fb CYC:9630
dbb4  60         RTS         A:aa X:07 Y:00 P:67 SP:fb CYC:9633
c626  20 4a df   JSR $df4a   A:aa X:07 Y:00 P:67 SP:fd CYC:9639
df4a  a9 89      LDA #$89    A:aa X:07 Y:00 P:67 SP:fb CYC:9645
df4c  8d 00 03   STA $0300   A:89 X:07 Y:00 P:e5 SP:fb CYC:9647
df4f  a9 a3      LDA #$a3    A:89 X:07 Y:00 P:e5 SP:fb CYC:9651
df51  85 33      STA $33     A:a3 X:07 Y:00 P:e5 SP:fb CYC:9653
df53  a9 12      LDA #$12    A:a3 X:07 Y:00 P:e5 SP:fb CYC:9656
df55  8d 45 02   STA $0245   A:12 X:07 Y:00 P:65 SP:fb CYC:9658
df58  a2 65      LDX #$65    A:12 X:07 Y:00 P:65 SP:fb CYC:9662
df5a  a0 00      LDY #$00    A:12 X:65 Y:00 P:65 SP:fb CYC:9664
df5c  38         SEC         A:12 X:65 Y:00 P:67 SP:fb CYC:9666
df5d  a9 00      LDA #$00    A:12 X:65 Y:00 P:67 SP:fb CYC:9668
df5f  b8         CLV         A:00 X:65 Y:00 P:67 SP:fb CYC:9670
df60  b9 00 03   LDA $0300,Y A:00 X:65 Y:00 P:27 SP:fb CYC:9672
df63  f0 0c      BEQ $df71   A:89 X:65 Y:00 P:a5 SP:fb CYC:9676
df65  90 0a      BCC $df71   A:89 X:65 Y:00 P:a5 SP:fb CYC:9678
df67  70 08      BVS $df71   A:89 X:65 Y:00 P:a5 SP:fb CYC:9680
df69  c9 89      CMP #$89    A:89 X:65 Y:00 P:a5 SP:fb CYC:9682
df6b  d0 04      BNE $df71   A:89 X:65 Y:00 P:27 SP:fb CYC:9684
df6d  e0 65      CPX #$65    A:89 X:65 Y:00 P:27 SP:fb CYC:9686
df6f  f0 04      BEQ $df75   A:89 X:65 Y:00 P:27 SP:fb CYC:9688
df75  a9 ff      LDA #$ff    A:89 X:65 Y:00 P:27 SP:fb CYC:9691
df77  85 01      STA $01     A:ff X:65 Y:00 P:a5 SP:fb CYC:9693
df79  24 01      BIT $01     A:ff X:65 Y:00 P:a5 SP:fb CYC:9696
df7b  a0 34      LDY #$34    A:ff X:65 Y:00 P:e5 SP:fb CYC:9699
df7d  b9 ff ff   LDA $ffff,Y A:ff X:65 Y:34 P:65 SP:fb CYC:9701
df80  c9 a3      CMP #$a3    A:a3 X:65 Y:34 P:e5 SP:fb CYC:9706
df82  d0 02      BNE $df86   A:a3 X:65 Y:34 P:67 SP:fb CYC:9708
df84  b0 04      BCS $df8a   A:a3 X:65 Y:34 P:67 SP:fb CYC:9710
df8a  a9 46      LDA #$46    A:a3 X:65 Y:34 P:67 SP:fb CYC:9713
df8c  85 ff      STA $ff     A:46 X:65 Y:34 P:65 SP:fb CYC:9715
df8e  a0 ff      LDY #$ff    A:46 X:65 Y:34 P:65 SP:fb CYC:9718
df90  b9 46 01   LDA $0146,Y A:46 X:65 Y:ff P:e5 SP:fb CYC:9720
df93  c9 12      CMP #$12    A:12 X:65 Y:ff P:65 SP:fb CYC:9725
df95  f0 04      BEQ $df9b   A:12 X:65 Y:ff P:67 SP:fb CYC:9727
df9b  a2 39      LDX #$39    A:12 X:65 Y:ff P:67 SP:fb CYC:9730
df9d  18         CLC         A:12 X:39 Y:ff P:65 SP:fb CYC:9732
df9e  a9 ff      LDA #$ff    A:12 X:39 Y:ff P:64 SP:fb CYC:9734
dfa0  85 01      STA $01     A:ff X:39 Y:ff P:e4 SP:fb CYC:9736
dfa2  24 01      BIT $01     A:ff X:39 Y:ff P:e4 SP:fb CYC:9739
dfa4  a9 aa      LDA #$aa    A:ff X:39 Y:ff P:e4 SP:fb CYC:9742
dfa6  8d 00 04   STA $0400   A:aa X:39 Y:ff P:e4 SP:fb CYC:9744
dfa9  a9 55      LDA #$55    A:aa X:39 Y:ff P:e4 SP:fb CYC:9748
dfab  a0 00      LDY #$00    A:55 X:39 Y:ff P:64 SP:fb CYC:9750
dfad  19 00 04   ORA $0400,Y A:55 X:39 Y:00 P:66 SP:fb CYC:9752
dfb0  b0 08      BCS $dfba   A:ff X:39 Y:00 P:e4 SP:fb CYC:9756
dfb2  10 06      BPL $dfba   A:ff X:39 Y:00 P:e4 SP:fb CYC:9758
dfb4  c9 ff      CMP #$ff    A:ff X:39 Y:00 P:e4 SP:fb CYC:9760
dfb6  d0 02      BNE $dfba   A:ff X:39 Y:00 P:67 SP:fb CYC:9762
dfb8  70 02      BVS $dfbc   A:ff X:39 Y:00 P:67 SP:fb CYC:9764
dfbc  e8         INX         A:ff X:39 Y:00 P:67 SP:fb CYC:9767
dfbd  38         SEC         A:ff X:3a Y:00 P:65 SP:fb CYC:9769
dfbe  b8         CLV         A:ff X:3a Y:00 P:65 SP:fb CYC:9771
dfbf  a9 00      LDA #$00    A:ff X:3a Y:00 P:25 SP:fb CYC:9773
dfc1  19 00 04   ORA $0400,Y A:00 X:3a Y:00 P:27 SP:fb CYC:9775
dfc4  f0 06      BEQ $dfcc   A:aa X:3a Y:00 P:a5 SP:fb CYC:9779
dfc6  70 04      BVS $dfcc   A:aa X:3a Y:00 P:a5 SP:fb CYC:9781
dfc8  90 02      BCC $dfcc   A:aa X:3a Y:00 P:a5 SP:fb CYC:9783
dfca  30 02      BMI $dfce   A:aa X:3a Y:00 P:a5 SP:fb CYC:9785
dfce  e8         INX         A:aa X:3a Y:00 P:a5 SP:fb CYC:9788
dfcf  18         CLC         A:aa X:3b Y:00 P:25 SP:fb CYC:9790
dfd0  24 01      BIT $01     A:aa X:3b Y:00 P:24 SP:fb CYC:9792
dfd2  a9 55      LDA #$55    A:aa X:3b Y:00 P:e4 SP:fb CYC:9795
dfd4  39 00 04   AND $0400,Y A:55 X:3b Y:00 P:64 SP:fb CYC:9797
dfd7  d0 06      BNE $dfdf   A:00 X:3b Y:00 P:66 SP:fb CYC:9801
dfd9  50 04      BVC $dfdf   A:00 X:3b Y:00 P:66 SP:fb CYC:9803
dfdb  b0 02      BCS $dfdf   A:00 X:3b Y:00 P:66 SP:fb CYC:9805
dfdd  10 02      BPL $dfe1   A:00 X:3b Y:00 P:66 SP:fb CYC:9807
dfe1  e8         INX         A:00 X:3b Y:00 P:66 SP:fb CYC:9810
dfe2  38         SEC         A:00 X:3c Y:00 P:64 SP:fb CYC:9812
dfe3  b8         CLV         A:00 X:3c Y:00 P:65 SP:fb CYC:9814
dfe4  a9 ef      LDA #$ef    A:00 X:3c Y:00 P:25 SP:fb CYC:9816
dfe6  8d 00 04   STA $0400   A:ef X:3c Y:00 P:a5 SP:fb CYC:9818
dfe9  a9 f8      LDA #$f8    A:ef X:3c Y:00 P:a5 SP:fb CYC:9822
dfeb  39 00 04   AND $0400,Y A:f8 X:3c Y:00 P:a5 SP:fb CYC:9824
dfee  90 08      BCC $dff8   A:e8 X:3c Y:00 P:a5 SP:fb CYC:9828
dff0  10 06      BPL $dff8   A:e8 X:3c Y:00 P:a5 SP:fb CYC:9830
dff2  c9 e8      CMP #$e8    A:e8 X:3c Y:00 P:a5 SP:fb CYC:9832
dff4  d0 02      BNE $dff8   A:e8 X:3c Y:00 P:27 SP:fb CYC:9834
dff6  50 02      BVC $dffa   A:e8 X:3c Y:00 P:27 SP:fb CYC:9836
dffa  e8         INX         A:e8 X:3c Y:00 P:27 SP:fb CYC:9839
dffb  18         CLC         A:e8 X:3d Y:00 P:25 SP:fb CYC:9841
dffc  24 01      BIT $01     A:e8 X:3d Y:00 P:24 SP:fb CYC:9843
dffe  a9 aa      LDA #$aa    A:e8 X:3d Y:00 P:e4 SP:fb CYC:9846
e000  8d 00 04   STA $0400   A:aa X:3d Y:00 P:e4 SP:fb CYC:9848
e003  a9 5f      LDA #$5f    A:aa X:3d Y:00 P:e4 SP:fb CYC:9852
e005  59 00 04   EOR $0400,Y A:5f X:3d Y:00 P:64 SP:fb CYC:9854
e008  b0 08      BCS $e012   A:f5 X:3d Y:00 P:e4 SP:fb CYC:9858
e00a  10 06      BPL $e012   A:f5 X:3d Y:00 P:e4 SP:fb CYC:9860
e00c  c9 f5      CMP #$f5    A:f5 X:3d Y:00 P:e4 SP:fb CYC:9862
e00e  d0 02      BNE $e012   A:f5 X:3d Y:00 P:67 SP:fb CYC:9864
e010  70 02      BVS $e014   A:f5 X:3d Y:00 P:67 SP:fb CYC:9866
e014  e8         INX         A:f5 X:3d Y:00 P:67 SP:fb CYC:9869
e015  38         SEC         A:f5 X:3e Y:00 P:65 SP:fb CYC:9871
e016  b8         CLV         A:f5 X:3e Y:00 P:65 SP:fb CYC:9873
e017  a9 70      LDA #$70    A:f5 X:3e Y:00 P:25 SP:fb CYC:9875
e019  8d 00 04   STA $0400   A:70 X:3e Y:00 P:25 SP:fb CYC:9877
e01c  59 00 04   EOR $0400,Y A:70 X:3e Y:00 P:25 SP:fb CYC:9881
e01f  d0 06      BNE $e027   A:00 X:3e Y:00 P:27 SP:fb CYC:9885
e021  70 04      BVS $e027   A:00 X:3e Y:00 P:27 SP:fb CYC:9887
e023  90 02      BCC $e027   A:00 X:3e Y:00 P:27 SP:fb CYC:9889
e025  10 02      BPL $e029   A:00 X:3e Y:00 P:27 SP:fb CYC:9891
e029  e8         INX         A:00 X:3e Y:00 P:27 SP:fb CYC:9894
e02a  18         CLC         A:00 X:3f Y:00 P:25 SP:fb CYC:9896
e02b  24 01      BIT $01     A:00 X:3f Y:00 P:24 SP:fb CYC:9898
e02d  a9 69      LDA #$69    A:00 X:3f Y:00 P:e6 SP:fb CYC:9901
e02f  8d 00 04   STA $0400   A:69 X:3f Y:00 P:64 SP:fb CYC:9903
e032  a9 00      LDA #$00    A:69 X:3f Y:00 P:64 SP:fb CYC:9907
e034  79 00 04   ADC $0400,Y A:00 X:3f Y:00 P:66 SP:fb CYC:9909
e037  30 08      BMI $e041   A:69 X:3f Y:00 P:24 SP:fb CYC:9913
e039  b0 06      BCS $e041   A:69 X:3f Y:00 P:24 SP:fb CYC:9915
e03b  c9 69      CMP #$69    A:69 X:3f Y:00 P:24 SP:fb CYC:9917
e03d  d0 02      BNE $e041   A:69 X:3f Y:00 P:27 SP:fb CYC:9919
e03f  50 02      BVC $e043   A:69 X:3f Y:00 P:27 SP:fb CYC:9921
e043  e8         INX         A:69 X:3f Y:00 P:27 SP:fb CYC:9924
e044  38         SEC         A:69 X:40 Y:00 P:25 SP:fb CYC:9926
e045  24 01      BIT $01     A:69 X:40 Y:00 P:25 SP:fb CYC:9928
e047  a9 00      LDA #$00    A:69 X:40 Y:00 P:e5 SP:fb CYC:9931
e049  79 00 04   ADC $0400,Y A:00 X:40 Y:00 P:67 SP:fb CYC:9933
e04c  30 08      BMI $e056   A:6a X:40 Y:00 P:24 SP:fb CYC:9937
e04e  b0 06      BCS $e056   A:6a X:40 Y:00 P:24 SP:fb CYC:9939
e050  c9 6a      CMP #$6a    A:6a X:40 Y:00 P:24 SP:fb CYC:9941
e052  d0 02      BNE $e056   A:6a X:40 Y:00 P:27 SP:fb CYC:9943
e054  50 02      BVC $e058   A:6a X:40 Y:00 P:27 SP:fb CYC:9945
e058  e8         INX         A:6a X:40 Y:00 P:27 SP:fb CYC:9948
e059  38         SEC         A:6a X:41 Y:00 P:25 SP:fb CYC:9950
e05a  b8         CLV         A:6a X:41 Y:00 P:25 SP:fb CYC:9952
e05b  a9 7f      LDA #$7f    A:6a X:41 Y:00 P:25 SP:fb CYC:9954
e05d  8d 00 04   STA $0400   A:7f X:41 Y:00 P:25 SP:fb CYC:9956
e060  79 00 04   ADC $0400,Y A:7f X:41 Y:00 P:25 SP:fb CYC:9960
e063  10 08      BPL $e06d   A:ff X:41 Y:00 P:e4 SP:fb CYC:9964
e065  b0 06      BCS $e06d   A:ff X:41 Y:00 P:e4 SP:fb CYC:9966
e067  c9 ff      CMP #$ff    A:ff X:41 Y:00 P:e4 SP:fb CYC:9968
e069  d0 02      BNE $e06d   A:ff X:41 Y:00 P:67 SP:fb CYC:9970
e06b  70 02      BVS $e06f   A:ff X:41 Y:00 P:67 SP:fb CYC:9972
e06f  e8         INX         A:ff X:41 Y:00 P:67 SP:fb CYC:9975
e070  18         CLC         A:ff X:42 Y:00 P:65 SP:fb CYC:9977
e071  24 01      BIT $01     A:ff X:42 Y:00 P:64 SP:fb CYC:9979
e073  a9 80      LDA #$80    A:ff X:42 Y:00 P:e4 SP:fb CYC:9982
e075  8d 00 04   STA $0400   A:80 X:42 Y:00 P:e4 SP:fb CYC:9984
e078  a9 7f      LDA #$7f    A:80 X:42 Y:00 P:e4 SP:fb CYC:9988
e07a  79 00 04   ADC $0400,Y A:7f X:42 Y:00 P:64 SP:fb CYC:9990
e07d  10 08      BPL $e087   A:ff X:42 Y:00 P:a4 SP:fb CYC:9994
e07f  b0 06      BCS $e087   A:ff X:42 Y:00 P:a4 SP:fb CYC:9996
e081  c9 ff      CMP #$ff    A:ff X:42 Y:00 P:a4 SP:fb CYC:9998
e083  d0 02      BNE $e087   A:ff X:42 Y:00 P:27 SP:fb CYC:10000
e085  50 02      BVC $e089   A:ff X:42 Y:00 P:27 SP:fb CYC:10002
e089  e8         INX         A:ff X:42 Y:00 P:27 SP:fb CYC:10005
e08a  38         SEC         A:ff X:43 Y:00 P:25 SP:fb CYC:10007
e08b  b8         CLV         A:ff X:43 Y:00 P:25 SP:fb CYC:10009
e08c  a9 80      LDA #$80    A:ff X:43 Y:00 P:25 SP:fb CYC:10011
e08e  8d 00 04   STA $0400   A:80 X:43 Y:00 P:a5 SP:fb CYC:10013
e091  a9 7f      LDA #$7f    A:80 X:43 Y:00 P:a5 SP:fb CYC:10017
e093  79 00 04   ADC $0400,Y A:7f X:43 Y:00 P:25 SP:fb CYC:10019
e096  d0 06      BNE $e09e   A:00 X:43 Y:00 P:27 SP:fb CYC:10023
e098  30 04      BMI $e09e   A:00 X:43 Y:00 P:27 SP:fb CYC:10025
e09a  70 02      BVS $e09e   A:00 X:43 Y:00 P:27 SP:fb CYC:10027
e09c  b0 02      BCS $e0a0   A:00 X:43 Y:00 P:27 SP:fb CYC:10029
e0a0  e8         INX         A:00 X:43 Y:00 P:27 SP:fb CYC:10032
e0a1  24 01      BIT $01     A:00 X:44 Y:00 P:25 SP:fb CYC:10034
e0a3  a9 40      LDA #$40    A:00 X:44 Y:00 P:e7 SP:fb CYC:10037
e0a5  8d 00 04   STA $0400   A:40 X:44 Y:00 P:65 SP:fb CYC:10039
e0a8  d9 00 04   CMP $0400,Y A:40 X:44 Y:00 P:65 SP:fb CYC:10043
e0ab  30 06      BMI $e0b3   A:40 X:44 Y:00 P:67 SP:fb CYC:10047
e0ad  90 04      BCC $e0b3   A:40 X:44 Y:00 P:67 SP:fb CYC:10049
e0af  d0 02      BNE $e0b3   A:40 X:44 Y:00 P:67 SP:fb CYC:10051
e0b1  70 02      BVS $e0b5   A:40 X:44 Y:00 P:67 SP:fb CYC:10053
e0b5  e8         INX         A:40 X:44 Y:00 P:67 SP:fb CYC:10056
e0b6  b8         CLV         A:40 X:45 Y:00 P:65 SP:fb CYC:10058
e0b7  ce 00 04   DEC $0400   A:40 X:45 Y:00 P:25 SP:fb CYC:10060
e0ba  d9 00 04   CMP $0400,Y A:40 X:45 Y:00 P:25 SP:fb CYC:10066
e0bd  f0 06      BEQ $e0c5   A:40 X:45 Y:00 P:25 SP:fb CYC:10070
e0bf  30 04      BMI $e0c5   A:40 X:45 Y:00 P:25 SP:fb CYC:10072
e0c1  90 02      BCC $e0c5   A:40 X:45 Y:00 P:25 SP:fb CYC:10074
e0c3  50 02      BVC $e0c7   A:40 X:45 Y:00 P:25 SP:fb CYC:10076
e0c7  e8         INX         A:40 X:45 Y:00 P:25 SP:fb CYC:10079
e0c8  ee 00 04   INC $0400   A:40 X:46 Y:00 P:25 SP:fb CYC:10081
e0cb  ee 00 04   INC $0400   A:40 X:46 Y:00 P:25 SP:fb CYC:10087
e0ce  d9 00 04   CMP $0400,Y A:40 X:46 Y:00 P:25 SP:fb CYC:10093
e0d1  f0 02      BEQ $e0d5   A:40 X:46 Y:00 P:a4 SP:fb CYC:10097
e0d3  30 02      BMI $e0d7   A:40 X:46 Y:00 P:a4 SP:fb CYC:10099
e0d7  e8         INX         A:40 X:46 Y:00 P:a4 SP:fb CYC:10102
e0d8  a9 00      LDA #$00    A:40 X:47 Y:00 P:24 SP:fb CYC:10104
e0da  8d 00 04   STA $0400   A:00 X:47 Y:00 P:26 SP:fb CYC:10106
e0dd  a9 80      LDA #$80    A:00 X:47 Y:00 P:26 SP:fb CYC:10110
e0df  d9 00 04   CMP $0400,Y A:80 X:47 Y:00 P:a4 SP:fb CYC:10112
e0e2  f0 04      BEQ $e0e8   A:80 X:47 Y:00 P:a5 SP:fb CYC:10116
e0e4  10 02      BPL $e0e8   A:80 X:47 Y:00 P:a5 SP:fb CYC:10118
e0e6  b0 02      BCS $e0ea   A:80 X:47 Y:00 P:a5 SP:fb CYC:10120
e0ea  e8         INX         A:80 X:47 Y:00 P:a5 SP:fb CYC:10123
e0eb  a0 80      LDY #$80    A:80 X:48 Y:00 P:25 SP:fb CYC:10125
e0ed  8c 00 04   STY $0400   A:80 X:48 Y:80 P:a5 SP:fb CYC:10127
e0f0  a0 00      LDY #$00    A:80 X:48 Y:80 P:a5 SP:fb CYC:10131
e0f2  d9 00 04   CMP $0400,Y A:80 X:48 Y:00 P:27 SP:fb CYC:10133
e0f5  d0 04      BNE $e0fb   A:80 X:48 Y:00 P:27 SP:fb CYC:10137
e0f7  30 02      BMI $e0fb   A:80 X:48 Y:00 P:27 SP:fb CYC:10139
e0f9  b0 02      BCS $e0fd   A:80 X:48 Y:00 P:27 SP:fb CYC:10141
e0fd  e8         INX         A:80 X:48 Y:00 P:27 SP:fb CYC:10144
e0fe  ee 00 04   INC $0400   A:80 X:49 Y:00 P:25 SP:fb CYC:10146
e101  d9 00 04   CMP $0400,Y A:80 X:49 Y:00 P:a5 SP:fb CYC:10152
e104  b0 04      BCS $e10a   A:80 X:49 Y:00 P:a4 SP:fb CYC:10156
e106  f0 02      BEQ $e10a   A:80 X:49 Y:00 P:a4 SP:fb CYC:10158
e108  30 02      BMI $e10c   A:80 X:49 Y:00 P:a4 SP:fb CYC:10160
e10c  e8         INX         A:80 X:49 Y:00 P:a4 SP:fb CYC:10163
e10d  ce 00 04   DEC $0400   A:80 X:4a Y:00 P:24 SP:fb CYC:10165
e110  ce 00 04   DEC $0400   A:80 X:4a Y:00 P:a4 SP:fb CYC:10171
e113  d9 00 04   CMP $0400,Y A:80 X:4a Y:00 P:24 SP:fb CYC:10177
e116  90 04      BCC $e11c   A:80 X:4a Y:00 P:25 SP:fb CYC:10181
e118  f0 02      BEQ $e11c   A:80 X:4a Y:00 P:25 SP:fb CYC:10183
e11a  10 02      BPL $e11e   A:80 X:4a Y:00 P:25 SP:fb CYC:10185
e11e  e8         INX         A:80 X:4a Y:00 P:25 SP:fb CYC:10188
e11f  24 01      BIT $01     A:80 X:4b Y:00 P:25 SP:fb CYC:10190
e121  a9 40      LDA #$40    A:80 X:4b Y:00 P:e5 SP:fb CYC:10193
e123  8d 00 04   STA $0400   A:40 X:4b Y:00 P:65 SP:fb CYC:10195
e126  38         SEC         A:40 X:4b Y:00 P:65 SP:fb CYC:10199
e127  f9 00 04   SBC $0400,Y A:40 X:4b Y:00 P:65 SP:fb CYC:10201
e12a  30 0a      BMI $e136   A:00 X:4b Y:00 P:27 SP:fb CYC:10205
e12c  90 08      BCC $e136   A:00 X:4b Y:00 P:27 SP:fb CYC:10207
e12e  d0 06      BNE $e136   A:00 X:4b Y:00 P:27 SP:fb CYC:10209
e130  70 04      BVS $e136   A:00 X:4b Y:00 P:27 SP:fb CYC:10211
e132  c9 00      CMP #$00    A:00 X:4b Y:00 P:27 SP:fb CYC:10213
e134  f0 02      BEQ $e138   A:00 X:4b Y:00 P:27 SP:fb CYC:10215
e138  e8         INX         A:00 X:4b Y:00 P:27 SP:fb CYC:10218
e139  b8         CLV         A:00 X:4c Y:00 P:25 SP:fb CYC:10220
e13a  38         SEC         A:00 X:4c Y:00 P:25 SP:fb CYC:10222
e13b  a9 40      LDA #$40    A:00 X:4c Y:00 P:25 SP:fb CYC:10224
e13d  ce 00 04   DEC $0400   A:40 X:4c Y:00 P:25 SP:fb CYC:10226
e140  f9 00 04   SBC $0400,Y A:40 X:4c Y:00 P:25 SP:fb CYC:10232
e143  f0 0a      BEQ $e14f   A:01 X:4c Y:00 P:25 SP:fb CYC:10236
e145  30 08      BMI $e14f   A:01 X:4c Y:00 P:25 SP:fb CYC:10238
e147  90 06      BCC $e14f   A:01 X:4c Y:00 P:25 SP:fb CYC:10240
e149  70 04      BVS $e14f   A:01 X:4c Y:00 P:25 SP:fb CYC:10242
e14b  c9 01      CMP #$01    A:01 X:4c Y:00 P:25 SP:fb CYC:10244
e14d  f0 02      BEQ $e151   A:01 X:4c Y:00 P:27 SP:fb CYC:10246
e151  e8         INX         A:01 X:4c Y:00 P:27 SP:fb CYC:10249
e152  a9 40      LDA #$40    A:01 X:4d Y:00 P:25 SP:fb CYC:10251
e154  38         SEC         A:40 X:4d Y:00 P:25 SP:fb CYC:10253
e155  24 01      BIT $01     A:40 X:4d Y:00 P:25 SP:fb CYC:10255
e157  ee 00 04   INC $0400   A:40 X:4d Y:00 P:e5 SP:fb CYC:10258
e15a  ee 00 04   INC $0400   A:40 X:4d Y:00 P:65 SP:fb CYC:10264
e15d  f9 00 04   SBC $0400,Y A:40 X:4d Y:00 P:65 SP:fb CYC:10270
e160  b0 0a      BCS $e16c   A:ff X:4d Y:00 P:a4 SP:fb CYC:10274
e162  f0 08      BEQ $e16c   A:ff X:4d Y:00 P:a4 SP:fb CYC:10276
e164  10 06      BPL $e16c   A:ff X:4d Y:00 P:a4 SP:fb CYC:10278
e166  70 04      BVS $e16c   A:ff X:4d Y:00 P:a4 SP:fb CYC:10280
e168  c9 ff      CMP #$ff    A:ff X:4d Y:00 P:a4 SP:fb CYC:10282
e16a  f0 02      BEQ $e16e   A:ff X:4d Y:00 P:27 SP:fb CYC:10284
e16e  e8         INX         A:ff X:4d Y:00 P:27 SP:fb CYC:10287
e16f  18         CLC         A:ff X:4e Y:00 P:25 SP:fb CYC:10289
e170  a9 00      LDA #$00    A:ff X:4e Y:00 P:24 SP:fb CYC:10291
e172  8d 00 04   STA $0400   A:00 X:4e Y:00 P:26 SP:fb CYC:10293
e175  a9 80      LDA #$80    A:00 X:4e Y:00 P:26 SP:fb CYC:10297
e177  f9 00 04   SBC $0400,Y A:80 X:4e Y:00 P:a4 SP:fb CYC:10299
e17a  90 04      BCC $e180   A:7f X:4e Y:00 P:65 SP:fb CYC:10303
e17c  c9 7f      CMP #$7f    A:7f X:4e Y:00 P:65 SP:fb CYC:10305
e17e  f0 02      BEQ $e182   A:7f X:4e Y:00 P:67 SP:fb CYC:10307
e182  e8         INX         A:7f X:4e Y:00 P:67 SP:fb CYC:10310
e183  38         SEC         A:7f X:4f Y:00 P:65 SP:fb CYC:10312
e184  a9 7f      LDA #$7f    A:7f X:4f Y:00 P:65 SP:fb CYC:10314
e186  8d 00 04   STA $0400   A:7f X:4f Y:00 P:65 SP:fb CYC:10316
e189  a9 81      LDA #$81    A:7f X:4f Y:00 P:65 SP:fb CYC:10320
e18b  f9 00 04   SBC $0400,Y A:81 X:4f Y:00 P:e5 SP:fb CYC:10322
e18e  50 06      BVC $e196   A:02 X:4f Y:00 P:65 SP:fb CYC:10326
e190  90 04      BCC $e196   A:02 X:4f Y:00 P:65 SP:fb CYC:10328
e192  c9 02      CMP #$02    A:02 X:4f Y:00 P:65 SP:fb CYC:10330
e194  f0 02      BEQ $e198   A:02 X:4f Y:00 P:67 SP:fb CYC:10332
e198  e8         INX         A:02 X:4f Y:00 P:67 SP:fb CYC:10335
e199  a9 00      LDA #$00    A:02 X:50 Y:00 P:65 SP:fb CYC:10337
e19b  a9 87      LDA #$87    A:00 X:50 Y:00 P:67 SP:fb CYC:10339
e19d  99 00 04   STA $0400,Y A:87 X:50 Y:00 P:e5 SP:fb CYC:10341
e1a0  ad 00 04   LDA $0400   A:87 X:50 Y:00 P:e5 SP:fb CYC:10346
e1a3  c9 87      CMP #$87    A:87 X:50 Y:00 P:e5 SP:fb CYC:10350
e1a5  f0 02      BEQ $e1a9   A:87 X:50 Y:00 P:67 SP:fb CYC:10352
e1a9  60         RTS         A:87 X:50 Y:00 P:67 SP:fb CYC:10355
c629  20 b8 db   JSR $dbb8   A:87 X:50 Y:00 P:67 SP:fd CYC:10361
dbb8  a9 ff      LDA #$ff    A:87 X:50 Y:00 P:67 SP:fb CYC:10367
dbba  85 01      STA $01     A:ff X:50 Y:00 P:e5 SP:fb CYC:10369
dbbc  a9 aa      LDA #$aa    A:ff X:50 Y:00 P:e5 SP:fb CYC:10372
dbbe  85 33      STA $33     A:aa X:50 Y:00 P:e5 SP:fb CYC:10374
dbc0  a9 bb      LDA #$bb    A:aa X:50 Y:00 P:e5 SP:fb CYC:10377
dbc2  85 89      STA $89     A:bb X:50 Y:00 P:e5 SP:fb CYC:10379
dbc4  a2 00      LDX #$00    A:bb X:50 Y:00 P:e5 SP:fb CYC:10382
dbc6  a9 66      LDA #$66    A:bb X:00 Y:00 P:67 SP:fb CYC:10384
dbc8  24 01      BIT $01     A:66 X:00 Y:00 P:65 SP:fb CYC:10386
dbca  38         SEC         A:66 X:00 Y:00 P:e5 SP:fb CYC:10389
dbcb  a0 00      LDY #$00    A:66 X:00 Y:00 P:e5 SP:fb CYC:10391
dbcd  b4 33      LDY $33,X   A:66 X:00 Y:00 P:67 SP:fb CYC:10393
dbcf  10 12      BPL $dbe3   A:66 X:00 Y:aa P:e5 SP:fb CYC:10397
dbd1  f0 10      BEQ $dbe3   A:66 X:00 Y:aa P:e5 SP:fb CYC:10399
dbd3  50 0e      BVC $dbe3   A:66 X:00 Y:aa P:e5 SP:fb CYC:10401
dbd5  90 0c      BCC $dbe3   A:66 X:00 Y:aa P:e5 SP:fb CYC:10403
dbd7  c9 66      CMP #$66    A:66 X:00 Y:aa P:e5 SP:fb CYC:10405
dbd9  d0 08      BNE $dbe3   A:66 X:00 Y:aa P:67 SP:fb CYC:10407
dbdb  e0 00      CPX #$00    A:66 X:00 Y:aa P:67 SP:fb CYC:10409
dbdd  d0 04      BNE $dbe3   A:66 X:00 Y:aa P:67 SP:fb CYC:10411
dbdf  c0 aa      CPY #$aa    A:66 X:00 Y:aa P:67 SP:fb CYC:10413
dbe1  f0 04      BEQ $dbe7   A:66 X:00 Y:aa P:67 SP:fb CYC:10415
dbe7  a2 8a      LDX #$8a    A:66 X:00 Y:aa P:67 SP:fb CYC:10418
dbe9  a9 66      LDA #$66    A:66 X:8a Y:aa P:e5 SP:fb CYC:10420
dbeb  b8         CLV         A:66 X:8a Y:aa P:65 SP:fb CYC:10422
dbec  18         CLC         A:66 X:8a Y:aa P:25 SP:fb CYC:10424
dbed  a0 00      LDY #$00    A:66 X:8a Y:aa P:24 SP:fb CYC:10426
dbef  b4 ff      LDY $ff,X   A:66 X:8a Y:00 P:26 SP:fb CYC:10428
dbf1  10 12      BPL $dc05   A:66 X:8a Y:bb P:a4 SP:fb CYC:10432
dbf3  f0 10      BEQ $dc05   A:66 X:8a Y:bb P:a4 SP:fb CYC:10434
dbf5  70 0e      BVS $dc05   A:66 X:8a Y:bb P:a4 SP:fb CYC:10436
dbf7  b0 0c      BCS $dc05   A:66 X:8a Y:bb P:a4 SP:fb CYC:10438
dbf9  c0 bb      CPY #$bb    A:66 X:8a Y:bb P:a4 SP:fb CYC:10440
dbfb  d0 08      BNE $dc05   A:66 X:8a Y:bb P:27 SP:fb CYC:10442
dbfd  c9 66      CMP #$66    A:66 X:8a Y:bb P:27 SP:fb CYC:10444
dbff  d0 04      BNE $dc05   A:66 X:8a Y:bb P:27 SP:fb CYC:10446
dc01  e0 8a      CPX #$8a    A:66 X:8a Y:bb P:27 SP:fb CYC:10448
dc03  f0 04      BEQ $dc09   A:66 X:8a Y:bb P:27 SP:fb CYC:10450
dc09  24 01      BIT $01     A:66 X:8a Y:bb P:27 SP:fb CYC:10453
dc0b  38         SEC         A:66 X:8a Y:bb P:e5 SP:fb CYC:10456
dc0c  a0 44      LDY #$44    A:66 X:8a Y:bb P:e5 SP:fb CYC:10458
dc0e  a2 00      LDX #$00    A:66 X:8a Y:44 P:65 SP:fb CYC:10460
dc10  94 33      STY $33,X   A:66 X:00 Y:44 P:67 SP:fb CYC:10462
dc12  a5 33      LDA $33     A:66 X:00 Y:44 P:67 SP:fb CYC:10466
dc14  90 18      BCC $dc2e   A:44 X:00 Y:44 P:65 SP:fb CYC:10469
dc16  c9 44      CMP #$44    A:44 X:00 Y:44 P:65 SP:fb CYC:10471
dc18  d0 14      BNE $dc2e   A:44 X:00 Y:44 P:67 SP:fb CYC:10473
dc1a  50 12      BVC $dc2e   A:44 X:00 Y:44 P:67 SP:fb CYC:10475
dc1c  18         CLC         A:44 X:00 Y:44 P:67 SP:fb CYC:10477
dc1d  b8         CLV         A:44 X:00 Y:44 P:66 SP:fb CYC:10479
dc1e  a0 99      LDY #$99    A:44 X:00 Y:44 P:26 SP:fb CYC:10481
dc20  a2 80      LDX #$80    A:44 X:00 Y:99 P:a4 SP:fb CYC:10483
dc22  94 85      STY $85,X   A:44 X:80 Y:99 P:a4 SP:fb CYC:10485
dc24  a5 05      LDA $05     A:44 X:80 Y:99 P:a4 SP:fb CYC:10489
dc26  b0 06      BCS $dc2e   A:99 X:80 Y:99 P:a4 SP:fb CYC:10492
dc28  c9 99      CMP #$99    A:99 X:80 Y:99 P:a4 SP:fb CYC:10494
dc2a  d0 02      BNE $dc2e   A:99 X:80 Y:99 P:27 SP:fb CYC:10496
dc2c  50 04      BVC $dc32   A:99 X:80 Y:99 P:27 SP:fb CYC:10498
dc32  a0 0b      LDY #$0b    A:99 X:80 Y:99 P:27 SP:fb CYC:10501
dc34  a9 aa      LDA #$aa    A:99 X:80 Y:0b P:25 SP:fb CYC:10503
dc36  a2 78      LDX #$78    A:aa X:80 Y:0b P:a5 SP:fb CYC:10505
dc38  85 78      STA $78     A:aa X:78 Y:0b P:25 SP:fb CYC:10507
dc3a  20 b6 f7   JSR $f7b6   A:aa X:78 Y:0b P:25 SP:fb CYC:10510
f7b6  18         CLC         A:aa X:78 Y:0b P:25 SP:f9 CYC:10516
f7b7  a9 ff      LDA #$ff    A:aa X:78 Y:0b P:24 SP:f9 CYC:10518
f7b9  85 01      STA $01     A:ff X:78 Y:0b P:a4 SP:f9 CYC:10520
f7bb  24 01      BIT $01     A:ff X:78 Y:0b P:a4 SP:f9 CYC:10523
f7bd  a9 55      LDA #$55    A:ff X:78 Y:0b P:e4 SP:f9 CYC:10526
f7bf  60         RTS         A:55 X:78 Y:0b P:64 SP:f9 CYC:10528
dc3d  15 00      ORA $00,X   A:55 X:78 Y:0b P:64 SP:fb CYC:10534
dc3f  20 c0 f7   JSR $f7c0   A:ff X:78 Y:0b P:e4 SP:fb CYC:10538
f7c0  b0 09      BCS $f7cb   A:ff X:78 Y:0b P:e4 SP:f9 CYC:10544
f7c2  10 07      BPL $f7cb   A:ff X:78 Y:0b P:e4 SP:f9 CYC:10546
f7c4  c9 ff      CMP #$ff    A:ff X:78 Y:0b P:e4 SP:f9 CYC:10548
f7c6  d0 03      BNE $f7cb   A:ff X:78 Y:0b P:67 SP:f9 CYC:10550
f7c8  50 01      BVC $f7cb   A:ff X:78 Y:0b P:67 SP:f9 CYC:10552
f7ca  60         RTS         A:ff X:78 Y:0b P:67 SP:f9 CYC:10554
dc42  c8         INY         A:ff X:78 Y:0b P:67 SP:fb CYC:10560
dc43  a9 00      LDA #$00    A:ff X:78 Y:0c P:65 SP:fb CYC:10562
dc45  85 78      STA $78     A:00 X:78 Y:0c P:67 SP:fb CYC:10564
dc47  20 ce f7   JSR $f7ce   A:00 X:78 Y:0c P:67 SP:fb CYC:10567
f7ce  38         SEC         A:00 X:78 Y:0c P:67 SP:f9 CYC:10573
f7cf  b8         CLV         A:00 X:78 Y:0c P:67 SP:f9 CYC:10575
f7d0  a9 00      LDA #$00    A:00 X:78 Y:0c P:27 SP:f9 CYC:10577
f7d2  60         RTS         A:00 X:78 Y:0c P:27 SP:f9 CYC:10579
dc4a  15 00      ORA $00,X   A:00 X:78 Y:0c P:27 SP:fb CYC:10585
dc4c  20 d3 f7   JSR $f7d3   A:00 X:78 Y:0c P:27 SP:fb CYC:10589
f7d3  d0 07      BNE $f7dc   A:00 X:78 Y:0c P:27 SP:f9 CYC:10595
f7d5  70 05      BVS $f7dc   A:00 X:78 Y:0c P:27 SP:f9 CYC:10597
f7d7  90 03      BCC $f7dc   A:00 X:78 Y:0c P:27 SP:f9 CYC:10599
f7d9  30 01      BMI $f7dc   A:00 X:78 Y:0c P:27 SP:f9 CYC:10601
f7db  60         RTS         A:00 X:78 Y:0c P:27 SP:f9 CYC:10603
dc4f  c8         INY         A:00 X:78 Y:0c P:27 SP:fb CYC:10609
dc50  a9 aa      LDA #$aa    A:00 X:78 Y:0d P:25 SP:fb CYC:10611
dc52  85 78      STA $78     A:aa X:78 Y:0d P:a5 SP:fb CYC:10613
dc54  20 df f7   JSR $f7df   A:aa X:78 Y:0d P:a5 SP:fb CYC:10616
f7df  18         CLC         A:aa X:78 Y:0d P:a5 SP:f9 CYC:10622
f7e0  24 01      BIT $01     A:aa X:78 Y:0d P:a4 SP:f9 CYC:10624
f7e2  a9 55      LDA #$55    A:aa X:78 Y:0d P:e4 SP:f9 CYC:10627
f7e4  60         RTS         A:55 X:78 Y:0d P:64 SP:f9 CYC:10629
dc57  35 00      AND $00,X   A:55 X:78 Y:0d P:64 SP:fb CYC:10635
dc59  20 e5 f7   JSR $f7e5   A:00 X:78 Y:0d P:66 SP:fb CYC:10639
f7e5  d0 07      BNE $f7ee   A:00 X:78 Y:0d P:66 SP:f9 CYC:10645
f7e7  50 05      BVC $f7ee   A:00 X:78 Y:0d P:66 SP:f9 CYC:10647
f7e9  b0 03      BCS $f7ee   A:00 X:78 Y:0d P:66 SP:f9 CYC:10649
f7eb  30 01      BMI $f7ee   A:00 X:78 Y:0d P:66 SP:f9 CYC:10651
f7ed  60         RTS         A:00 X:78 Y:0d P:66 SP:f9 CYC:10653
dc5c  c8         INY         A:00 X:78 Y:0d P:66 SP:fb CYC:10659
dc5d  a9 ef      LDA #$ef    A:00 X:78 Y:0e P:64 SP:fb CYC:10661
dc5f  85 78      STA $78     A:ef X:78 Y:0e P:e4 SP:fb CYC:10663
dc61  20 f1 f7   JSR $f7f1   A:ef X:78 Y:0e P:e4 SP:fb CYC:10666
f7f1  38         SEC         A:ef X:78 Y:0e P:e4 SP:f9 CYC:10672
f7f2  b8         CLV         A:ef X:78 Y:0e P:e5 SP:f9 CYC:10674
f7f3  a9 f8      LDA #$f8    A:ef X:78 Y:0e P:a5 SP:f9 CYC:10676
f7f5  60         RTS         A:f8 X:78 Y:0e P:a5 SP:f9 CYC:10678
dc64  35 00      AND $00,X   A:f8 X:78 Y:0e P:a5 SP:fb CYC:10684
dc66  20 f6 f7   JSR $f7f6   A:e8 X:78 Y:0e P:a5 SP:fb CYC:10688
f7f6  90 09      BCC $f801   A:e8 X:78 Y:0e P:a5 SP:f9 CYC:10694
f7f8  10 07      BPL $f801   A:e8 X:78 Y:0e P:a5 SP:f9 CYC:10696
f7fa  c9 e8      CMP #$e8    A:e8 X:78 Y:0e P:a5 SP:f9 CYC:10698
f7fc  d0 03      BNE $f801   A:e8 X:78 Y:0e P:27 SP:f9 CYC:10700
f7fe  70 01      BVS $f801   A:e8 X:78 Y:0e P:27 SP:f9 CYC:10702
f800  60         RTS         A:e8 X:78 Y:0e P:27 SP:f9 CYC:10704
dc69  c8         INY         A:e8 X:78 Y:0e P:27 SP:fb CYC:10710
dc6a  a9 aa      LDA #$aa    A:e8 X:78 Y:0f P:25 SP:fb CYC:10712
dc6c  85 78      STA $78     A:aa X:78 Y:0f P:a5 SP:fb CYC:10714
dc6e  20 04 f8   JSR $f804   A:aa X:78 Y:0f P:a5 SP:fb CYC:10717
f804  18         CLC         A:aa X:78 Y:0f P:a5 SP:f9 CYC:10723
f805  24 01      BIT $01     A:aa X:78 Y:0f P:a4 SP:f9 CYC:10725
f807  a9 5f      LDA #$5f    A:aa X:78 Y:0f P:e4 SP:f9 CYC:10728
f809  60         RTS         A:5f X:78 Y:0f P:64 SP:f9 CYC:10730
dc71  55 00      EOR $00,X   A:5f X:78 Y:0f P:64 SP:fb CYC:10736
dc73  20 0a f8   JSR $f80a   A:f5 X:78 Y:0f P:e4 SP:fb CYC:10740
f80a  b0 09      BCS $f815   A:f5 X:78 Y:0f P:e4 SP:f9 CYC:10746
f80c  10 07      BPL $f815   A:f5 X:78 Y:0f P:e4 SP:f9 CYC:10748
f80e  c9 f5      CMP #$f5    A:f5 X:78 Y:0f P:e4 SP:f9 CYC:10750
f810  d0 03      BNE $f815   A:f5 X:78 Y:0f P:67 SP:f9 CYC:10752
f812  50 01      BVC $f815   A:f5 X:78 Y:0f P:67 SP:f9 CYC:10754
f814  60         RTS         A:f5 X:78 Y:0f P:67 SP:f9 CYC:10756
dc76  c8         INY         A:f5 X:78 Y:0f P:67 SP:fb CYC:10762
dc77  a9 70      LDA #$70    A:f5 X:78 Y:10 P:65 SP:fb CYC:10764
dc79  85 78      STA $78     A:70 X:78 Y:10 P:65 SP:fb CYC:10766
dc7b  20 18 f8   JSR $f818   A:70 X:78 Y:10 P:65 SP:fb CYC:10769
f818  38         SEC         A:70 X:78 Y:10 P:65 SP:f9 CYC:10775
f819  b8         CLV         A:70 X:78 Y:10 P:65 SP:f9 CYC:10777
f81a  a9 70      LDA #$70    A:70 X:78 Y:10 P:25 SP:f9 CYC:10779
f81c  60         RTS         A:70 X:78 Y:10 P:25 SP:f9 CYC:10781
dc7e  55 00      EOR $00,X   A:70 X:78 Y:10 P:25 SP:fb CYC:10787
dc80  20 1d f8   JSR $f81d   A:00 X:78 Y:10 P:27 SP:fb CYC:10791
f81d  d0 07      BNE $f826   A:00 X:78 Y:10 P:27 SP:f9 CYC:10797
f81f  70 05      BVS $f826   A:00 X:78 Y:10 P:27 SP:f9 CYC:10799
f821  90 03      BCC $f826   A:00 X:78 Y:10 P:27 SP:f9 CYC:10801
f823  30 01      BMI $f826   A:00 X:78 Y:10 P:27 SP:f9 CYC:10803
f825  60         RTS         A:00 X:78 Y:10 P:27 SP:f9 CYC:10805
dc83  c8         INY         A:00 X:78 Y:10 P:27 SP:fb CYC:10811
dc84  a9 69      LDA #$69    A:00 X:78 Y:11 P:25 SP:fb CYC:10813
dc86  85 78      STA $78     A:69 X:78 Y:11 P:25 SP:fb CYC:10815
dc88  20 29 f8   JSR $f829   A:69 X:78 Y:11 P:25 SP:fb CYC:10818
f829  18         CLC         A:69 X:78 Y:11 P:25 SP:f9 CYC:10824
f82a  24 01      BIT $01     A:69 X:78 Y:11 P:24 SP:f9 CYC:10826
f82c  a9 00      LDA #$00    A:69 X:78 Y:11 P:e4 SP:f9 CYC:10829
f82e  60         RTS         A:00 X:78 Y:11 P:66 SP:f9 CYC:10831
dc8b  75 00      ADC $00,X   A:00 X:78 Y:11 P:66 SP:fb CYC:10837
dc8d  20 2f f8   JSR $f82f   A:69 X:78 Y:11 P:24 SP:fb CYC:10841
f82f  30 09      BMI $f83a   A:69 X:78 Y:11 P:24 SP:f9 CYC:10847
f831  b0 07      BCS $f83a   A:69 X:78 Y:11 P:24 SP:f9 CYC:10849
f833  c9 69      CMP #$69    A:69 X:78 Y:11 P:24 SP:f9 CYC:10851
f835  d0 03      BNE $f83a   A:69 X:78 Y:11 P:27 SP:f9 CYC:10853
f837  70 01      BVS $f83a   A:69 X:78 Y:11 P:27 SP:f9 CYC:10855
f839  60         RTS         A:69 X:78 Y:11 P:27 SP:f9 CYC:10857
dc90  c8         INY         A:69 X:78 Y:11 P:27 SP:fb CYC:10863
dc91  20 3d f8   JSR $f83d   A:69 X:78 Y:12 P:25 SP:fb CYC:10865
f83d  38         SEC         A:69 X:78 Y:12 P:25 SP:f9 CYC:10871
f83e  24 01      BIT $01     A:69 X:78 Y:12 P:25 SP:f9 CYC:10873
f840  a9 00      LDA #$00    A:69 X:78 Y:12 P:e5 SP:f9 CYC:10876
f842  60         RTS         A:00 X:78 Y:12 P:67 SP:f9 CYC:10878
dc94  75 00      ADC $00,X   A:00 X:78 Y:12 P:67 SP:fb CYC:10884
dc96  20 43 f8   JSR $f843   A:6a X:78 Y:12 P:24 SP:fb CYC:10888
f843  30 09      BMI $f84e   A:6a X:78 Y:12 P:24 SP:f9 CYC:10894
f845  b0 07      BCS $f84e   A:6a X:78 Y:12 P:24 SP:f9 CYC:10896
f847  c9 6a      CMP #$6a    A:6a X:78 Y:12 P:24 SP:f9 CYC:10898
f849  d0 03      BNE $f84e   A:6a X:78 Y:12 P:27 SP:f9 CYC:10900
f84b  70 01      BVS $f84e   A:6a X:78 Y:12 P:27 SP:f9 CYC:10902
f84d  60         RTS         A:6a X:78 Y:12 P:27 SP:f9 CYC:10904
dc99  c8         INY         A:6a X:78 Y:12 P:27 SP:fb CYC:10910
dc9a  a9 7f      LDA #$7f    A:6a X:78 Y:13 P:25 SP:fb CYC:10912
dc9c  85 78      STA $78     A:7f X:78 Y:13 P:25 SP:fb CYC:10914
dc9e  20 51 f8   JSR $f851   A:7f X:78 Y:13 P:25 SP:fb CYC:10917
f851  38         SEC         A:7f X:78 Y:13 P:25 SP:f9 CYC:10923
f852  b8         CLV         A:7f X:78 Y:13 P:25 SP:f9 CYC:10925
f853  a9 7f      LDA #$7f    A:7f X:78 Y:13 P:25 SP:f9 CYC:10927
f855  60         RTS         A:7f X:78 Y:13 P:25 SP:f9 CYC:10929
dca1  75 00      ADC $00,X   A:7f X:78 Y:13 P:25 SP:fb CYC:10935
dca3  20 56 f8   JSR $f856   A:ff X:78 Y:13 P:e4 SP:fb CYC:10939
f856  10 09      BPL $f861   A:ff X:78 Y:13 P:e4 SP:f9 CYC:10945
f858  b0 07      BCS $f861   A:ff X:78 Y:13 P:e4 SP:f9 CYC:10947
f85a  c9 ff      CMP #$ff    A:ff X:78 Y:13 P:e4 SP:f9 CYC:10949
f85c  d0 03      BNE $f861   A:ff X:78 Y:13 P:67 SP:f9 CYC:10951
f85e  50 01      BVC $f861   A:ff X:78 Y:13 P:67 SP:f9 CYC:10953
f860  60         RTS         A:ff X:78 Y:13 P:67 SP:f9 CYC:10955
dca6  c8         INY         A:ff X:78 Y:13 P:67 SP:fb CYC:10961
dca7  a9 80      LDA #$80    A:ff X:78 Y:14 P:65 SP:fb CYC:10963
dca9  85 78      STA $78     A:80 X:78 Y:14 P:e5 SP:fb CYC:10965
dcab  20 64 f8   JSR $f864   A:80 X:78 Y:14 P:e5 SP:fb CYC:10968
f864  18         CLC         A:80 X:78 Y:14 P:e5 SP:f9 CYC:10974
f865  24 01      BIT $01     A:80 X:78 Y:14 P:e4 SP:f9 CYC:10976
f867  a9 7f      LDA #$7f    A:80 X:78 Y:14 P:e4 SP:f9 CYC:10979
f869  60         RTS         A:7f X:78 Y:14 P:64 SP:f9 CYC:10981
dcae  75 00      ADC $00,X   A:7f X:78 Y:14 P:64 SP:fb CYC:10987
dcb0  20 6a f8   JSR $f86a   A:ff X:78 Y:14 P:a4 SP:fb CYC:10991
f86a  10 09      BPL $f875   A:ff X:78 Y:14 P:a4 SP:f9 CYC:10997
f86c  b0 07      BCS $f875   A:ff X:78 Y:14 P:a4 SP:f9 CYC:10999
f86e  c9 ff      CMP #$ff    A:ff X:78 Y:14 P:a4 SP:f9 CYC:11001
f870  d0 03      BNE $f875   A:ff X:78 Y:14 P:27 SP:f9 CYC:11003
f872  70 01      BVS $f875   A:ff X:78 Y:14 P:27 SP:f9 CYC:11005
f874  60         RTS         A:ff X:78 Y:14 P:27 SP:f9 CYC:11007
dcb3  c8         INY         A:ff X:78 Y:14 P:27 SP:fb CYC:11013
dcb4  20 78 f8   JSR $f878   A:ff X:78 Y:15 P:25 SP:fb CYC:11015
f878  38         SEC         A:ff X:78 Y:15 P:25 SP:f9 CYC:11021
f879  b8         CLV         A:ff X:78 Y:15 P:25 SP:f9 CYC:11023
f87a  a9 7f      LDA #$7f    A:ff X:78 Y:15 P:25 SP:f9 CYC:11025
f87c  60         RTS         A:7f X:78 Y:15 P:25 SP:f9 CYC:11027
dcb7  75 00      ADC $00,X   A:7f X:78 Y:15 P:25 SP:fb CYC:11033
dcb9  20 7d f8   JSR $f87d   A:00 X:78 Y:15 P:27 SP:fb CYC:11037
f87d  d0 07      BNE $f886   A:00 X:78 Y:15 P:27 SP:f9 CYC:11043
f87f  30 05      BMI $f886   A:00 X:78 Y:15 P:27 SP:f9 CYC:11045
f881  70 03      BVS $f886   A:00 X:78 Y:15 P:27 SP:f9 CYC:11047
f883  90 01      BCC $f886   A:00 X:78 Y:15 P:27 SP:f9 CYC:11049
f885  60         RTS         A:00 X:78 Y:15 P:27 SP:f9 CYC:11051
dcbc  c8         INY         A:00 X:78 Y:15 P:27 SP:fb CYC:11057
dcbd  a9 40      LDA #$40    A:00 X:78 Y:16 P:25 SP:fb CYC:11059
dcbf  85 78      STA $78     A:40 X:78 Y:16 P:25 SP:fb CYC:11061
dcc1  20 89 f8   JSR $f889   A:40 X:78 Y:16 P:25 SP:fb CYC:11064
f889  24 01      BIT $01     A:40 X:78 Y:16 P:25 SP:f9 CYC:11070
f88b  a9 40      LDA #$40    A:40 X:78 Y:16 P:e5 SP:f9 CYC:11073
f88d  60         RTS         A:40 X:78 Y:16 P:65 SP:f9 CYC:11075
dcc4  d5 00      CMP $00,X   A:40 X:78 Y:16 P:65 SP:fb CYC:11081
dcc6  20 8e f8   JSR $f88e   A:40 X:78 Y:16 P:67 SP:fb CYC:11085
f88e  30 07      BMI $f897   A:40 X:78 Y:16 P:67 SP:f9 CYC:11091
f890  90 05      BCC $f897   A:40 X:78 Y:16 P:67 SP:f9 CYC:11093
f892  d0 03      BNE $f897   A:40 X:78 Y:16 P:67 SP:f9 CYC:11095
f894  50 01      BVC $f897   A:40 X:78 Y:16 P:67 SP:f9 CYC:11097
f896  60         RTS         A:40 X:78 Y:16 P:67 SP:f9 CYC:11099
dcc9  c8         INY         A:40 X:78 Y:16 P:67 SP:fb CYC:11105
dcca  48         PHA         A:40 X:78 Y:17 P:65 SP:fb CYC:11107
dccb  a9 3f      LDA #$3f    A:40 X:78 Y:17 P:65 SP:fa CYC:11110
dccd  85 78      STA $78     A:3f X:78 Y:17 P:65 SP:fa CYC:11112
dccf  68         PLA         A:3f X:78 Y:17 P:65 SP:fa CYC:11115
dcd0  20 9a f8   JSR $f89a   A:40 X:78 Y:17 P:65 SP:fb CYC:11119
f89a  b8         CLV         A:40 X:78 Y:17 P:65 SP:f9 CYC:11125
f89b  60         RTS         A:40 X:78 Y:17 P:25 SP:f9 CYC:11127
dcd3  d5 00      CMP $00,X   A:40 X:78 Y:17 P:25 SP:fb CYC:11133
dcd5  20 9c f8   JSR $f89c   A:40 X:78 Y:17 P:25 SP:fb CYC:11137
f89c  f0 07      BEQ $f8a5   A:40 X:78 Y:17 P:25 SP:f9 CYC:11143
f89e  30 05      BMI $f8a5   A:40 X:78 Y:17 P:25 SP:f9 CYC:11145
f8a0  90 03      BCC $f8a5   A:40 X:78 Y:17 P:25 SP:f9 CYC:11147
f8a2  70 01      BVS $f8a5   A:40 X:78 Y:17 P:25 SP:f9 CYC:11149
f8a4  60         RTS         A:40 X:78 Y:17 P:25 SP:f9 CYC:11151
dcd8  c8         INY         A:40 X:78 Y:17 P:25 SP:fb CYC:11157
dcd9  48         PHA         A:40 X:78 Y:18 P:25 SP:fb CYC:11159
dcda  a9 41      LDA #$41    A:40 X:78 Y:18 P:25 SP:fa CYC:11162
dcdc  85 78      STA $78     A:41 X:78 Y:18 P:25 SP:fa CYC:11164
dcde  68         PLA         A:41 X:78 Y:18 P:25 SP:fa CYC:11167
dcdf  d5 00      CMP $00,X   A:40 X:78 Y:18 P:25 SP:fb CYC:11171
dce1  20 a8 f8   JSR $f8a8   A:40 X:78 Y:18 P:a4 SP:fb CYC:11175
f8a8  f0 05      BEQ $f8af   A:40 X:78 Y:18 P:a4 SP:f9 CYC:11181
f8aa  10 03      BPL $f8af   A:40 X:78 Y:18 P:a4 SP:f9 CYC:11183
f8ac  10 01      BPL $f8af   A:40 X:78 Y:18 P:a4 SP:f9 CYC:11185
f8ae  60         RTS         A:40 X:78 Y:18 P:a4 SP:f9 CYC:11187
dce4  c8         INY         A:40 X:78 Y:18 P:a4 SP:fb CYC:11193
dce5  48         PHA         A:40 X:78 Y:19 P:24 SP:fb CYC:11195
dce6  a9 00      LDA #$00    A:40 X:78 Y:19 P:24 SP:fa CYC:11198
dce8  85 78      STA $78     A:00 X:78 Y:19 P:26 SP:fa CYC:11200
dcea  68         PLA         A:00 X:78 Y:19 P:26 SP:fa CYC:11203
dceb  20 b2 f8   JSR $f8b2   A:40 X:78 Y:19 P:24 SP:fb CYC:11207
f8b2  a9 80      LDA #$80    A:40 X:78 Y:19 P:24 SP:f9 CYC:11213
f8b4  60         RTS         A:80 X:78 Y:19 P:a4 SP:f9 CYC:11215
dcee  d5 00      CMP $00,X   A:80 X:78 Y:19 P:a4 SP:fb CYC:11221
dcf0  20 b5 f8   JSR $f8b5   A:80 X:78 Y:19 P:a5 SP:fb CYC:11225
f8b5  f0 05      BEQ $f8bc   A:80 X:78 Y:19 P:a5 SP:f9 CYC:11231
f8b7  10 03      BPL $f8bc   A:80 X:78 Y:19 P:a5 SP:f9 CYC:11233
f8b9  90 01      BCC $f8bc   A:80 X:78 Y:19 P:a5 SP:f9 CYC:11235
f8bb  60         RTS         A:80 X:78 Y:19 P:a5 SP:f9 CYC:11237
dcf3  c8         INY         A:80 X:78 Y:19 P:a5 SP:fb CYC:11243
dcf4  48         PHA         A:80 X:78 Y:1a P:25 SP:fb CYC:11245
dcf5  a9 80      LDA #$80    A:80 X:78 Y:1a P:25 SP:fa CYC:11248
dcf7  85 78      STA $78     A:80 X:78 Y:1a P:a5 SP:fa CYC:11250
dcf9  68         PLA         A:80 X:78 Y:1a P:a5 SP:fa CYC:11253
dcfa  d5 00      CMP $00,X   A:80 X:78 Y:1a P:a5 SP:fb CYC:11257
dcfc  20 bf f8   JSR $f8bf   A:80 X:78 Y:1a P:27 SP:fb CYC:11261
f8bf  d0 05      BNE $f8c6   A:80 X:78 Y:1a P:27 SP:f9 CYC:11267
f8c1  30 03      BMI $f8c6   A:80 X:78 Y:1a P:27 SP:f9 CYC:11269
f8c3  90 01      BCC $f8c6   A:80 X:78 Y:1a P:27 SP:f9 CYC:11271
f8c5  60         RTS         A:80 X:78 Y:1a P:27 SP:f9 CYC:11273
dcff  c8         INY         A:80 X:78 Y:1a P:27 SP:fb CYC:11279
dd00  48         PHA         A:80 X:78 Y:1b P:25 SP:fb CYC:11281
dd01  a9 81      LDA #$81    A:80 X:78 Y:1b P:25 SP:fa CYC:11284
dd03  85 78      STA $78     A:81 X:78 Y:1b P:a5 SP:fa CYC:11286
dd05  68         PLA         A:81 X:78 Y:1b P:a5 SP:fa CYC:11289
dd06  d5 00      CMP $00,X   A:80 X:78 Y:1b P:a5 SP:fb CYC:11293
dd08  20 c9 f8   JSR $f8c9   A:80 X:78 Y:1b P:a4 SP:fb CYC:11297
f8c9  b0 05      BCS $f8d0   A:80 X:78 Y:1b P:a4 SP:f9 CYC:11303
f8cb  f0 03      BEQ $f8d0   A:80 X:78 Y:1b P:a4 SP:f9 CYC:11305
f8cd  10 01      BPL $f8d0   A:80 X:78 Y:1b P:a4 SP:f9 CYC:11307
f8cf  60         RTS         A:80 X:78 Y:1b P:a4 SP:f9 CYC:11309
dd0b  c8         INY         A:80 X:78 Y:1b P:a4 SP:fb CYC:11315
dd0c  48         PHA         A:80 X:78 Y:1c P:24 SP:fb CYC:11317
dd0d  a9 7f      LDA #$7f    A:80 X:78 Y:1c P:24 SP:fa CYC:11320
dd0f  85 78      STA $78     A:7f X:78 Y:1c P:24 SP:fa CYC:11322
dd11  68         PLA         A:7f X:78 Y:1c P:24 SP:fa CYC:11325
dd12  d5 00      CMP $00,X   A:80 X:78 Y:1c P:a4 SP:fb CYC:11329
dd14  20 d3 f8   JSR $f8d3   A:80 X:78 Y:1c P:25 SP:fb CYC:11333
f8d3  90 05      BCC $f8da   A:80 X:78 Y:1c P:25 SP:f9 CYC:11339
f8d5  f0 03      BEQ $f8da   A:80 X:78 Y:1c P:25 SP:f9 CYC:11341
f8d7  30 01      BMI $f8da   A:80 X:78 Y:1c P:25 SP:f9 CYC:11343
f8d9  60         RTS         A:80 X:78 Y:1c P:25 SP:f9 CYC:11345
dd17  c8         INY         A:80 X:78 Y:1c P:25 SP:fb CYC:11351
dd18  a9 40      LDA #$40    A:80 X:78 Y:1d P:25 SP:fb CYC:11353
dd1a  85 78      STA $78     A:40 X:78 Y:1d P:25 SP:fb CYC:11355
dd1c  20 31 f9   JSR $f931   A:40 X:78 Y:1d P:25 SP:fb CYC:11358
f931  24 01      BIT $01     A:40 X:78 Y:1d P:25 SP:f9 CYC:11364
f933  a9 40      LDA #$40    A:40 X:78 Y:1d P:e5 SP:f9 CYC:11367
f935  38         SEC         A:40 X:78 Y:1d P:65 SP:f9 CYC:11369
f936  60         RTS         A:40 X:78 Y:1d P:65 SP:f9 CYC:11371
dd1f  f5 00      SBC $00,X   A:40 X:78 Y:1d P:65 SP:fb CYC:11377
dd21  20 37 f9   JSR $f937   A:00 X:78 Y:1d P:27 SP:fb CYC:11381
f937  30 0b      BMI $f944   A:00 X:78 Y:1d P:27 SP:f9 CYC:11387
f939  90 09      BCC $f944   A:00 X:78 Y:1d P:27 SP:f9 CYC:11389
f93b  d0 07      BNE $f944   A:00 X:78 Y:1d P:27 SP:f9 CYC:11391
f93d  70 05      BVS $f944   A:00 X:78 Y:1d P:27 SP:f9 CYC:11393
f93f  c9 00      CMP #$00    A:00 X:78 Y:1d P:27 SP:f9 CYC:11395
f941  d0 01      BNE $f944   A:00 X:78 Y:1d P:27 SP:f9 CYC:11397
f943  60         RTS         A:00 X:78 Y:1d P:27 SP:f9 CYC:11399
dd24  c8         INY         A:00 X:78 Y:1d P:27 SP:fb CYC:11405
dd25  a9 3f      LDA #$3f    A:00 X:78 Y:1e P:25 SP:fb CYC:11407
dd27  85 78      STA $78     A:3f X:78 Y:1e P:25 SP:fb CYC:11409
dd29  20 47 f9   JSR $f947   A:3f X:78 Y:1e P:25 SP:fb CYC:11412
f947  b8         CLV         A:3f X:78 Y:1e P:25 SP:f9 CYC:11418
f948  38         SEC         A:3f X:78 Y:1e P:25 SP:f9 CYC:11420
f949  a9 40      LDA #$40    A:3f X:78 Y:1e P:25 SP:f9 CYC:11422
f94b  60         RTS         A:40 X:78 Y:1e P:25 SP:f9 CYC:11424
dd2c  f5 00      SBC $00,X   A:40 X:78 Y:1e P:25 SP:fb CYC:11430
dd2e  20 4c f9   JSR $f94c   A:01 X:78 Y:1e P:25 SP:fb CYC:11434
f94c  f0 0b      BEQ $f959   A:01 X:78 Y:1e P:25 SP:f9 CYC:11440
f94e  30 09      BMI $f959   A:01 X:78 Y:1e P:25 SP:f9 CYC:11442
f950  90 07      BCC $f959   A:01 X:78 Y:1e P:25 SP:f9 CYC:11444
f952  70 05      BVS $f959   A:01 X:78 Y:1e P:25 SP:f9 CYC:11446
f954  c9 01      CMP #$01    A:01 X:78 Y:1e P:25 SP:f9 CYC:11448
f956  d0 01      BNE $f959   A:01 X:78 Y:1e P:27 SP:f9 CYC:11450
f958  60         RTS         A:01 X:78 Y:1e P:27 SP:f9 CYC:11452
dd31  c8         INY         A:01 X:78 Y:1e P:27 SP:fb CYC:11458
dd32  a9 41      LDA #$41    A:01 X:78 Y:1f P:25 SP:fb CYC:11460
dd34  85 78      STA $78     A:41 X:78 Y:1f P:25 SP:fb CYC:11462
dd36  20 5c f9   JSR $f95c   A:41 X:78 Y:1f P:25 SP:fb CYC:11465
f95c  a9 40      LDA #$40    A:41 X:78 Y:1f P:25 SP:f9 CYC:11471
f95e  38         SEC         A:40 X:78 Y:1f P:25 SP:f9 CYC:11473
f95f  24 01      BIT $01     A:40 X:78 Y:1f P:25 SP:f9 CYC:11475
f961  60         RTS         A:40 X:78 Y:1f P:e5 SP:f9 CYC:11478
dd39  f5 00      SBC $00,X   A:40 X:78 Y:1f P:e5 SP:fb CYC:11484
dd3b  20 62 f9   JSR $f962   A:ff X:78 Y:1f P:a4 SP:fb CYC:11488
f962  b0 0b      BCS $f96f   A:ff X:78 Y:1f P:a4 SP:f9 CYC:11494
f964  f0 09      BEQ $f96f   A:ff X:78 Y:1f P:a4 SP:f9 CYC:11496
f966  10 07      BPL $f96f   A:ff X:78 Y:1f P:a4 SP:f9 CYC:11498
f968  70 05      BVS $f96f   A:ff X:78 Y:1f P:a4 SP:f9 CYC:11500
f96a  c9 ff      CMP #$ff    A:ff X:78 Y:1f P:a4 SP:f9 CYC:11502
f96c  d0 01      BNE $f96f   A:ff X:78 Y:1f P:27 SP:f9 CYC:11504
f96e  60         RTS         A:ff X:78 Y:1f P:27 SP:f9 CYC:11506
dd3e  c8         INY         A:ff X:78 Y:1f P:27 SP:fb CYC:11512
dd3f  a9 00      LDA #$00    A:ff X:78 Y:20 P:25 SP:fb CYC:11514
dd41  85 78      STA $78     A:00 X:78 Y:20 P:27 SP:fb CYC:11516
dd43  20 72 f9   JSR $f972   A:00 X:78 Y:20 P:27 SP:fb CYC:11519
f972  18         CLC         A:00 X:78 Y:20 P:27 SP:f9 CYC:11525
f973  a9 80      LDA #$80    A:00 X:78 Y:20 P:26 SP:f9 CYC:11527
f975  60         RTS         A:80 X:78 Y:20 P:a4 SP:f9 CYC:11529
dd46  f5 00      SBC $00,X   A:80 X:78 Y:20 P:a4 SP:fb CYC:11535
dd48  20 76 f9   JSR $f976   A:7f X:78 Y:20 P:65 SP:fb CYC:11539
f976  90 05      BCC $f97d   A:7f X:78 Y:20 P:65 SP:f9 CYC:11545
f978  c9 7f      CMP #$7f    A:7f X:78 Y:20 P:65 SP:f9 CYC:11547
f97a  d0 01      BNE $f97d   A:7f X:78 Y:20 P:67 SP:f9 CYC:11549
f97c  60         RTS         A:7f X:78 Y:20 P:67 SP:f9 CYC:11551
dd4b  c8         INY         A:7f X:78 Y:20 P:67 SP:fb CYC:11557
dd4c  a9 7f      LDA #$7f    A:7f X:78 Y:21 P:65 SP:fb CYC:11559
dd4e  85 78      STA $78     A:7f X:78 Y:21 P:65 SP:fb CYC:11561
dd50  20 80 f9   JSR $f980   A:7f X:78 Y:21 P:65 SP:fb CYC:11564
f980  38         SEC         A:7f X:78 Y:21 P:65 SP:f9 CYC:11570
f981  a9 81      LDA #$81    A:7f X:78 Y:21 P:65 SP:f9 CYC:11572
f983  60         RTS         A:81 X:78 Y:21 P:e5 SP:f9 CYC:11574
dd53  f5 00      SBC $00,X   A:81 X:78 Y:21 P:e5 SP:fb CYC:11580
dd55  20 84 f9   JSR $f984   A:02 X:78 Y:21 P:65 SP:fb CYC:11584
f984  50 07      BVC $f98d   A:02 X:78 Y:21 P:65 SP:f9 CYC:11590
f986  90 05      BCC $f98d   A:02 X:78 Y:21 P:65 SP:f9 CYC:11592
f988  c9 02      CMP #$02    A:02 X:78 Y:21 P:65 SP:f9 CYC:11594
f98a  d0 01      BNE $f98d   A:02 X:78 Y:21 P:67 SP:f9 CYC:11596
f98c  60         RTS         A:02 X:78 Y:21 P:67 SP:f9 CYC:11598
dd58  a9 aa      LDA #$aa    A:02 X:78 Y:21 P:67 SP:fb CYC:11604
dd5a  85 33      STA $33     A:aa X:78 Y:21 P:e5 SP:fb CYC:11606
dd5c  a9 bb      LDA #$bb    A:aa X:78 Y:21 P:e5 SP:fb CYC:11609
dd5e  85 89      STA $89     A:bb X:78 Y:21 P:e5 SP:fb CYC:11611
dd60  a2 00      LDX #$00    A:bb X:78 Y:21 P:e5 SP:fb CYC:11614
dd62  a0 66      LDY #$66    A:bb X:00 Y:21 P:67 SP:fb CYC:11616
dd64  24 01      BIT $01     A:bb X:00 Y:66 P:65 SP:fb CYC:11618
dd66  38         SEC         A:bb X:00 Y:66 P:e5 SP:fb CYC:11621
dd67  a9 00      LDA #$00    A:bb X:00 Y:66 P:e5 SP:fb CYC:11623
dd69  b5 33      LDA $33,X   A:00 X:00 Y:66 P:67 SP:fb CYC:11625
dd6b  10 12      BPL $dd7f   A:aa X:00 Y:66 P:e5 SP:fb CYC:11629
dd6d  f0 10      BEQ $dd7f   A:aa X:00 Y:66 P:e5 SP:fb CYC:11631
dd6f  50 0e      BVC $dd7f   A:aa X:00 Y:66 P:e5 SP:fb CYC:11633
dd71  90 0c      BCC $dd7f   A:aa X:00 Y:66 P:e5 SP:fb CYC:11635
dd73  c0 66      CPY #$66    A:aa X:00 Y:66 P:e5 SP:fb CYC:11637
dd75  d0 08      BNE $dd7f   A:aa X:00 Y:66 P:67 SP:fb CYC:11639
dd77  e0 00      CPX #$00    A:aa X:00 Y:66 P:67 SP:fb CYC:11641
dd79  d0 04      BNE $dd7f   A:aa X:00 Y:66 P:67 SP:fb CYC:11643
dd7b  c9 aa      CMP #$aa    A:aa X:00 Y:66 P:67 SP:fb CYC:11645
dd7d  f0 04      BEQ $dd83   A:aa X:00 Y:66 P:67 SP:fb CYC:11647
dd83  a2 8a      LDX #$8a    A:aa X:00 Y:66 P:67 SP:fb CYC:11650
dd85  a0 66      LDY #$66    A:aa X:8a Y:66 P:e5 SP:fb CYC:11652
dd87  b8         CLV         A:aa X:8a Y:66 P:65 SP:fb CYC:11654
dd88  18         CLC         A:aa X:8a Y:66 P:25 SP:fb CYC:11656
dd89  a9 00      LDA #$00    A:aa X:8a Y:66 P:24 SP:fb CYC:11658
dd8b  b5 ff      LDA $ff,X   A:00 X:8a Y:66 P:26 SP:fb CYC:11660
dd8d  10 12      BPL $dda1   A:bb X:8a Y:66 P:a4 SP:fb CYC:11664
dd8f  f0 10      BEQ $dda1   A:bb X:8a Y:66 P:a4 SP:fb CYC:11666
dd91  70 0e      BVS $dda1   A:bb X:8a Y:66 P:a4 SP:fb CYC:11668
dd93  b0 0c      BCS $dda1   A:bb X:8a Y:66 P:a4 SP:fb CYC:11670
dd95  c9 bb      CMP #$bb    A:bb X:8a Y:66 P:a4 SP:fb CYC:11672
dd97  d0 08      BNE $dda1   A:bb X:8a Y:66 P:27 SP:fb CYC:11674
dd99  c0 66      CPY #$66    A:bb X:8a Y:66 P:27 SP:fb CYC:11676
dd9b  d0 04      BNE $dda1   A:bb X:8a Y:66 P:27 SP:fb CYC:11678
dd9d  e0 8a      CPX #$8a    A:bb X:8a Y:66 P:27 SP:fb CYC:11680
dd9f  f0 04      BEQ $dda5   A:bb X:8a Y:66 P:27 SP:fb CYC:11682
dda5  24 01      BIT $01     A:bb X:8a Y:66 P:27 SP:fb CYC:11685
dda7  38         SEC         A:bb X:8a Y:66 P:e5 SP:fb CYC:11688
dda8  a9 44      LDA #$44    A:bb X:8a Y:66 P:e5 SP:fb CYC:11690
ddaa  a2 00      LDX #$00    A:44 X:8a Y:66 P:65 SP:fb CYC:11692
ddac  95 33      STA $33,X   A:44 X:00 Y:66 P:67 SP:fb CYC:11694
ddae  a5 33      LDA $33     A:44 X:00 Y:66 P:67 SP:fb CYC:11698
ddb0  90 18      BCC $ddca   A:44 X:00 Y:66 P:65 SP:fb CYC:11701
ddb2  c9 44      CMP #$44    A:44 X:00 Y:66 P:65 SP:fb CYC:11703
ddb4  d0 14      BNE $ddca   A:44 X:00 Y:66 P:67 SP:fb CYC:11705
ddb6  50 12      BVC $ddca   A:44 X:00 Y:66 P:67 SP:fb CYC:11707
ddb8  18         CLC         A:44 X:00 Y:66 P:67 SP:fb CYC:11709
ddb9  b8         CLV         A:44 X:00 Y:66 P:66 SP:fb CYC:11711
ddba  a9 99      LDA #$99    A:44 X:00 Y:66 P:26 SP:fb CYC:11713
ddbc  a2 80      LDX #$80    A:99 X:00 Y:66 P:a4 SP:fb CYC:11715
ddbe  95 85      STA $85,X   A:99 X:80 Y:66 P:a4 SP:fb CYC:11717
ddc0  a5 05      LDA $05     A:99 X:80 Y:66 P:a4 SP:fb CYC:11721
ddc2  b0 06      BCS $ddca   A:99 X:80 Y:66 P:a4 SP:fb CYC:11724
ddc4  c9 99      CMP #$99    A:99 X:80 Y:66 P:a4 SP:fb CYC:11726
ddc6  d0 02      BNE $ddca   A:99 X:80 Y:66 P:27 SP:fb CYC:11728
ddc8  50 04      BVC $ddce   A:99 X:80 Y:66 P:27 SP:fb CYC:11730
ddce  a0 25      LDY #$25    A:99 X:80 Y:66 P:27 SP:fb CYC:11733
ddd0  a2 78      LDX #$78    A:99 X:80 Y:25 P:25 SP:fb CYC:11735
ddd2  20 90 f9   JSR $f990   A:99 X:78 Y:25 P:25 SP:fb CYC:11737
f990  a2 55      LDX #$55    A:99 X:78 Y:25 P:25 SP:f9 CYC:11743
f992  a9 ff      LDA #$ff    A:99 X:55 Y:25 P:25 SP:f9 CYC:11745
f994  85 01      STA $01     A:ff X:55 Y:25 P:a5 SP:f9 CYC:11747
f996  ea         NOP         A:ff X:55 Y:25 P:a5 SP:f9 CYC:11750
f997  24 01      BIT $01     A:ff X:55 Y:25 P:a5 SP:f9 CYC:11752
f999  38         SEC         A:ff X:55 Y:25 P:e5 SP:f9 CYC:11755
f99a  a9 01      LDA #$01    A:ff X:55 Y:25 P:e5 SP:f9 CYC:11757
f99c  60         RTS         A:01 X:55 Y:25 P:65 SP:f9 CYC:11759
ddd5  95 00      STA $00,X   A:01 X:55 Y:25 P:65 SP:fb CYC:11765
ddd7  56 00      LSR $00,X   A:01 X:55 Y:25 P:65 SP:fb CYC:11769
ddd9  b5 00      LDA $00,X   A:01 X:55 Y:25 P:67 SP:fb CYC:11775
dddb  20 9d f9   JSR $f99d   A:00 X:55 Y:25 P:67 SP:fb CYC:11779
f99d  90 1b      BCC $f9ba   A:00 X:55 Y:25 P:67 SP:f9 CYC:11785
f99f  d0 19      BNE $f9ba   A:00 X:55 Y:25 P:67 SP:f9 CYC:11787
f9a1  30 17      BMI $f9ba   A:00 X:55 Y:25 P:67 SP:f9 CYC:11789
f9a3  50 15      BVC $f9ba   A:00 X:55 Y:25 P:67 SP:f9 CYC:11791
f9a5  c9 00      CMP #$00    A:00 X:55 Y:25 P:67 SP:f9 CYC:11793
f9a7  d0 11      BNE $f9ba   A:00 X:55 Y:25 P:67 SP:f9 CYC:11795
f9a9  b8         CLV         A:00 X:55 Y:25 P:67 SP:f9 CYC:11797
f9aa  a9 aa      LDA #$aa    A:00 X:55 Y:25 P:27 SP:f9 CYC:11799
f9ac  60         RTS         A:aa X:55 Y:25 P:a5 SP:f9 CYC:11801
ddde  c8         INY         A:aa X:55 Y:25 P:a5 SP:fb CYC:11807
dddf  95 00      STA $00,X   A:aa X:55 Y:26 P:25 SP:fb CYC:11809
dde1  56 00      LSR $00,X   A:aa X:55 Y:26 P:25 SP:fb CYC:11813
dde3  b5 00      LDA $00,X   A:aa X:55 Y:26 P:24 SP:fb CYC:11819
dde5  20 ad f9   JSR $f9ad   A:55 X:55 Y:26 P:24 SP:fb CYC:11823
f9ad  b0 0b      BCS $f9ba   A:55 X:55 Y:26 P:24 SP:f9 CYC:11829
f9af  f0 09      BEQ $f9ba   A:55 X:55 Y:26 P:24 SP:f9 CYC:11831
f9b1  30 07      BMI $f9ba   A:55 X:55 Y:26 P:24 SP:f9 CYC:11833
f9b3  70 05      BVS $f9ba   A:55 X:55 Y:26 P:24 SP:f9 CYC:11835
f9b5  c9 55      CMP #$55    A:55 X:55 Y:26 P:24 SP:f9 CYC:11837
f9b7  d0 01      BNE $f9ba   A:55 X:55 Y:26 P:27 SP:f9 CYC:11839
f9b9  60         RTS         A:55 X:55 Y:26 P:27 SP:f9 CYC:11841
dde8  c8         INY         A:55 X:55 Y:26 P:27 SP:fb CYC:11847
dde9  20 bd f9   JSR $f9bd   A:55 X:55 Y:27 P:25 SP:fb CYC:11849
f9bd  24 01      BIT $01     A:55 X:55 Y:27 P:25 SP:f9 CYC:11855
f9bf  38         SEC         A:55 X:55 Y:27 P:e5 SP:f9 CYC:11858
f9c0  a9 80      LDA #$80    A:55 X:55 Y:27 P:e5 SP:f9 CYC:11860
f9c2  60         RTS         A:80 X:55 Y:27 P:e5 SP:f9 CYC:11862
ddec  95 00      STA $00,X   A:80 X:55 Y:27 P:e5 SP:fb CYC:11868
ddee  16 00      ASL $00,X   A:80 X:55 Y:27 P:e5 SP:fb CYC:11872
ddf0  b5 00      LDA $00,X   A:80 X:55 Y:27 P:67 SP:fb CYC:11878
ddf2  20 c3 f9   JSR $f9c3   A:00 X:55 Y:27 P:67 SP:fb CYC:11882
f9c3  90 1c      BCC $f9e1   A:00 X:55 Y:27 P:67 SP:f9 CYC:11888
f9c5  d0 1a      BNE $f9e1   A:00 X:55 Y:27 P:67 SP:f9 CYC:11890
f9c7  30 18      BMI $f9e1   A:00 X:55 Y:27 P:67 SP:f9 CYC:11892
f9c9  50 16      BVC $f9e1   A:00 X:55 Y:27 P:67 SP:f9 CYC:11894
f9cb  c9 00      CMP #$00    A:00 X:55 Y:27 P:67 SP:f9 CYC:11896
f9cd  d0 12      BNE $f9e1   A:00 X:55 Y:27 P:67 SP:f9 CYC:11898
f9cf  b8         CLV         A:00 X:55 Y:27 P:67 SP:f9 CYC:11900
f9d0  a9 55      LDA #$55    A:00 X:55 Y:27 P:27 SP:f9 CYC:11902
f9d2  38         SEC         A:55 X:55 Y:27 P:25 SP:f9 CYC:11904
f9d3  60         RTS         A:55 X:55 Y:27 P:25 SP:f9 CYC:11906
ddf5  c8         INY         A:55 X:55 Y:27 P:25 SP:fb CYC:11912
ddf6  95 00      STA $00,X   A:55 X:55 Y:28 P:25 SP:fb CYC:11914
ddf8  16 00      ASL $00,X   A:55 X:55 Y:28 P:25 SP:fb CYC:11918
ddfa  b5 00      LDA $00,X   A:55 X:55 Y:28 P:a4 SP:fb CYC:11924
ddfc  20 d4 f9   JSR $f9d4   A:aa X:55 Y:28 P:a4 SP:fb CYC:11928
f9d4  b0 0b      BCS $f9e1   A:aa X:55 Y:28 P:a4 SP:f9 CYC:11934
f9d6  f0 09      BEQ $f9e1   A:aa X:55 Y:28 P:a4 SP:f9 CYC:11936
f9d8  10 07      BPL $f9e1   A:aa X:55 Y:28 P:a4 SP:f9 CYC:11938
f9da  70 05      BVS $f9e1   A:aa X:55 Y:28 P:a4 SP:f9 CYC:11940
f9dc  c9 aa      CMP #$aa    A:aa X:55 Y:28 P:a4 SP:f9 CYC:11942
f9de  d0 01      BNE $f9e1   A:aa X:55 Y:28 P:27 SP:f9 CYC:11944
f9e0  60         RTS         A:aa X:55 Y:28 P:27 SP:f9 CYC:11946
ddff  c8         INY         A:aa X:55 Y:28 P:27 SP:fb CYC:11952
de00  20 e4 f9   JSR $f9e4   A:aa X:55 Y:29 P:25 SP:fb CYC:11954
f9e4  24 01      BIT $01     A:aa X:55 Y:29 P:25 SP:f9 CYC:11960
f9e6  38         SEC         A:aa X:55 Y:29 P:e5 SP:f9 CYC:11963
f9e7  a9 01      LDA #$01    A:aa X:55 Y:29 P:e5 SP:f9 CYC:11965
f9e9  60         RTS         A:01 X:55 Y:29 P:65 SP:f9 CYC:11967
de03  95 00      STA $00,X   A:01 X:55 Y:29 P:65 SP:fb CYC:11973
de05  76 00      ROR $00,X   A:01 X:55 Y:29 P:65 SP:fb CYC:11977
de07  b5 00      LDA $00,X   A:01 X:55 Y:29 P:e5 SP:fb CYC:11983
de09  20 ea f9   JSR $f9ea   A:80 X:55 Y:29 P:e5 SP:fb CYC:11987
f9ea  90 1c      BCC $fa08   A:80 X:55 Y:29 P:e5 SP:f9 CYC:11993
f9ec  f0 1a      BEQ $fa08   A:80 X:55 Y:29 P:e5 SP:f9 CYC:11995
f9ee  10 18      BPL $fa08   A:80 X:55 Y:29 P:e5 SP:f9 CYC:11997
f9f0  50 16      BVC $fa08   A:80 X:55 Y:29 P:e5 SP:f9 CYC:11999
f9f2  c9 80      CMP #$80    A:80 X:55 Y:29 P:e5 SP:f9 CYC:12001
f9f4  d0 12      BNE $fa08   A:80 X:55 Y:29 P:67 SP:f9 CYC:12003
f9f6  b8         CLV         A:80 X:55 Y:29 P:67 SP:f9 CYC:12005
f9f7  18         CLC         A:80 X:55 Y:29 P:27 SP:f9 CYC:12007
f9f8  a9 55      LDA #$55    A:80 X:55 Y:29 P:26 SP:f9 CYC:12009
f9fa  60         RTS         A:55 X:55 Y:29 P:24 SP:f9 CYC:12011
de0c  c8         INY         A:55 X:55 Y:29 P:24 SP:fb CYC:12017
de0d  95 00      STA $00,X   A:55 X:55 Y:2a P:24 SP:fb CYC:12019
de0f  76 00      ROR $00,X   A:55 X:55 Y:2a P:24 SP:fb CYC:12023
de11  b5 00      LDA $00,X   A:55 X:55 Y:2a P:25 SP:fb CYC:12029
de13  20 fb f9   JSR $f9fb   A:2a X:55 Y:2a P:25 SP:fb CYC:12033
f9fb  90 0b      BCC $fa08   A:2a X:55 Y:2a P:25 SP:f9 CYC:12039
f9fd  f0 09      BEQ $fa08   A:2a X:55 Y:2a P:25 SP:f9 CYC:12041
f9ff  30 07      BMI $fa08   A:2a X:55 Y:2a P:25 SP:f9 CYC:12043
fa01  70 05      BVS $fa08   A:2a X:55 Y:2a P:25 SP:f9 CYC:12045
fa03  c9 2a      CMP #$2a    A:2a X:55 Y:2a P:25 SP:f9 CYC:12047
fa05  d0 01      BNE $fa08   A:2a X:55 Y:2a P:27 SP:f9 CYC:12049
fa07  60         RTS         A:2a X:55 Y:2a P:27 SP:f9 CYC:12051
de16  c8         INY         A:2a X:55 Y:2a P:27 SP:fb CYC:12057
de17  20 0a fa   JSR $fa0a   A:2a X:55 Y:2b P:25 SP:fb CYC:12059
fa0a  24 01      BIT $01     A:2a X:55 Y:2b P:25 SP:f9 CYC:12065
fa0c  38         SEC         A:2a X:55 Y:2b P:e5 SP:f9 CYC:12068
fa0d  a9 80      LDA #$80    A:2a X:55 Y:2b P:e5 SP:f9 CYC:12070
fa0f  60         RTS         A:80 X:55 Y:2b P:e5 SP:f9 CYC:12072
de1a  95 00      STA $00,X   A:80 X:55 Y:2b P:e5 SP:fb CYC:12078
de1c  36 00      ROL $00,X   A:80 X:55 Y:2b P:e5 SP:fb CYC:12082
de1e  b5 00      LDA $00,X   A:80 X:55 Y:2b P:65 SP:fb CYC:12088
de20  20 10 fa   JSR $fa10   A:01 X:55 Y:2b P:65 SP:fb CYC:12092
fa10  90 1c      BCC $fa2e   A:01 X:55 Y:2b P:65 SP:f9 CYC:12098
fa12  f0 1a      BEQ $fa2e   A:01 X:55 Y:2b P:65 SP:f9 CYC:12100
fa14  30 18      BMI $fa2e   A:01 X:55 Y:2b P:65 SP:f9 CYC:12102
fa16  50 16      BVC $fa2e   A:01 X:55 Y:2b P:65 SP:f9 CYC:12104
fa18  c9 01      CMP #$01    A:01 X:55 Y:2b P:65 SP:f9 CYC:12106
fa1a  d0 12      BNE $fa2e   A:01 X:55 Y:2b P:67 SP:f9 CYC:12108
fa1c  b8         CLV         A:01 X:55 Y:2b P:67 SP:f9 CYC:12110
fa1d  18         CLC         A:01 X:55 Y:2b P:27 SP:f9 CYC:12112
fa1e  a9 55      LDA #$55    A:01 X:55 Y:2b P:26 SP:f9 CYC:12114
fa20  60         RTS         A:55 X:55 Y:2b P:24 SP:f9 CYC:12116
de23  c8         INY         A:55 X:55 Y:2b P:24 SP:fb CYC:12122
de24  95 00      STA $00,X   A:55 X:55 Y:2c P:24 SP:fb CYC:12124
de26  36 00      ROL $00,X   A:55 X:55 Y:2c P:24 SP:fb CYC:12128
de28  b5 00      LDA $00,X   A:55 X:55 Y:2c P:a4 SP:fb CYC:12134
de2a  20 21 fa   JSR $fa21   A:aa X:55 Y:2c P:a4 SP:fb CYC:12138
fa21  b0 0b      BCS $fa2e   A:aa X:55 Y:2c P:a4 SP:f9 CYC:12144
fa23  f0 09      BEQ $fa2e   A:aa X:55 Y:2c P:a4 SP:f9 CYC:12146
fa25  10 07      BPL $fa2e   A:aa X:55 Y:2c P:a4 SP:f9 CYC:12148
fa27  70 05      BVS $fa2e   A:aa X:55 Y:2c P:a4 SP:f9 CYC:12150
fa29  c9 aa      CMP #$aa    A:aa X:55 Y:2c P:a4 SP:f9 CYC:12152
fa2b  d0 01      BNE $fa2e   A:aa X:55 Y:2c P:27 SP:f9 CYC:12154
fa2d  60         RTS         A:aa X:55 Y:2c P:27 SP:f9 CYC:12156
de2d  a9 ff      LDA #$ff    A:aa X:55 Y:2c P:27 SP:fb CYC:12162
de2f  95 00      STA $00,X   A:ff X:55 Y:2c P:a5 SP:fb CYC:12164
de31  85 01      STA $01     A:ff X:55 Y:2c P:a5 SP:fb CYC:12168
de33  24 01      BIT $01     A:ff X:55 Y:2c P:a5 SP:fb CYC:12171
de35  38         SEC         A:ff X:55 Y:2c P:e5 SP:fb CYC:12174
de36  f6 00      INC $00,X   A:ff X:55 Y:2c P:e5 SP:fb CYC:12176
de38  d0 0c      BNE $de46   A:ff X:55 Y:2c P:67 SP:fb CYC:12182
de3a  30 0a      BMI $de46   A:ff X:55 Y:2c P:67 SP:fb CYC:12184
de3c  50 08      BVC $de46   A:ff X:55 Y:2c P:67 SP:fb CYC:12186
de3e  90 06      BCC $de46   A:ff X:55 Y:2c P:67 SP:fb CYC:12188
de40  b5 00      LDA $00,X   A:ff X:55 Y:2c P:67 SP:fb CYC:12190
de42  c9 00      CMP #$00    A:00 X:55 Y:2c P:67 SP:fb CYC:12194
de44  f0 04      BEQ $de4a   A:00 X:55 Y:2c P:67 SP:fb CYC:12196
de4a  a9 7f      LDA #$7f    A:00 X:55 Y:2c P:67 SP:fb CYC:12199
de4c  95 00      STA $00,X   A:7f X:55 Y:2c P:65 SP:fb CYC:12201
de4e  b8         CLV         A:7f X:55 Y:2c P:65 SP:fb CYC:12205
de4f  18         CLC         A:7f X:55 Y:2c P:25 SP:fb CYC:12207
de50  f6 00      INC $00,X   A:7f X:55 Y:2c P:24 SP:fb CYC:12209
de52  f0 0c      BEQ $de60   A:7f X:55 Y:2c P:a4 SP:fb CYC:12215
de54  10 0a      BPL $de60   A:7f X:55 Y:2c P:a4 SP:fb CYC:12217
de56  70 08      BVS $de60   A:7f X:55 Y:2c P:a4 SP:fb CYC:12219
de58  b0 06      BCS $de60   A:7f X:55 Y:2c P:a4 SP:fb CYC:12221
de5a  b5 00      LDA $00,X   A:7f X:55 Y:2c P:a4 SP:fb CYC:12223
de5c  c9 80      CMP #$80    A:80 X:55 Y:2c P:a4 SP:fb CYC:12227
de5e  f0 04      BEQ $de64   A:80 X:55 Y:2c P:27 SP:fb CYC:12229
de64  a9 00      LDA #$00    A:80 X:55 Y:2c P:27 SP:fb CYC:12232
de66  95 00      STA $00,X   A:00 X:55 Y:2c P:27 SP:fb CYC:12234
de68  24 01      BIT $01     A:00 X:55 Y:2c P:27 SP:fb CYC:12238
de6a  38         SEC         A:00 X:55 Y:2c P:e7 SP:fb CYC:12241
de6b  d6 00      DEC $00,X   A:00 X:55 Y:2c P:e7 SP:fb CYC:12243
de6d  f0 0c      BEQ $de7b   A:00 X:55 Y:2c P:e5 SP:fb CYC:12249
de6f  10 0a      BPL $de7b   A:00 X:55 Y:2c P:e5 SP:fb CYC:12251
de71  50 08      BVC $de7b   A:00 X:55 Y:2c P:e5 SP:fb CYC:12253
de73  90 06      BCC $de7b   A:00 X:55 Y:2c P:e5 SP:fb CYC:12255
de75  b5 00      LDA $00,X   A:00 X:55 Y:2c P:e5 SP:fb CYC:12257
de77  c9 ff      CMP #$ff    A:ff X:55 Y:2c P:e5 SP:fb CYC:12261
de79  f0 04      BEQ $de7f   A:ff X:55 Y:2c P:67 SP:fb CYC:12263
de7f  a9 80      LDA #$80    A:ff X:55 Y:2c P:67 SP:fb CYC:12266
de81  95 00      STA $00,X   A:80 X:55 Y:2c P:e5 SP:fb CYC:12268
de83  b8         CLV         A:80 X:55 Y:2c P:e5 SP:fb CYC:12272
de84  18         CLC         A:80 X:55 Y:2c P:a5 SP:fb CYC:12274
de85  d6 00      DEC $00,X   A:80 X:55 Y:2c P:a4 SP:fb CYC:12276
de87  f0 0c      BEQ $de95   A:80 X:55 Y:2c P:24 SP:fb CYC:12282
de89  30 0a      BMI $de95   A:80 X:55 Y:2c P:24 SP:fb CYC:12284
de8b  70 08      BVS $de95   A:80 X:55 Y:2c P:24 SP:fb CYC:12286
de8d  b0 06      BCS $de95   A:80 X:55 Y:2c P:24 SP:fb CYC:12288
de8f  b5 00      LDA $00,X   A:80 X:55 Y:2c P:24 SP:fb CYC:12290
de91  c9 7f      CMP #$7f    A:7f X:55 Y:2c P:24 SP:fb CYC:12294
de93  f0 04      BEQ $de99   A:7f X:55 Y:2c P:27 SP:fb CYC:12296
de99  a9 01      LDA #$01    A:7f X:55 Y:2c P:27 SP:fb CYC:12299
de9b  95 00      STA $00,X   A:01 X:55 Y:2c P:25 SP:fb CYC:12301
de9d  d6 00      DEC $00,X   A:01 X:55 Y:2c P:25 SP:fb CYC:12305
de9f  f0 04      BEQ $dea5   A:01 X:55 Y:2c P:27 SP:fb CYC:12311
dea5  a9 33      LDA #$33    A:01 X:55 Y:2c P:27 SP:fb CYC:12314
dea7  85 78      STA $78     A:33 X:55 Y:2c P:25 SP:fb CYC:12316
dea9  a9 44      LDA #$44    A:33 X:55 Y:2c P:25 SP:fb CYC:12319
deab  a0 78      LDY #$78    A:44 X:55 Y:2c P:25 SP:fb CYC:12321
dead  a2 00      LDX #$00    A:44 X:55 Y:78 P:25 SP:fb CYC:12323
deaf  38         SEC         A:44 X:00 Y:78 P:27 SP:fb CYC:12325
deb0  24 01      BIT $01     A:44 X:00 Y:78 P:27 SP:fb CYC:12327
deb2  b6 00      LDX $00,Y   A:44 X:00 Y:78 P:e5 SP:fb CYC:12330
deb4  90 12      BCC $dec8   A:44 X:33 Y:78 P:65 SP:fb CYC:12334
deb6  50 10      BVC $dec8   A:44 X:33 Y:78 P:65 SP:fb CYC:12336
deb8  30 0e      BMI $dec8   A:44 X:33 Y:78 P:65 SP:fb CYC:12338
deba  f0 0c      BEQ $dec8   A:44 X:33 Y:78 P:65 SP:fb CYC:12340
debc  e0 33      CPX #$33    A:44 X:33 Y:78 P:65 SP:fb CYC:12342
debe  d0 08      BNE $dec8   A:44 X:33 Y:78 P:67 SP:fb CYC:12344
dec0  c0 78      CPY #$78    A:44 X:33 Y:78 P:67 SP:fb CYC:12346
dec2  d0 04      BNE $dec8   A:44 X:33 Y:78 P:67 SP:fb CYC:12348
dec4  c9 44      CMP #$44    A:44 X:33 Y:78 P:67 SP:fb CYC:12350
dec6  f0 04      BEQ $decc   A:44 X:33 Y:78 P:67 SP:fb CYC:12352
decc  a9 97      LDA #$97    A:44 X:33 Y:78 P:67 SP:fb CYC:12355
dece  85 7f      STA $7f     A:97 X:33 Y:78 P:e5 SP:fb CYC:12357
ded0  a9 47      LDA #$47    A:97 X:33 Y:78 P:e5 SP:fb CYC:12360
ded2  a0 ff      LDY #$ff    A:47 X:33 Y:78 P:65 SP:fb CYC:12362
ded4  a2 00      LDX #$00    A:47 X:33 Y:ff P:e5 SP:fb CYC:12364
ded6  18         CLC         A:47 X:00 Y:ff P:67 SP:fb CYC:12366
ded7  b8         CLV         A:47 X:00 Y:ff P:66 SP:fb CYC:12368
ded8  b6 80      LDX $80,Y   A:47 X:00 Y:ff P:26 SP:fb CYC:12370
deda  b0 12      BCS $deee   A:47 X:97 Y:ff P:a4 SP:fb CYC:12374
dedc  70 10      BVS $deee   A:47 X:97 Y:ff P:a4 SP:fb CYC:12376
dede  10 0e      BPL $deee   A:47 X:97 Y:ff P:a4 SP:fb CYC:12378
dee0  f0 0c      BEQ $deee   A:47 X:97 Y:ff P:a4 SP:fb CYC:12380
dee2  e0 97      CPX #$97    A:47 X:97 Y:ff P:a4 SP:fb CYC:12382
dee4  d0 08      BNE $deee   A:47 X:97 Y:ff P:27 SP:fb CYC:12384
dee6  c0 ff      CPY #$ff    A:47 X:97 Y:ff P:27 SP:fb CYC:12386
dee8  d0 04      BNE $deee   A:47 X:97 Y:ff P:27 SP:fb CYC:12388
deea  c9 47      CMP #$47    A:47 X:97 Y:ff P:27 SP:fb CYC:12390
deec  f0 04      BEQ $def2   A:47 X:97 Y:ff P:27 SP:fb CYC:12392
def2  a9 00      LDA #$00    A:47 X:97 Y:ff P:27 SP:fb CYC:12395
def4  85 7f      STA $7f     A:00 X:97 Y:ff P:27 SP:fb CYC:12397
def6  a9 47      LDA #$47    A:00 X:97 Y:ff P:27 SP:fb CYC:12400
def8  a0 ff      LDY #$ff    A:47 X:97 Y:ff P:25 SP:fb CYC:12402
defa  a2 69      LDX #$69    A:47 X:97 Y:ff P:a5 SP:fb CYC:12404
defc  18         CLC         A:47 X:69 Y:ff P:25 SP:fb CYC:12406
defd  b8         CLV         A:47 X:69 Y:ff P:24 SP:fb CYC:12408
defe  96 80      STX $80,Y   A:47 X:69 Y:ff P:24 SP:fb CYC:12410
df00  b0 18      BCS $df1a   A:47 X:69 Y:ff P:24 SP:fb CYC:12414
df02  70 16      BVS $df1a   A:47 X:69 Y:ff P:24 SP:fb CYC:12416
df04  30 14      BMI $df1a   A:47 X:69 Y:ff P:24 SP:fb CYC:12418
df06  f0 12      BEQ $df1a   A:47 X:69 Y:ff P:24 SP:fb CYC:12420
df08  e0 69      CPX #$69    A:47 X:69 Y:ff P:24 SP:fb CYC:12422
df0a  d0 0e      BNE $df1a   A:47 X:69 Y:ff P:27 SP:fb CYC:12424
df0c  c0 ff      CPY #$ff    A:47 X:69 Y:ff P:27 SP:fb CYC:12426
df0e  d0 0a      BNE $df1a   A:47 X:69 Y:ff P:27 SP:fb CYC:12428
df10  c9 47      CMP #$47    A:47 X:69 Y:ff P:27 SP:fb CYC:12430
df12  d0 06      BNE $df1a   A:47 X:69 Y:ff P:27 SP:fb CYC:12432
df14  a5 7f      LDA $7f     A:47 X:69 Y:ff P:27 SP:fb CYC:12434
df16  c9 69      CMP #$69    A:69 X:69 Y:ff P:25 SP:fb CYC:12437
df18  f0 04      BEQ $df1e   A:69 X:69 Y:ff P:27 SP:fb CYC:12439
df1e  a9 f5      LDA #$f5    A:69 X:69 Y:ff P:27 SP:fb CYC:12442
df20  85 4f      STA $4f     A:f5 X:69 Y:ff P:a5 SP:fb CYC:12444
df22  a9 47      LDA #$47    A:f5 X:69 Y:ff P:a5 SP:fb CYC:12447
df24  a0 4f      LDY #$4f    A:47 X:69 Y:ff P:25 SP:fb CYC:12449
df26  24 01      BIT $01     A:47 X:69 Y:4f P:25 SP:fb CYC:12451
df28  a2 00      LDX #$00    A:47 X:69 Y:4f P:e5 SP:fb CYC:12454
df2a  38         SEC         A:47 X:00 Y:4f P:67 SP:fb CYC:12456
df2b  96 00      STX $00,Y   A:47 X:00 Y:4f P:67 SP:fb CYC:12458
df2d  90 16      BCC $df45   A:47 X:00 Y:4f P:67 SP:fb CYC:12462
df2f  50 14      BVC $df45   A:47 X:00 Y:4f P:67 SP:fb CYC:12464
df31  30 12      BMI $df45   A:47 X:00 Y:4f P:67 SP:fb CYC:12466
df33  d0 10      BNE $df45   A:47 X:00 Y:4f P:67 SP:fb CYC:12468
df35  e0 00      CPX #$00    A:47 X:00 Y:4f P:67 SP:fb CYC:12470
df37  d0 0c      BNE $df45   A:47 X:00 Y:4f P:67 SP:fb CYC:12472
df39  c0 4f      CPY #$4f    A:47 X:00 Y:4f P:67 SP:fb CYC:12474
df3b  d0 08      BNE $df45   A:47 X:00 Y:4f P:67 SP:fb CYC:12476
df3d  c9 47      CMP #$47    A:47 X:00 Y:4f P:67 SP:fb CYC:12478
df3f  d0 04      BNE $df45   A:47 X:00 Y:4f P:67 SP:fb CYC:12480
df41  a5 4f      LDA $4f     A:47 X:00 Y:4f P:67 SP:fb CYC:12482
df43  f0 04      BEQ $df49   A:00 X:00 Y:4f P:67 SP:fb CYC:12485
df49  60         RTS         A:00 X:00 Y:4f P:67 SP:fb CYC:12488
c62c  20 aa e1   JSR $e1aa   A:00 X:00 Y:4f P:67 SP:fd CYC:12494
e1aa  a9 ff      LDA #$ff    A:00 X:00 Y:4f P:67 SP:fb CYC:12500
e1ac  85 01      STA $01     A:ff X:00 Y:4f P:e5 SP:fb CYC:12502
e1ae  a9 aa      LDA #$aa    A:ff X:00 Y:4f P:e5 SP:fb CYC:12505
e1b0  8d 33 06   STA $0633   A:aa X:00 Y:4f P:e5 SP:fb CYC:12507
e1b3  a9 bb      LDA #$bb    A:aa X:00 Y:4f P:e5 SP:fb CYC:12511
e1b5  8d 89 06   STA $0689   A:bb X:00 Y:4f P:e5 SP:fb CYC:12513
e1b8  a2 00      LDX #$00    A:bb X:00 Y:4f P:e5 SP:fb CYC:12517
e1ba  a9 66      LDA #$66    A:bb X:00 Y:4f P:67 SP:fb CYC:12519
e1bc  24 01      BIT $01     A:66 X:00 Y:4f P:65 SP:fb CYC:12521
e1be  38         SEC         A:66 X:00 Y:4f P:e5 SP:fb CYC:12524
e1bf  a0 00      LDY #$00    A:66 X:00 Y:4f P:e5 SP:fb CYC:12526
e1c1  bc 33 06   LDY $0633,X A:66 X:00 Y:00 P:67 SP:fb CYC:12528
e1c4  10 12      BPL $e1d8   A:66 X:00 Y:aa P:e5 SP:fb CYC:12532
e1c6  f0 10      BEQ $e1d8   A:66 X:00 Y:aa P:e5 SP:fb CYC:12534
e1c8  50 0e      BVC $e1d8   A:66 X:00 Y:aa P:e5 SP:fb CYC:12536
e1ca  90 0c      BCC $e1d8   A:66 X:00 Y:aa P:e5 SP:fb CYC:12538
e1cc  c9 66      CMP #$66    A:66 X:00 Y:aa P:e5 SP:fb CYC:12540
e1ce  d0 08      BNE $e1d8   A:66 X:00 Y:aa P:67 SP:fb CYC:12542
e1d0  e0 00      CPX #$00    A:66 X:00 Y:aa P:67 SP:fb CYC:12544
e1d2  d0 04      BNE $e1d8   A:66 X:00 Y:aa P:67 SP:fb CYC:12546
e1d4  c0 aa      CPY #$aa    A:66 X:00 Y:aa P:67 SP:fb CYC:12548
e1d6  f0 04      BEQ $e1dc   A:66 X:00 Y:aa P:67 SP:fb CYC:12550
e1dc  a2 8a      LDX #$8a    A:66 X:00 Y:aa P:67 SP:fb CYC:12553
e1de  a9 66      LDA #$66    A:66 X:8a Y:aa P:e5 SP:fb CYC:12555
e1e0  b8         CLV         A:66 X:8a Y:aa P:65 SP:fb CYC:12557
e1e1  18         CLC         A:66 X:8a Y:aa P:25 SP:fb CYC:12559
e1e2  a0 00      LDY #$00    A:66 X:8a Y:aa P:24 SP:fb CYC:12561
e1e4  bc ff 05   LDY $05ff,X A:66 X:8a Y:00 P:26 SP:fb CYC:12563
e1e7  10 12      BPL $e1fb   A:66 X:8a Y:bb P:a4 SP:fb CYC:12568
e1e9  f0 10      BEQ $e1fb   A:66 X:8a Y:bb P:a4 SP:fb CYC:12570
e1eb  70 0e      BVS $e1fb   A:66 X:8a Y:bb P:a4 SP:fb CYC:12572
e1ed  b0 0c      BCS $e1fb   A:66 X:8a Y:bb P:a4 SP:fb CYC:12574
e1ef  c0 bb      CPY #$bb    A:66 X:8a Y:bb P:a4 SP:fb CYC:12576
e1f1  d0 08      BNE $e1fb   A:66 X:8a Y:bb P:27 SP:fb CYC:12578
e1f3  c9 66      CMP #$66    A:66 X:8a Y:bb P:27 SP:fb CYC:12580
e1f5  d0 04      BNE $e1fb   A:66 X:8a Y:bb P:27 SP:fb CYC:12582
e1f7  e0 8a      CPX #$8a    A:66 X:8a Y:bb P:27 SP:fb CYC:12584
e1f9  f0 04      BEQ $e1ff   A:66 X:8a Y:bb P:27 SP:fb CYC:12586
e1ff  a0 53      LDY #$53    A:66 X:8a Y:bb P:27 SP:fb CYC:12589
e201  a9 aa      LDA #$aa    A:66 X:8a Y:53 P:25 SP:fb CYC:12591
e203  a2 78      LDX #$78    A:aa X:8a Y:53 P:a5 SP:fb CYC:12593
e205  8d 78 06   STA $0678   A:aa X:78 Y:53 P:25 SP:fb CYC:12595
e208  20 b6 f7   JSR $f7b6   A:aa X:78 Y:53 P:25 SP:fb CYC:12599
f7b6  18         CLC         A:aa X:78 Y:53 P:25 SP:f9 CYC:12605
f7b7  a9 ff      LDA #$ff    A:aa X:78 Y:53 P:24 SP:f9 CYC:12607
f7b9  85 01      STA $01     A:ff X:78 Y:53 P:a4 SP:f9 CYC:12609
f7bb  24 01      BIT $01     A:ff X:78 Y:53 P:a4 SP:f9 CYC:12612
f7bd  a9 55      LDA #$55    A:ff X:78 Y:53 P:e4 SP:f9 CYC:12615
f7bf  60         RTS         A:55 X:78 Y:53 P:64 SP:f9 CYC:12617
e20b  1d 00 06   ORA $0600,X A:55 X:78 Y:53 P:64 SP:fb CYC:12623
e20e  20 c0 f7   JSR $f7c0   A:ff X:78 Y:53 P:e4 SP:fb CYC:12627
f7c0  b0 09      BCS $f7cb   A:ff X:78 Y:53 P:e4 SP:f9 CYC:12633
f7c2  10 07      BPL $f7cb   A:ff X:78 Y:53 P:e4 SP:f9 CYC:12635
f7c4  c9 ff      CMP #$ff    A:ff X:78 Y:53 P:e4 SP:f9 CYC:12637
f7c6  d0 03      BNE $f7cb   A:ff X:78 Y:53 P:67 SP:f9 CYC:12639
f7c8  50 01      BVC $f7cb   A:ff X:78 Y:53 P:67 SP:f9 CYC:12641
f7ca  60         RTS         A:ff X:78 Y:53 P:67 SP:f9 CYC:12643
e211  c8         INY         A:ff X:78 Y:53 P:67 SP:fb CYC:12649
e212  a9 00      LDA #$00    A:ff X:78 Y:54 P:65 SP:fb CYC:12651
e214  8d 78 06   STA $0678   A:00 X:78 Y:54 P:67 SP:fb CYC:12653
e217  20 ce f7   JSR $f7ce   A:00 X:78 Y:54 P:67 SP:fb CYC:12657
f7ce  38         SEC         A:00 X:78 Y:54 P:67 SP:f9 CYC:12663
f7cf  b8         CLV         A:00 X:78 Y:54 P:67 SP:f9 CYC:12665
f7d0  a9 00      LDA #$00    A:00 X:78 Y:54 P:27 SP:f9 CYC:12667
f7d2  60         RTS         A:00 X:78 Y:54 P:27 SP:f9 CYC:12669
e21a  1d 00 06   ORA $0600,X A:00 X:78 Y:54 P:27 SP:fb CYC:12675
e21d  20 d3 f7   JSR $f7d3   A:00 X:78 Y:54 P:27 SP:fb CYC:12679
f7d3  d0 07      BNE $f7dc   A:00 X:78 Y:54 P:27 SP:f9 CYC:12685
f7d5  70 05      BVS $f7dc   A:00 X:78 Y:54 P:27 SP:f9 CYC:12687
f7d7  90 03      BCC $f7dc   A:00 X:78 Y:54 P:27 SP:f9 CYC:12689
f7d9  30 01      BMI $f7dc   A:00 X:78 Y:54 P:27 SP:f9 CYC:12691
f7db  60         RTS         A:00 X:78 Y:54 P:27 SP:f9 CYC:12693
e220  c8         INY         A:00 X:78 Y:54 P:27 SP:fb CYC:12699
e221  a9 aa      LDA #$aa    A:00 X:78 Y:55 P:25 SP:fb CYC:12701
e223  8d 78 06   STA $0678   A:aa X:78 Y:55 P:a5 SP:fb CYC:12703
e226  20 df f7   JSR $f7df   A:aa X:78 Y:55 P:a5 SP:fb CYC:12707
f7df  18         CLC         A:aa X:78 Y:55 P:a5 SP:f9 CYC:12713
f7e0  24 01      BIT $01     A:aa X:78 Y:55 P:a4 SP:f9 CYC:12715
f7e2  a9 55      LDA #$55    A:aa X:78 Y:55 P:e4 SP:f9 CYC:12718
f7e4  60         RTS         A:55 X:78 Y:55 P:64 SP:f9 CYC:12720
e229  3d 00 06   AND $0600,X A:55 X:78 Y:55 P:64 SP:fb CYC:12726
e22c  20 e5 f7   JSR $f7e5   A:00 X:78 Y:55 P:66 SP:fb CYC:12730
f7e5  d0 07      BNE $f7ee   A:00 X:78 Y:55 P:66 SP:f9 CYC:12736
f7e7  50 05      BVC $f7ee   A:00 X:78 Y:55 P:66 SP:f9 CYC:12738
f7e9  b0 03      BCS $f7ee   A:00 X:78 Y:55 P:66 SP:f9 CYC:12740
f7eb  30 01      BMI $f7ee   A:00 X:78 Y:55 P:66 SP:f9 CYC:12742
f7ed  60         RTS         A:00 X:78 Y:55 P:66 SP:f9 CYC:12744
e22f  c8         INY         A:00 X:78 Y:55 P:66 SP:fb CYC:12750
e230  a9 ef      LDA #$ef    A:00 X:78 Y:56 P:64 SP:fb CYC:12752
e232  8d 78 06   STA $0678   A:ef X:78 Y:56 P:e4 SP:fb CYC:12754
e235  20 f1 f7   JSR $f7f1   A:ef X:78 Y:56 P:e4 SP:fb CYC:12758
f7f1  38         SEC         A:ef X:78 Y:56 P:e4 SP:f9 CYC:12764
f7f2  b8         CLV         A:ef X:78 Y:56 P:e5 SP:f9 CYC:12766
f7f3  a9 f8      LDA #$f8    A:ef X:78 Y:56 P:a5 SP:f9 CYC:12768
f7f5  60         RTS         A:f8 X:78 Y:56 P:a5 SP:f9 CYC:12770
e238  3d 00 06   AND $0600,X A:f8 X:78 Y:56 P:a5 SP:fb CYC:12776
e23b  20 f6 f7   JSR $f7f6   A:e8 X:78 Y:56 P:a5 SP:fb CYC:12780
f7f6  90 09      BCC $f801   A:e8 X:78 Y:56 P:a5 SP:f9 CYC:12786
f7f8  10 07      BPL $f801   A:e8 X:78 Y:56 P:a5 SP:f9 CYC:12788
f7fa  c9 e8      CMP #$e8    A:e8 X:78 Y:56 P:a5 SP:f9 CYC:12790
f7fc  d0 03      BNE $f801   A:e8 X:78 Y:56 P:27 SP:f9 CYC:12792
f7fe  70 01      BVS $f801   A:e8 X:78 Y:56 P:27 SP:f9 CYC:12794
f800  60         RTS         A:e8 X:78 Y:56 P:27 SP:f9 CYC:12796
e23e  c8         INY         A:e8 X:78 Y:56 P:27 SP:fb CYC:12802
e23f  a9 aa      LDA #$aa    A:e8 X:78 Y:57 P:25 SP:fb CYC:12804
e241  8d 78 06   STA $0678   A:aa X:78 Y:57 P:a5 SP:fb CYC:12806
e244  20 04 f8   JSR $f804   A:aa X:78 Y:57 P:a5 SP:fb CYC:12810
f804  18         CLC         A:aa X:78 Y:57 P:a5 SP:f9 CYC:12816
f805  24 01      BIT $01     A:aa X:78 Y:57 P:a4 SP:f9 CYC:12818
f807  a9 5f      LDA #$5f    A:aa X:78 Y:57 P:e4 SP:f9 CYC:12821
f809  60         RTS         A:5f X:78 Y:57 P:64 SP:f9 CYC:12823
e247  5d 00 06   EOR $0600,X A:5f X:78 Y:57 P:64 SP:fb CYC:12829
e24a  20 0a f8   JSR $f80a   A:f5 X:78 Y:57 P:e4 SP:fb CYC:12833
f80a  b0 09      BCS $f815   A:f5 X:78 Y:57 P:e4 SP:f9 CYC:12839
f80c  10 07      BPL $f815   A:f5 X:78 Y:57 P:e4 SP:f9 CYC:12841
f80e  c9 f5      CMP #$f5    A:f5 X:78 Y:57 P:e4 SP:f9 CYC:12843
f810  d0 03      BNE $f815   A:f5 X:78 Y:57 P:67 SP:f9 CYC:12845
f812  50 01      BVC $f815   A:f5 X:78 Y:57 P:67 SP:f9 CYC:12847
f814  60         RTS         A:f5 X:78 Y:57 P:67 SP:f9 CYC:12849
e24d  c8         INY         A:f5 X:78 Y:57 P:67 SP:fb CYC:12855
e24e  a9 70      LDA #$70    A:f5 X:78 Y:58 P:65 SP:fb CYC:12857
e250  8d 78 06   STA $0678   A:70 X:78 Y:58 P:65 SP:fb CYC:12859
e253  20 18 f8   JSR $f818   A:70 X:78 Y:58 P:65 SP:fb CYC:12863
f818  38         SEC         A:70 X:78 Y:58 P:65 SP:f9 CYC:12869
f819  b8         CLV         A:70 X:78 Y:58 P:65 SP:f9 CYC:12871
f81a  a9 70      LDA #$70    A:70 X:78 Y:58 P:25 SP:f9 CYC:12873
f81c  60         RTS         A:70 X:78 Y:58 P:25 SP:f9 CYC:12875
e256  5d 00 06   EOR $0600,X A:70 X:78 Y:58 P:25 SP:fb CYC:12881
e259  20 1d f8   JSR $f81d   A:00 X:78 Y:58 P:27 SP:fb CYC:12885
f81d  d0 07      BNE $f826   A:00 X:78 Y:58 P:27 SP:f9 CYC:12891
f81f  70 05      BVS $f826   A:00 X:78 Y:58 P:27 SP:f9 CYC:12893
f821  90 03      BCC $f826   A:00 X:78 Y:58 P:27 SP:f9 CYC:12895
f823  30 01      BMI $f826   A:00 X:78 Y:58 P:27 SP:f9 CYC:12897
f825  60         RTS         A:00 X:78 Y:58 P:27 SP:f9 CYC:12899
e25c  c8         INY         A:00 X:78 Y:58 P:27 SP:fb CYC:12905
e25d  a9 69      LDA #$69    A:00 X:78 Y:59 P:25 SP:fb CYC:12907
e25f  8d 78 06   STA $0678   A:69 X:78 Y:59 P:25 SP:fb CYC:12909
e262  20 29 f8   JSR $f829   A:69 X:78 Y:59 P:25 SP:fb CYC:12913
f829  18         CLC         A:69 X:78 Y:59 P:25 SP:f9 CYC:12919
f82a  24 01      BIT $01     A:69 X:78 Y:59 P:24 SP:f9 CYC:12921
f82c  a9 00      LDA #$00    A:69 X:78 Y:59 P:e4 SP:f9 CYC:12924
f82e  60         RTS         A:00 X:78 Y:59 P:66 SP:f9 CYC:12926
e265  7d 00 06   ADC $0600,X A:00 X:78 Y:59 P:66 SP:fb CYC:12932
e268  20 2f f8   JSR $f82f   A:69 X:78 Y:59 P:24 SP:fb CYC:12936
f82f  30 09      BMI $f83a   A:69 X:78 Y:59 P:24 SP:f9 CYC:12942
f831  b0 07      BCS $f83a   A:69 X:78 Y:59 P:24 SP:f9 CYC:12944
f833  c9 69      CMP #$69    A:69 X:78 Y:59 P:24 SP:f9 CYC:12946
f835  d0 03      BNE $f83a   A:69 X:78 Y:59 P:27 SP:f9 CYC:12948
f837  70 01      BVS $f83a   A:69 X:78 Y:59 P:27 SP:f9 CYC:12950
f839  60         RTS         A:69 X:78 Y:59 P:27 SP:f9 CYC:12952
e26b  c8         INY         A:69 X:78 Y:59 P:27 SP:fb CYC:12958
e26c  20 3d f8   JSR $f83d   A:69 X:78 Y:5a P:25 SP:fb CYC:12960
f83d  38         SEC         A:69 X:78 Y:5a P:25 SP:f9 CYC:12966
f83e  24 01      BIT $01     A:69 X:78 Y:5a P:25 SP:f9 CYC:12968
f840  a9 00      LDA #$00    A:69 X:78 Y:5a P:e5 SP:f9 CYC:12971
f842  60         RTS         A:00 X:78 Y:5a P:67 SP:f9 CYC:12973
e26f  7d 00 06   ADC $0600,X A:00 X:78 Y:5a P:67 SP:fb CYC:12979
e272  20 43 f8   JSR $f843   A:6a X:78 Y:5a P:24 SP:fb CYC:12983
f843  30 09      BMI $f84e   A:6a X:78 Y:5a P:24 SP:f9 CYC:12989
f845  b0 07      BCS $f84e   A:6a X:78 Y:5a P:24 SP:f9 CYC:12991
f847  c9 6a      CMP #$6a    A:6a X:78 Y:5a P:24 SP:f9 CYC:12993
f849  d0 03      BNE $f84e   A:6a X:78 Y:5a P:27 SP:f9 CYC:12995
f84b  70 01      BVS $f84e   A:6a X:78 Y:5a P:27 SP:f9 CYC:12997
f84d  60         RTS         A:6a X:78 Y:5a P:27 SP:f9 CYC:12999
e275  c8         INY         A:6a X:78 Y:5a P:27 SP:fb CYC:13005
e276  a9 7f      LDA #$7f    A:6a X:78 Y:5b P:25 SP:fb CYC:13007
e278  8d 78 06   STA $0678   A:7f X:78 Y:5b P:25 SP:fb CYC:13009
e27b  20 51 f8   JSR $f851   A:7f X:78 Y:5b P:25 SP:fb CYC:13013
f851  38         SEC         A:7f X:78 Y:5b P:25 SP:f9 CYC:13019
f852  b8         CLV         A:7f X:78 Y:5b P:25 SP:f9 CYC:13021
f853  a9 7f      LDA #$7f    A:7f X:78 Y:5b P:25 SP:f9 CYC:13023
f855  60         RTS         A:7f X:78 Y:5b P:25 SP:f9 CYC:13025
e27e  7d 00 06   ADC $0600,X A:7f X:78 Y:5b P:25 SP:fb CYC:13031
e281  20 56 f8   JSR $f856   A:ff X:78 Y:5b P:e4 SP:fb CYC:13035
f856  10 09      BPL $f861   A:ff X:78 Y:5b P:e4 SP:f9 CYC:13041
f858  b0 07      BCS $f861   A:ff X:78 Y:5b P:e4 SP:f9 CYC:13043
f85a  c9 ff      CMP #$ff    A:ff X:78 Y:5b P:e4 SP:f9 CYC:13045
f85c  d0 03      BNE $f861   A:ff X:78 Y:5b P:67 SP:f9 CYC:13047
f85e  50 01      BVC $f861   A:ff X:78 Y:5b P:67 SP:f9 CYC:13049
f860  60         RTS         A:ff X:78 Y:5b P:67 SP:f9 CYC:13051
e284  c8         INY         A:ff X:78 Y:5b P:67 SP:fb CYC:13057
e285  a9 80      LDA #$80    A:ff X:78 Y:5c P:65 SP:fb CYC:13059
e287  8d 78 06   STA $0678   A:80 X:78 Y:5c P:e5 SP:fb CYC:13061
e28a  20 64 f8   JSR $f864   A:80 X:78 Y:5c P:e5 SP:fb CYC:13065
f864  18         CLC         A:80 X:78 Y:5c P:e5 SP:f9 CYC:13071
f865  24 01      BIT $01     A:80 X:78 Y:5c P:e4 SP:f9 CYC:13073
f867  a9 7f      LDA #$7f    A:80 X:78 Y:5c P:e4 SP:f9 CYC:13076
f869  60         RTS         A:7f X:78 Y:5c P:64 SP:f9 CYC:13078
e28d  7d 00 06   ADC $0600,X A:7f X:78 Y:5c P:64 SP:fb CYC:13084
e290  20 6a f8   JSR $f86a   A:ff X:78 Y:5c P:a4 SP:fb CYC:13088
f86a  10 09      BPL $f875   A:ff X:78 Y:5c P:a4 SP:f9 CYC:13094
f86c  b0 07      BCS $f875   A:ff X:78 Y:5c P:a4 SP:f9 CYC:13096
f86e  c9 ff      CMP #$ff    A:ff X:78 Y:5c P:a4 SP:f9 CYC:13098
f870  d0 03      BNE $f875   A:ff X:78 Y:5c P:27 SP:f9 CYC:13100
f872  70 01      BVS $f875   A:ff X:78 Y:5c P:27 SP:f9 CYC:13102
f874  60         RTS         A:ff X:78 Y:5c P:27 SP:f9 CYC:13104
e293  c8         INY         A:ff X:78 Y:5c P:27 SP:fb CYC:13110
e294  20 78 f8   JSR $f878   A:ff X:78 Y:5d P:25 SP:fb CYC:13112
f878  38         SEC         A:ff X:78 Y:5d P:25 SP:f9 CYC:13118
f879  b8         CLV         A:ff X:78 Y:5d P:25 SP:f9 CYC:13120
f87a  a9 7f      LDA #$7f    A:ff X:78 Y:5d P:25 SP:f9 CYC:13122
f87c  60         RTS         A:7f X:78 Y:5d P:25 SP:f9 CYC:13124
e297  7d 00 06   ADC $0600,X A:7f X:78 Y:5d P:25 SP:fb CYC:13130
e29a  20 7d f8   JSR $f87d   A:00 X:78 Y:5d P:27 SP:fb CYC:13134
f87d  d0 07      BNE $f886   A:00 X:78 Y:5d P:27 SP:f9 CYC:13140
f87f  30 05      BMI $f886   A:00 X:78 Y:5d P:27 SP:f9 CYC:13142
f881  70 03      BVS $f886   A:00 X:78 Y:5d P:27 SP:f9 CYC:13144
f883  90 01      BCC $f886   A:00 X:78 Y:5d P:27 SP:f9 CYC:13146
f885  60         RTS         A:00 X:78 Y:5d P:27 SP:f9 CYC:13148
e29d  c8         INY         A:00 X:78 Y:5d P:27 SP:fb CYC:13154
e29e  a9 40      LDA #$40    A:00 X:78 Y:5e P:25 SP:fb CYC:13156
e2a0  8d 78 06   STA $0678   A:40 X:78 Y:5e P:25 SP:fb CYC:13158
e2a3  20 89 f8   JSR $f889   A:40 X:78 Y:5e P:25 SP:fb CYC:13162
f889  24 01      BIT $01     A:40 X:78 Y:5e P:25 SP:f9 CYC:13168
f88b  a9 40      LDA #$40    A:40 X:78 Y:5e P:e5 SP:f9 CYC:13171
f88d  60         RTS         A:40 X:78 Y:5e P:65 SP:f9 CYC:13173
e2a6  dd 00 06   CMP $0600,X A:40 X:78 Y:5e P:65 SP:fb CYC:13179
e2a9  20 8e f8   JSR $f88e   A:40 X:78 Y:5e P:67 SP:fb CYC:13183
f88e  30 07      BMI $f897   A:40 X:78 Y:5e P:67 SP:f9 CYC:13189
f890  90 05      BCC $f897   A:40 X:78 Y:5e P:67 SP:f9 CYC:13191
f892  d0 03      BNE $f897   A:40 X:78 Y:5e P:67 SP:f9 CYC:13193
f894  50 01      BVC $f897   A:40 X:78 Y:5e P:67 SP:f9 CYC:13195
f896  60         RTS         A:40 X:78 Y:5e P:67 SP:f9 CYC:13197
e2ac  c8         INY         A:40 X:78 Y:5e P:67 SP:fb CYC:13203
e2ad  48         PHA         A:40 X:78 Y:5f P:65 SP:fb CYC:13205
e2ae  a9 3f      LDA #$3f    A:40 X:78 Y:5f P:65 SP:fa CYC:13208
e2b0  8d 78 06   STA $0678   A:3f X:78 Y:5f P:65 SP:fa CYC:13210
e2b3  68         PLA         A:3f X:78 Y:5f P:65 SP:fa CYC:13214
e2b4  20 9a f8   JSR $f89a   A:40 X:78 Y:5f P:65 SP:fb CYC:13218
f89a  b8         CLV         A:40 X:78 Y:5f P:65 SP:f9 CYC:13224
f89b  60         RTS         A:40 X:78 Y:5f P:25 SP:f9 CYC:13226
e2b7  dd 00 06   CMP $0600,X A:40 X:78 Y:5f P:25 SP:fb CYC:13232
e2ba  20 9c f8   JSR $f89c   A:40 X:78 Y:5f P:25 SP:fb CYC:13236
f89c  f0 07      BEQ $f8a5   A:40 X:78 Y:5f P:25 SP:f9 CYC:13242
f89e  30 05      BMI $f8a5   A:40 X:78 Y:5f P:25 SP:f9 CYC:13244
f8a0  90 03      BCC $f8a5   A:40 X:78 Y:5f P:25 SP:f9 CYC:13246
f8a2  70 01      BVS $f8a5   A:40 X:78 Y:5f P:25 SP:f9 CYC:13248
f8a4  60         RTS         A:40 X:78 Y:5f P:25 SP:f9 CYC:13250
e2bd  c8         INY         A:40 X:78 Y:5f P:25 SP:fb CYC:13256
e2be  48         PHA         A:40 X:78 Y:60 P:25 SP:fb CYC:13258
e2bf  a9 41      LDA #$41    A:40 X:78 Y:60 P:25 SP:fa CYC:13261
e2c1  8d 78 06   STA $0678   A:41 X:78 Y:60 P:25 SP:fa CYC:13263
e2c4  68         PLA         A:41 X:78 Y:60 P:25 SP:fa CYC:13267
e2c5  dd 00 06   CMP $0600,X A:40 X:78 Y:60 P:25 SP:fb CYC:13271
e2c8  20 a8 f8   JSR $f8a8   A:40 X:78 Y:60 P:a4 SP:fb CYC:13275
f8a8  f0 05      BEQ $f8af   A:40 X:78 Y:60 P:a4 SP:f9 CYC:13281
f8aa  10 03      BPL $f8af   A:40 X:78 Y:60 P:a4 SP:f9 CYC:13283
f8ac  10 01      BPL $f8af   A:40 X:78 Y:60 P:a4 SP:f9 CYC:13285
f8ae  60         RTS         A:40 X:78 Y:60 P:a4 SP:f9 CYC:13287
e2cb  c8         INY         A:40 X:78 Y:60 P:a4 SP:fb CYC:13293
e2cc  48         PHA         A:40 X:78 Y:61 P:24 SP:fb CYC:13295
e2cd  a9 00      LDA #$00    A:40 X:78 Y:61 P:24 SP:fa CYC:13298
e2cf  8d 78 06   STA $0678   A:00 X:78 Y:61 P:26 SP:fa CYC:13300
e2d2  68         PLA         A:00 X:78 Y:61 P:26 SP:fa CYC:13304
e2d3  20 b2 f8   JSR $f8b2   A:40 X:78 Y:61 P:24 SP:fb CYC:13308
f8b2  a9 80      LDA #$80    A:40 X:78 Y:61 P:24 SP:f9 CYC:13314
f8b4  60         RTS         A:80 X:78 Y:61 P:a4 SP:f9 CYC:13316
e2d6  dd 00 06   CMP $0600,X A:80 X:78 Y:61 P:a4 SP:fb CYC:13322
e2d9  20 b5 f8   JSR $f8b5   A:80 X:78 Y:61 P:a5 SP:fb CYC:13326
f8b5  f0 05      BEQ $f8bc   A:80 X:78 Y:61 P:a5 SP:f9 CYC:13332
f8b7  10 03      BPL $f8bc   A:80 X:78 Y:61 P:a5 SP:f9 CYC:13334
f8b9  90 01      BCC $f8bc   A:80 X:78 Y:61 P:a5 SP:f9 CYC:13336
f8bb  60         RTS         A:80 X:78 Y:61 P:a5 SP:f9 CYC:13338
e2dc  c8         INY         A:80 X:78 Y:61 P:a5 SP:fb CYC:13344
e2dd  48         PHA         A:80 X:78 Y:62 P:25 SP:fb CYC:13346
e2de  a9 80      LDA #$80    A:80 X:78 Y:62 P:25 SP:fa CYC:13349
e2e0  8d 78 06   STA $0678   A:80 X:78 Y:62 P:a5 SP:fa CYC:13351
e2e3  68         PLA         A:80 X:78 Y:62 P:a5 SP:fa CYC:13355
e2e4  dd 00 06   CMP $0600,X A:80 X:78 Y:62 P:a5 SP:fb CYC:13359
e2e7  20 bf f8   JSR $f8bf   A:80 X:78 Y:62 P:27 SP:fb CYC:13363
f8bf  d0 05      BNE $f8c6   A:80 X:78 Y:62 P:27 SP:f9 CYC:13369
f8c1  30 03      BMI $f8c6   A:80 X:78 Y:62 P:27 SP:f9 CYC:13371
f8c3  90 01      BCC $f8c6   A:80 X:78 Y:62 P:27 SP:f9 CYC:13373
f8c5  60         RTS         A:80 X:78 Y:62 P:27 SP:f9 CYC:13375
e2ea  c8         INY         A:80 X:78 Y:62 P:27 SP:fb CYC:13381
e2eb  48         PHA         A:80 X:78 Y:63 P:25 SP:fb CYC:13383
e2ec  a9 81      LDA #$81    A:80 X:78 Y:63 P:25 SP:fa CYC:13386
e2ee  8d 78 06   STA $0678   A:81 X:78 Y:63 P:a5 SP:fa CYC:13388
e2f1  68         PLA         A:81 X:78 Y:63 P:a5 SP:fa CYC:13392
e2f2  dd 00 06   CMP $0600,X A:80 X:78 Y:63 P:a5 SP:fb CYC:13396
e2f5  20 c9 f8   JSR $f8c9   A:80 X:78 Y:63 P:a4 SP:fb CYC:13400
f8c9  b0 05      BCS $f8d0   A:80 X:78 Y:63 P:a4 SP:f9 CYC:13406
f8cb  f0 03      BEQ $f8d0   A:80 X:78 Y:63 P:a4 SP:f9 CYC:13408
f8cd  10 01      BPL $f8d0   A:80 X:78 Y:63 P:a4 SP:f9 CYC:13410
f8cf  60         RTS         A:80 X:78 Y:63 P:a4 SP:f9 CYC:13412
e2f8  c8         INY         A:80 X:78 Y:63 P:a4 SP:fb CYC:13418
e2f9  48         PHA         A:80 X:78 Y:64 P:24 SP:fb CYC:13420
e2fa  a9 7f      LDA #$7f    A:80 X:78 Y:64 P:24 SP:fa CYC:13423
e2fc  8d 78 06   STA $0678   A:7f X:78 Y:64 P:24 SP:fa CYC:13425
e2ff  68         PLA         A:7f X:78 Y:64 P:24 SP:fa CYC:13429
e300  dd 00 06   CMP $0600,X A:80 X:78 Y:64 P:a4 SP:fb CYC:13433
e303  20 d3 f8   JSR $f8d3   A:80 X:78 Y:64 P:25 SP:fb CYC:13437
f8d3  90 05      BCC $f8da   A:80 X:78 Y:64 P:25 SP:f9 CYC:13443
f8d5  f0 03      BEQ $f8da   A:80 X:78 Y:64 P:25 SP:f9 CYC:13445
f8d7  30 01      BMI $f8da   A:80 X:78 Y:64 P:25 SP:f9 CYC:13447
f8d9  60         RTS         A:80 X:78 Y:64 P:25 SP:f9 CYC:13449
e306  c8         INY         A:80 X:78 Y:64 P:25 SP:fb CYC:13455
e307  a9 40      LDA #$40    A:80 X:78 Y:65 P:25 SP:fb CYC:13457
e309  8d 78 06   STA $0678   A:40 X:78 Y:65 P:25 SP:fb CYC:13459
e30c  20 31 f9   JSR $f931   A:40 X:78 Y:65 P:25 SP:fb CYC:13463
f931  24 01      BIT $01     A:40 X:78 Y:65 P:25 SP:f9 CYC:13469
f933  a9 40      LDA #$40    A:40 X:78 Y:65 P:e5 SP:f9 CYC:13472
f935  38         SEC         A:40 X:78 Y:65 P:65 SP:f9 CYC:13474
f936  60         RTS         A:40 X:78 Y:65 P:65 SP:f9 CYC:13476
e30f  fd 00 06   SBC $0600,X A:40 X:78 Y:65 P:65 SP:fb CYC:13482
e312  20 37 f9   JSR $f937   A:00 X:78 Y:65 P:27 SP:fb CYC:13486
f937  30 0b      BMI $f944   A:00 X:78 Y:65 P:27 SP:f9 CYC:13492
f939  90 09      BCC $f944   A:00 X:78 Y:65 P:27 SP:f9 CYC:13494
f93b  d0 07      BNE $f944   A:00 X:78 Y:65 P:27 SP:f9 CYC:13496
f93d  70 05      BVS $f944   A:00 X:78 Y:65 P:27 SP:f9 CYC:13498
f93f  c9 00      CMP #$00    A:00 X:78 Y:65 P:27 SP:f9 CYC:13500
f941  d0 01      BNE $f944   A:00 X:78 Y:65 P:27 SP:f9 CYC:13502
f943  60         RTS         A:00 X:78 Y:65 P:27 SP:f9 CYC:13504
e315  c8         INY         A:00 X:78 Y:65 P:27 SP:fb CYC:13510
e316  a9 3f      LDA #$3f    A:00 X:78 Y:66 P:25 SP:fb CYC:13512
e318  8d 78 06   STA $0678   A:3f X:78 Y:66 P:25 SP:fb CYC:13514
e31b  20 47 f9   JSR $f947   A:3f X:78 Y:66 P:25 SP:fb CYC:13518
f947  b8         CLV         A:3f X:78 Y:66 P:25 SP:f9 CYC:13524
f948  38         SEC         A:3f X:78 Y:66 P:25 SP:f9 CYC:13526
f949  a9 40      LDA #$40    A:3f X:78 Y:66 P:25 SP:f9 CYC:13528
f94b  60         RTS         A:40 X:78 Y:66 P:25 SP:f9 CYC:13530
e31e  fd 00 06   SBC $0600,X A:40 X:78 Y:66 P:25 SP:fb CYC:13536
e321  20 4c f9   JSR $f94c   A:01 X:78 Y:66 P:25 SP:fb CYC:13540
f94c  f0 0b      BEQ $f959   A:01 X:78 Y:66 P:25 SP:f9 CYC:13546
f94e  30 09      BMI $f959   A:01 X:78 Y:66 P:25 SP:f9 CYC:13548
f950  90 07      BCC $f959   A:01 X:78 Y:66 P:25 SP:f9 CYC:13550
f952  70 05      BVS $f959   A:01 X:78 Y:66 P:25 SP:f9 CYC:13552
f954  c9 01      CMP #$01    A:01 X:78 Y:66 P:25 SP:f9 CYC:13554
f956  d0 01      BNE $f959   A:01 X:78 Y:66 P:27 SP:f9 CYC:13556
f958  60         RTS         A:01 X:78 Y:66 P:27 SP:f9 CYC:13558
e324  c8         INY         A:01 X:78 Y:66 P:27 SP:fb CYC:13564
e325  a9 41      LDA #$41    A:01 X:78 Y:67 P:25 SP:fb CYC:13566
e327  8d 78 06   STA $0678   A:41 X:78 Y:67 P:25 SP:fb CYC:13568
e32a  20 5c f9   JSR $f95c   A:41 X:78 Y:67 P:25 SP:fb CYC:13572
f95c  a9 40      LDA #$40    A:41 X:78 Y:67 P:25 SP:f9 CYC:13578
f95e  38         SEC         A:40 X:78 Y:67 P:25 SP:f9 CYC:13580
f95f  24 01      BIT $01     A:40 X:78 Y:67 P:25 SP:f9 CYC:13582
f961  60         RTS         A:40 X:78 Y:67 P:e5 SP:f9 CYC:13585
e32d  fd 00 06   SBC $0600,X A:40 X:78 Y:67 P:e5 SP:fb CYC:13591
e330  20 62 f9   JSR $f962   A:ff X:78 Y:67 P:a4 SP:fb CYC:13595
f962  b0 0b      BCS $f96f   A:ff X:78 Y:67 P:a4 SP:f9 CYC:13601
f964  f0 09      BEQ $f96f   A:ff X:78 Y:67 P:a4 SP:f9 CYC:13603
f966  10 07      BPL $f96f   A:ff X:78 Y:67 P:a4 SP:f9 CYC:13605
f968  70 05      BVS $f96f   A:ff X:78 Y:67 P:a4 SP:f9 CYC:13607
f96a  c9 ff      CMP #$ff    A:ff X:78 Y:67 P:a4 SP:f9 CYC:13609
f96c  d0 01      BNE $f96f   A:ff X:78 Y:67 P:27 SP:f9 CYC:13611
f96e  60         RTS         A:ff X:78 Y:67 P:27 SP:f9 CYC:13613
e333  c8         INY         A:ff X:78 Y:67 P:27 SP:fb CYC:13619
e334  a9 00      LDA #$00    A:ff X:78 Y:68 P:25 SP:fb CYC:13621
e336  8d 78 06   STA $0678   A:00 X:78 Y:68 P:27 SP:fb CYC:13623
e339  20 72 f9   JSR $f972   A:00 X:78 Y:68 P:27 SP:fb CYC:13627
f972  18         CLC         A:00 X:78 Y:68 P:27 SP:f9 CYC:13633
f973  a9 80      LDA #$80    A:00 X:78 Y:68 P:26 SP:f9 CYC:13635
f975  60         RTS         A:80 X:78 Y:68 P:a4 SP:f9 CYC:13637
e33c  fd 00 06   SBC $0600,X A:80 X:78 Y:68 P:a4 SP:fb CYC:13643
e33f  20 76 f9   JSR $f976   A:7f X:78 Y:68 P:65 SP:fb CYC:13647
f976  90 05      BCC $f97d   A:7f X:78 Y:68 P:65 SP:f9 CYC:13653
f978  c9 7f      CMP #$7f    A:7f X:78 Y:68 P:65 SP:f9 CYC:13655
f97a  d0 01      BNE $f97d   A:7f X:78 Y:68 P:67 SP:f9 CYC:13657
f97c  60         RTS         A:7f X:78 Y:68 P:67 SP:f9 CYC:13659
e342  c8         INY         A:7f X:78 Y:68 P:67 SP:fb CYC:13665
e343  a9 7f      LDA #$7f    A:7f X:78 Y:69 P:65 SP:fb CYC:13667
e345  8d 78 06   STA $0678   A:7f X:78 Y:69 P:65 SP:fb CYC:13669
e348  20 80 f9   JSR $f980   A:7f X:78 Y:69 P:65 SP:fb CYC:13673
f980  38         SEC         A:7f X:78 Y:69 P:65 SP:f9 CYC:13679
f981  a9 81      LDA #$81    A:7f X:78 Y:69 P:65 SP:f9 CYC:13681
f983  60         RTS         A:81 X:78 Y:69 P:e5 SP:f9 CYC:13683
e34b  fd 00 06   SBC $0600,X A:81 X:78 Y:69 P:e5 SP:fb CYC:13689
e34e  20 84 f9   JSR $f984   A:02 X:78 Y:69 P:65 SP:fb CYC:13693
f984  50 07      BVC $f98d   A:02 X:78 Y:69 P:65 SP:f9 CYC:13699
f986  90 05      BCC $f98d   A:02 X:78 Y:69 P:65 SP:f9 CYC:13701
f988  c9 02      CMP #$02    A:02 X:78 Y:69 P:65 SP:f9 CYC:13703
f98a  d0 01      BNE $f98d   A:02 X:78 Y:69 P:67 SP:f9 CYC:13705
f98c  60         RTS         A:02 X:78 Y:69 P:67 SP:f9 CYC:13707
e351  a9 aa      LDA #$aa    A:02 X:78 Y:69 P:67 SP:fb CYC:13713
e353  8d 33 06   STA $0633   A:aa X:78 Y:69 P:e5 SP:fb CYC:13715
e356  a9 bb      LDA #$bb    A:aa X:78 Y:69 P:e5 SP:fb CYC:13719
e358  8d 89 06   STA $0689   A:bb X:78 Y:69 P:e5 SP:fb CYC:13721
e35b  a2 00      LDX #$00    A:bb X:78 Y:69 P:e5 SP:fb CYC:13725
e35d  a0 66      LDY #$66    A:bb X:00 Y:69 P:67 SP:fb CYC:13727
e35f  24 01      BIT $01     A:bb X:00 Y:66 P:65 SP:fb CYC:13729
e361  38         SEC         A:bb X:00 Y:66 P:e5 SP:fb CYC:13732
e362  a9 00      LDA #$00    A:bb X:00 Y:66 P:e5 SP:fb CYC:13734
e364  bd 33 06   LDA $0633,X A:00 X:00 Y:66 P:67 SP:fb CYC:13736
e367  10 12      BPL $e37b   A:aa X:00 Y:66 P:e5 SP:fb CYC:13740
e369  f0 10      BEQ $e37b   A:aa X:00 Y:66 P:e5 SP:fb CYC:13742
e36b  50 0e      BVC $e37b   A:aa X:00 Y:66 P:e5 SP:fb CYC:13744
e36d  90 0c      BCC $e37b   A:aa X:00 Y:66 P:e5 SP:fb CYC:13746
e36f  c0 66      CPY #$66    A:aa X:00 Y:66 P:e5 SP:fb CYC:13748
e371  d0 08      BNE $e37b   A:aa X:00 Y:66 P:67 SP:fb CYC:13750
e373  e0 00      CPX #$00    A:aa X:00 Y:66 P:67 SP:fb CYC:13752
e375  d0 04      BNE $e37b   A:aa X:00 Y:66 P:67 SP:fb CYC:13754
e377  c9 aa      CMP #$aa    A:aa X:00 Y:66 P:67 SP:fb CYC:13756
e379  f0 04      BEQ $e37f   A:aa X:00 Y:66 P:67 SP:fb CYC:13758
e37f  a2 8a      LDX #$8a    A:aa X:00 Y:66 P:67 SP:fb CYC:13761
e381  a0 66      LDY #$66    A:aa X:8a Y:66 P:e5 SP:fb CYC:13763
e383  b8         CLV         A:aa X:8a Y:66 P:65 SP:fb CYC:13765
e384  18         CLC         A:aa X:8a Y:66 P:25 SP:fb CYC:13767
e385  a9 00      LDA #$00    A:aa X:8a Y:66 P:24 SP:fb CYC:13769
e387  bd ff 05   LDA $05ff,X A:00 X:8a Y:66 P:26 SP:fb CYC:13771
e38a  10 12      BPL $e39e   A:bb X:8a Y:66 P:a4 SP:fb CYC:13776
e38c  f0 10      BEQ $e39e   A:bb X:8a Y:66 P:a4 SP:fb CYC:13778
e38e  70 0e      BVS $e39e   A:bb X:8a Y:66 P:a4 SP:fb CYC:13780
e390  b0 0c      BCS $e39e   A:bb X:8a Y:66 P:a4 SP:fb CYC:13782
e392  c9 bb      CMP #$bb    A:bb X:8a Y:66 P:a4 SP:fb CYC:13784
e394  d0 08      BNE $e39e   A:bb X:8a Y:66 P:27 SP:fb CYC:13786
e396  c0 66      CPY #$66    A:bb X:8a Y:66 P:27 SP:fb CYC:13788
e398  d0 04      BNE $e39e   A:bb X:8a Y:66 P:27 SP:fb CYC:13790
e39a  e0 8a      CPX #$8a    A:bb X:8a Y:66 P:27 SP:fb CYC:13792
e39c  f0 04      BEQ $e3a2   A:bb X:8a Y:66 P:27 SP:fb CYC:13794
e3a2  24 01      BIT $01     A:bb X:8a Y:66 P:27 SP:fb CYC:13797
e3a4  38         SEC         A:bb X:8a Y:66 P:e5 SP:fb CYC:13800
e3a5  a9 44      LDA #$44    A:bb X:8a Y:66 P:e5 SP:fb CYC:13802
e3a7  a2 00      LDX #$00    A:44 X:8a Y:66 P:65 SP:fb CYC:13804
e3a9  9d 33 06   STA $0633,X A:44 X:00 Y:66 P:67 SP:fb CYC:13806
e3ac  ad 33 06   LDA $0633   A:44 X:00 Y:66 P:67 SP:fb CYC:13811
e3af  90 1a      BCC $e3cb   A:44 X:00 Y:66 P:65 SP:fb CYC:13815
e3b1  c9 44      CMP #$44    A:44 X:00 Y:66 P:65 SP:fb CYC:13817
e3b3  d0 16      BNE $e3cb   A:44 X:00 Y:66 P:67 SP:fb CYC:13819
e3b5  50 14      BVC $e3cb   A:44 X:00 Y:66 P:67 SP:fb CYC:13821
e3b7  18         CLC         A:44 X:00 Y:66 P:67 SP:fb CYC:13823
e3b8  b8         CLV         A:44 X:00 Y:66 P:66 SP:fb CYC:13825
e3b9  a9 99      LDA #$99    A:44 X:00 Y:66 P:26 SP:fb CYC:13827
e3bb  a2 80      LDX #$80    A:99 X:00 Y:66 P:a4 SP:fb CYC:13829
e3bd  9d 85 05   STA $0585,X A:99 X:80 Y:66 P:a4 SP:fb CYC:13831
e3c0  ad 05 06   LDA $0605   A:99 X:80 Y:66 P:a4 SP:fb CYC:13836
e3c3  b0 06      BCS $e3cb   A:99 X:80 Y:66 P:a4 SP:fb CYC:13840
e3c5  c9 99      CMP #$99    A:99 X:80 Y:66 P:a4 SP:fb CYC:13842
e3c7  d0 02      BNE $e3cb   A:99 X:80 Y:66 P:27 SP:fb CYC:13844
e3c9  50 04      BVC $e3cf   A:99 X:80 Y:66 P:27 SP:fb CYC:13846
e3cf  a0 6d      LDY #$6d    A:99 X:80 Y:66 P:27 SP:fb CYC:13849
e3d1  a2 6d      LDX #$6d    A:99 X:80 Y:6d P:25 SP:fb CYC:13851
e3d3  20 90 f9   JSR $f990   A:99 X:6d Y:6d P:25 SP:fb CYC:13853
f990  a2 55      LDX #$55    A:99 X:6d Y:6d P:25 SP:f9 CYC:13859
f992  a9 ff      LDA #$ff    A:99 X:55 Y:6d P:25 SP:f9 CYC:13861
f994  85 01      STA $01     A:ff X:55 Y:6d P:a5 SP:f9 CYC:13863
f996  ea         NOP         A:ff X:55 Y:6d P:a5 SP:f9 CYC:13866
f997  24 01      BIT $01     A:ff X:55 Y:6d P:a5 SP:f9 CYC:13868
f999  38         SEC         A:ff X:55 Y:6d P:e5 SP:f9 CYC:13871
f99a  a9 01      LDA #$01    A:ff X:55 Y:6d P:e5 SP:f9 CYC:13873
f99c  60         RTS         A:01 X:55 Y:6d P:65 SP:f9 CYC:13875
e3d6  9d 00 06   STA $0600,X A:01 X:55 Y:6d P:65 SP:fb CYC:13881
e3d9  5e 00 06   LSR $0600,X A:01 X:55 Y:6d P:65 SP:fb CYC:13886
e3dc  bd 00 06   LDA $0600,X A:01 X:55 Y:6d P:67 SP:fb CYC:13893
e3df  20 9d f9   JSR $f99d   A:00 X:55 Y:6d P:67 SP:fb CYC:13897
f99d  90 1b      BCC $f9ba   A:00 X:55 Y:6d P:67 SP:f9 CYC:13903
f99f  d0 19      BNE $f9ba   A:00 X:55 Y:6d P:67 SP:f9 CYC:13905
f9a1  30 17      BMI $f9ba   A:00 X:55 Y:6d P:67 SP:f9 CYC:13907
f9a3  50 15      BVC $f9ba   A:00 X:55 Y:6d P:67 SP:f9 CYC:13909
f9a5  c9 00      CMP #$00    A:00 X:55 Y:6d P:67 SP:f9 CYC:13911
f9a7  d0 11      BNE $f9ba   A:00 X:55 Y:6d P:67 SP:f9 CYC:13913
f9a9  b8         CLV         A:00 X:55 Y:6d P:67 SP:f9 CYC:13915
f9aa  a9 aa      LDA #$aa    A:00 X:55 Y:6d P:27 SP:f9 CYC:13917
f9ac  60         RTS         A:aa X:55 Y:6d P:a5 SP:f9 CYC:13919
e3e2  c8         INY         A:aa X:55 Y:6d P:a5 SP:fb CYC:13925
e3e3  9d 00 06   STA $0600,X A:aa X:55 Y:6e P:25 SP:fb CYC:13927
e3e6  5e 00 06   LSR $0600,X A:aa X:55 Y:6e P:25 SP:fb CYC:13932
e3e9  bd 00 06   LDA $0600,X A:aa X:55 Y:6e P:24 SP:fb CYC:13939
e3ec  20 ad f9   JSR $f9ad   A:55 X:55 Y:6e P:24 SP:fb CYC:13943
f9ad  b0 0b      BCS $f9ba   A:55 X:55 Y:6e P:24 SP:f9 CYC:13949
f9af  f0 09      BEQ $f9ba   A:55 X:55 Y:6e P:24 SP:f9 CYC:13951
f9b1  30 07      BMI $f9ba   A:55 X:55 Y:6e P:24 SP:f9 CYC:13953
f9b3  70 05      BVS $f9ba   A:55 X:55 Y:6e P:24 SP:f9 CYC:13955
f9b5  c9 55      CMP #$55    A:55 X:55 Y:6e P:24 SP:f9 CYC:13957
f9b7  d0 01      BNE $f9ba   A:55 X:55 Y:6e P:27 SP:f9 CYC:13959
f9b9  60         RTS         A:55 X:55 Y:6e P:27 SP:f9 CYC:13961
e3ef  c8         INY         A:55 X:55 Y:6e P:27 SP:fb CYC:13967
e3f0  20 bd f9   JSR $f9bd   A:55 X:55 Y:6f P:25 SP:fb CYC:13969
f9bd  24 01      BIT $01     A:55 X:55 Y:6f P:25 SP:f9 CYC:13975
f9bf  38         SEC         A:55 X:55 Y:6f P:e5 SP:f9 CYC:13978
f9c0  a9 80      LDA #$80    A:55 X:55 Y:6f P:e5 SP:f9 CYC:13980
f9c2  60         RTS         A:80 X:55 Y:6f P:e5 SP:f9 CYC:13982
e3f3  9d 00 06   STA $0600,X A:80 X:55 Y:6f P:e5 SP:fb CYC:13988
e3f6  1e 00 06   ASL $0600,X A:80 X:55 Y:6f P:e5 SP:fb CYC:13993
e3f9  bd 00 06   LDA $0600,X A:80 X:55 Y:6f P:67 SP:fb CYC:14000
e3fc  20 c3 f9   JSR $f9c3   A:00 X:55 Y:6f P:67 SP:fb CYC:14004
f9c3  90 1c      BCC $f9e1   A:00 X:55 Y:6f P:67 SP:f9 CYC:14010
f9c5  d0 1a      BNE $f9e1   A:00 X:55 Y:6f P:67 SP:f9 CYC:14012
f9c7  30 18      BMI $f9e1   A:00 X:55 Y:6f P:67 SP:f9 CYC:14014
f9c9  50 16      BVC $f9e1   A:00 X:55 Y:6f P:67 SP:f9 CYC:14016
f9cb  c9 00      CMP #$00    A:00 X:55 Y:6f P:67 SP:f9 CYC:14018
f9cd  d0 12      BNE $f9e1   A:00 X:55 Y:6f P:67 SP:f9 CYC:14020
f9cf  b8         CLV         A:00 X:55 Y:6f P:67 SP:f9 CYC:14022
f9d0  a9 55      LDA #$55    A:00 X:55 Y:6f P:27 SP:f9 CYC:14024
f9d2  38         SEC         A:55 X:55 Y:6f P:25 SP:f9 CYC:14026
f9d3  60         RTS         A:55 X:55 Y:6f P:25 SP:f9 CYC:14028
e3ff  c8         INY         A:55 X:55 Y:6f P:25 SP:fb CYC:14034
e400  9d 00 06   STA $0600,X A:55 X:55 Y:70 P:25 SP:fb CYC:14036
e403  1e 00 06   ASL $0600,X A:55 X:55 Y:70 P:25 SP:fb CYC:14041
e406  bd 00 06   LDA $0600,X A:55 X:55 Y:70 P:a4 SP:fb CYC:14048
e409  20 d4 f9   JSR $f9d4   A:aa X:55 Y:70 P:a4 SP:fb CYC:14052
f9d4  b0 0b      BCS $f9e1   A:aa X:55 Y:70 P:a4 SP:f9 CYC:14058
f9d6  f0 09      BEQ $f9e1   A:aa X:55 Y:70 P:a4 SP:f9 CYC:14060
f9d8  10 07      BPL $f9e1   A:aa X:55 Y:70 P:a4 SP:f9 CYC:14062
f9da  70 05      BVS $f9e1   A:aa X:55 Y:70 P:a4 SP:f9 CYC:14064
f9dc  c9 aa      CMP #$aa    A:aa X:55 Y:70 P:a4 SP:f9 CYC:14066
f9de  d0 01      BNE $f9e1   A:aa X:55 Y:70 P:27 SP:f9 CYC:14068
f9e0  60         RTS         A:aa X:55 Y:70 P:27 SP:f9 CYC:14070
e40c  c8         INY         A:aa X:55 Y:70 P:27 SP:fb CYC:14076
e40d  20 e4 f9   JSR $f9e4   A:aa X:55 Y:71 P:25 SP:fb CYC:14078
f9e4  24 01      BIT $01     A:aa X:55 Y:71 P:25 SP:f9 CYC:14084
f9e6  38         SEC         A:aa X:55 Y:71 P:e5 SP:f9 CYC:14087
f9e7  a9 01      LDA #$01    A:aa X:55 Y:71 P:e5 SP:f9 CYC:14089
f9e9  60         RTS         A:01 X:55 Y:71 P:65 SP:f9 CYC:14091
e410  9d 00 06   STA $0600,X A:01 X:55 Y:71 P:65 SP:fb CYC:14097
e413  7e 00 06   ROR $0600,X A:01 X:55 Y:71 P:65 SP:fb CYC:14102
e416  bd 00 06   LDA $0600,X A:01 X:55 Y:71 P:e5 SP:fb CYC:14109
e419  20 ea f9   JSR $f9ea   A:80 X:55 Y:71 P:e5 SP:fb CYC:14113
f9ea  90 1c      BCC $fa08   A:80 X:55 Y:71 P:e5 SP:f9 CYC:14119
f9ec  f0 1a      BEQ $fa08   A:80 X:55 Y:71 P:e5 SP:f9 CYC:14121
f9ee  10 18      BPL $fa08   A:80 X:55 Y:71 P:e5 SP:f9 CYC:14123
f9f0  50 16      BVC $fa08   A:80 X:55 Y:71 P:e5 SP:f9 CYC:14125
f9f2  c9 80      CMP #$80    A:80 X:55 Y:71 P:e5 SP:f9 CYC:14127
f9f4  d0 12      BNE $fa08   A:80 X:55 Y:71 P:67 SP:f9 CYC:14129
f9f6  b8         CLV         A:80 X:55 Y:71 P:67 SP:f9 CYC:14131
f9f7  18         CLC         A:80 X:55 Y:71 P:27 SP:f9 CYC:14133
f9f8  a9 55      LDA #$55    A:80 X:55 Y:71 P:26 SP:f9 CYC:14135
f9fa  60         RTS         A:55 X:55 Y:71 P:24 SP:f9 CYC:14137
e41c  c8         INY         A:55 X:55 Y:71 P:24 SP:fb CYC:14143
e41d  9d 00 06   STA $0600,X A:55 X:55 Y:72 P:24 SP:fb CYC:14145
e420  7e 00 06   ROR $0600,X A:55 X:55 Y:72 P:24 SP:fb CYC:14150
e423  bd 00 06   LDA $0600,X A:55 X:55 Y:72 P:25 SP:fb CYC:14157
e426  20 fb f9   JSR $f9fb   A:2a X:55 Y:72 P:25 SP:fb CYC:14161
f9fb  90 0b      BCC $fa08   A:2a X:55 Y:72 P:25 SP:f9 CYC:14167
f9fd  f0 09      BEQ $fa08   A:2a X:55 Y:72 P:25 SP:f9 CYC:14169
f9ff  30 07      BMI $fa08   A:2a X:55 Y:72 P:25 SP:f9 CYC:14171
fa01  70 05      BVS $fa08   A:2a X:55 Y:72 P:25 SP:f9 CYC:14173
fa03  c9 2a      CMP #$2a    A:2a X:55 Y:72 P:25 SP:f9 CYC:14175
fa05  d0 01      BNE $fa08   A:2a X:55 Y:72 P:27 SP:f9 CYC:14177
fa07  60         RTS         A:2a X:55 Y:72 P:27 SP:f9 CYC:14179
e429  c8         INY         A:2a X:55 Y:72 P:27 SP:fb CYC:14185
e42a  20 0a fa   JSR $fa0a   A:2a X:55 Y:73 P:25 SP:fb CYC:14187
fa0a  24 01      BIT $01     A:2a X:55 Y:73 P:25 SP:f9 CYC:14193
fa0c  38         SEC         A:2a X:55 Y:73 P:e5 SP:f9 CYC:14196
fa0d  a9 80      LDA #$80    A:2a X:55 Y:73 P:e5 SP:f9 CYC:14198
fa0f  60         RTS         A:80 X:55 Y:73 P:e5 SP:f9 CYC:14200
e42d  9d 00 06   STA $0600,X A:80 X:55 Y:73 P:e5 SP:fb CYC:14206
e430  3e 00 06   ROL $0600,X A:80 X:55 Y:73 P:e5 SP:fb CYC:14211
e433  bd 00 06   LDA $0600,X A:80 X:55 Y:73 P:65 SP:fb CYC:14218
e436  20 10 fa   JSR $fa10   A:01 X:55 Y:73 P:65 SP:fb CYC:14222
fa10  90 1c      BCC $fa2e   A:01 X:55 Y:73 P:65 SP:f9 CYC:14228
fa12  f0 1a      BEQ $fa2e   A:01 X:55 Y:73 P:65 SP:f9 CYC:14230
fa14  30 18      BMI $fa2e   A:01 X:55 Y:73 P:65 SP:f9 CYC:14232
fa16  50 16      BVC $fa2e   A:01 X:55 Y:73 P:65 SP:f9 CYC:14234
fa18  c9 01      CMP #$01    A:01 X:55 Y:73 P:65 SP:f9 CYC:14236
fa1a  d0 12      BNE $fa2e   A:01 X:55 Y:73 P:67 SP:f9 CYC:14238
fa1c  b8         CLV         A:01 X:55 Y:73 P:67 SP:f9 CYC:14240
fa1d  18         CLC         A:01 X:55 Y:73 P:27 SP:f9 CYC:14242
fa1e  a9 55      LDA #$55    A:01 X:55 Y:73 P:26 SP:f9 CYC:14244
fa20  60         RTS         A:55 X:55 Y:73 P:24 SP:f9 CYC:14246
e439  c8         INY         A:55 X:55 Y:73 P:24 SP:fb CYC:14252
e43a  9d 00 06   STA $0600,X A:55 X:55 Y:74 P:24 SP:fb CYC:14254
e43d  3e 00 06   ROL $0600,X A:55 X:55 Y:74 P:24 SP:fb CYC:14259
e440  bd 00 06   LDA $0600,X A:55 X:55 Y:74 P:a4 SP:fb CYC:14266
e443  20 21 fa   JSR $fa21   A:aa X:55 Y:74 P:a4 SP:fb CYC:14270
fa21  b0 0b      BCS $fa2e   A:aa X:55 Y:74 P:a4 SP:f9 CYC:14276
fa23  f0 09      BEQ $fa2e   A:aa X:55 Y:74 P:a4 SP:f9 CYC:14278
fa25  10 07      BPL $fa2e   A:aa X:55 Y:74 P:a4 SP:f9 CYC:14280
fa27  70 05      BVS $fa2e   A:aa X:55 Y:74 P:a4 SP:f9 CYC:14282
fa29  c9 aa      CMP #$aa    A:aa X:55 Y:74 P:a4 SP:f9 CYC:14284
fa2b  d0 01      BNE $fa2e   A:aa X:55 Y:74 P:27 SP:f9 CYC:14286
fa2d  60         RTS         A:aa X:55 Y:74 P:27 SP:f9 CYC:14288
e446  a9 ff      LDA #$ff    A:aa X:55 Y:74 P:27 SP:fb CYC:14294
e448  9d 00 06   STA $0600,X A:ff X:55 Y:74 P:a5 SP:fb CYC:14296
e44b  85 01      STA $01     A:ff X:55 Y:74 P:a5 SP:fb CYC:14301
e44d  24 01      BIT $01     A:ff X:55 Y:74 P:a5 SP:fb CYC:14304
e44f  38         SEC         A:ff X:55 Y:74 P:e5 SP:fb CYC:14307
e450  fe 00 06   INC $0600,X A:ff X:55 Y:74 P:e5 SP:fb CYC:14309
e453  d0 0d      BNE $e462   A:ff X:55 Y:74 P:67 SP:fb CYC:14316
e455  30 0b      BMI $e462   A:ff X:55 Y:74 P:67 SP:fb CYC:14318
e457  50 09      BVC $e462   A:ff X:55 Y:74 P:67 SP:fb CYC:14320
e459  90 07      BCC $e462   A:ff X:55 Y:74 P:67 SP:fb CYC:14322
e45b  bd 00 06   LDA $0600,X A:ff X:55 Y:74 P:67 SP:fb CYC:14324
e45e  c9 00      CMP #$00    A:00 X:55 Y:74 P:67 SP:fb CYC:14328
e460  f0 04      BEQ $e466   A:00 X:55 Y:74 P:67 SP:fb CYC:14330
e466  a9 7f      LDA #$7f    A:00 X:55 Y:74 P:67 SP:fb CYC:14333
e468  9d 00 06   STA $0600,X A:7f X:55 Y:74 P:65 SP:fb CYC:14335
e46b  b8         CLV         A:7f X:55 Y:74 P:65 SP:fb CYC:14340
e46c  18         CLC         A:7f X:55 Y:74 P:25 SP:fb CYC:14342
e46d  fe 00 06   INC $0600,X A:7f X:55 Y:74 P:24 SP:fb CYC:14344
e470  f0 0d      BEQ $e47f   A:7f X:55 Y:74 P:a4 SP:fb CYC:14351
e472  10 0b      BPL $e47f   A:7f X:55 Y:74 P:a4 SP:fb CYC:14353
e474  70 09      BVS $e47f   A:7f X:55 Y:74 P:a4 SP:fb CYC:14355
e476  b0 07      BCS $e47f   A:7f X:55 Y:74 P:a4 SP:fb CYC:14357
e478  bd 00 06   LDA $0600,X A:7f X:55 Y:74 P:a4 SP:fb CYC:14359
e47b  c9 80      CMP #$80    A:80 X:55 Y:74 P:a4 SP:fb CYC:14363
e47d  f0 04      BEQ $e483   A:80 X:55 Y:74 P:27 SP:fb CYC:14365
e483  a9 00      LDA #$00    A:80 X:55 Y:74 P:27 SP:fb CYC:14368
e485  9d 00 06   STA $0600,X A:00 X:55 Y:74 P:27 SP:fb CYC:14370
e488  24 01      BIT $01     A:00 X:55 Y:74 P:27 SP:fb CYC:14375
e48a  38         SEC         A:00 X:55 Y:74 P:e7 SP:fb CYC:14378
e48b  de 00 06   DEC $0600,X A:00 X:55 Y:74 P:e7 SP:fb CYC:14380
e48e  f0 0d      BEQ $e49d   A:00 X:55 Y:74 P:e5 SP:fb CYC:14387
e490  10 0b      BPL $e49d   A:00 X:55 Y:74 P:e5 SP:fb CYC:14389
e492  50 09      BVC $e49d   A:00 X:55 Y:74 P:e5 SP:fb CYC:14391
e494  90 07      BCC $e49d   A:00 X:55 Y:74 P:e5 SP:fb CYC:14393
e496  bd 00 06   LDA $0600,X A:00 X:55 Y:74 P:e5 SP:fb CYC:14395
e499  c9 ff      CMP #$ff    A:ff X:55 Y:74 P:e5 SP:fb CYC:14399
e49b  f0 04      BEQ $e4a1   A:ff X:55 Y:74 P:67 SP:fb CYC:14401
e4a1  a9 80      LDA #$80    A:ff X:55 Y:74 P:67 SP:fb CYC:14404
e4a3  9d 00 06   STA $0600,X A:80 X:55 Y:74 P:e5 SP:fb CYC:14406
e4a6  b8         CLV         A:80 X:55 Y:74 P:e5 SP:fb CYC:14411
e4a7  18         CLC         A:80 X:55 Y:74 P:a5 SP:fb CYC:14413
e4a8  de 00 06   DEC $0600,X A:80 X:55 Y:74 P:a4 SP:fb CYC:14415
e4ab  f0 0d      BEQ $e4ba   A:80 X:55 Y:74 P:24 SP:fb CYC:14422
e4ad  30 0b      BMI $e4ba   A:80 X:55 Y:74 P:24 SP:fb CYC:14424
e4af  70 09      BVS $e4ba   A:80 X:55 Y:74 P:24 SP:fb CYC:14426
e4b1  b0 07      BCS $e4ba   A:80 X:55 Y:74 P:24 SP:fb CYC:14428
e4b3  bd 00 06   LDA $0600,X A:80 X:55 Y:74 P:24 SP:fb CYC:14430
e4b6  c9 7f      CMP #$7f    A:7f X:55 Y:74 P:24 SP:fb CYC:14434
e4b8  f0 04      BEQ $e4be   A:7f X:55 Y:74 P:27 SP:fb CYC:14436
e4be  a9 01      LDA #$01    A:7f X:55 Y:74 P:27 SP:fb CYC:14439
e4c0  9d 00 06   STA $0600,X A:01 X:55 Y:74 P:25 SP:fb CYC:14441
e4c3  de 00 06   DEC $0600,X A:01 X:55 Y:74 P:25 SP:fb CYC:14446
e4c6  f0 04      BEQ $e4cc   A:01 X:55 Y:74 P:27 SP:fb CYC:14453
e4cc  a9 33      LDA #$33    A:01 X:55 Y:74 P:27 SP:fb CYC:14456
e4ce  8d 78 06   STA $0678   A:33 X:55 Y:74 P:25 SP:fb CYC:14458
e4d1  a9 44      LDA #$44    A:33 X:55 Y:74 P:25 SP:fb CYC:14462
e4d3  a0 78      LDY #$78    A:44 X:55 Y:74 P:25 SP:fb CYC:14464
e4d5  a2 00      LDX #$00    A:44 X:55 Y:78 P:25 SP:fb CYC:14466
e4d7  38         SEC         A:44 X:00 Y:78 P:27 SP:fb CYC:14468
e4d8  24 01      BIT $01     A:44 X:00 Y:78 P:27 SP:fb CYC:14470
e4da  be 00 06   LDX $0600,Y A:44 X:00 Y:78 P:e5 SP:fb CYC:14473
e4dd  90 12      BCC $e4f1   A:44 X:33 Y:78 P:65 SP:fb CYC:14477
e4df  50 10      BVC $e4f1   A:44 X:33 Y:78 P:65 SP:fb CYC:14479
e4e1  30 0e      BMI $e4f1   A:44 X:33 Y:78 P:65 SP:fb CYC:14481
e4e3  f0 0c      BEQ $e4f1   A:44 X:33 Y:78 P:65 SP:fb CYC:14483
e4e5  e0 33      CPX #$33    A:44 X:33 Y:78 P:65 SP:fb CYC:14485
e4e7  d0 08      BNE $e4f1   A:44 X:33 Y:78 P:67 SP:fb CYC:14487
e4e9  c0 78      CPY #$78    A:44 X:33 Y:78 P:67 SP:fb CYC:14489
e4eb  d0 04      BNE $e4f1   A:44 X:33 Y:78 P:67 SP:fb CYC:14491
e4ed  c9 44      CMP #$44    A:44 X:33 Y:78 P:67 SP:fb CYC:14493
e4ef  f0 04      BEQ $e4f5   A:44 X:33 Y:78 P:67 SP:fb CYC:14495
e4f5  a9 97      LDA #$97    A:44 X:33 Y:78 P:67 SP:fb CYC:14498
e4f7  8d 7f 06   STA $067f   A:97 X:33 Y:78 P:e5 SP:fb CYC:14500
e4fa  a9 47      LDA #$47    A:97 X:33 Y:78 P:e5 SP:fb CYC:14504
e4fc  a0 ff      LDY #$ff    A:47 X:33 Y:78 P:65 SP:fb CYC:14506
e4fe  a2 00      LDX #$00    A:47 X:33 Y:ff P:e5 SP:fb CYC:14508
e500  18         CLC         A:47 X:00 Y:ff P:67 SP:fb CYC:14510
e501  b8         CLV         A:47 X:00 Y:ff P:66 SP:fb CYC:14512
e502  be 80 05   LDX $0580,Y A:47 X:00 Y:ff P:26 SP:fb CYC:14514
e505  b0 12      BCS $e519   A:47 X:97 Y:ff P:a4 SP:fb CYC:14519
e507  70 10      BVS $e519   A:47 X:97 Y:ff P:a4 SP:fb CYC:14521
e509  10 0e      BPL $e519   A:47 X:97 Y:ff P:a4 SP:fb CYC:14523
e50b  f0 0c      BEQ $e519   A:47 X:97 Y:ff P:a4 SP:fb CYC:14525
e50d  e0 97      CPX #$97    A:47 X:97 Y:ff P:a4 SP:fb CYC:14527
e50f  d0 08      BNE $e519   A:47 X:97 Y:ff P:27 SP:fb CYC:14529
e511  c0 ff      CPY #$ff    A:47 X:97 Y:ff P:27 SP:fb CYC:14531
e513  d0 04      BNE $e519   A:47 X:97 Y:ff P:27 SP:fb CYC:14533
e515  c9 47      CMP #$47    A:47 X:97 Y:ff P:27 SP:fb CYC:14535
e517  f0 04      BEQ $e51d   A:47 X:97 Y:ff P:27 SP:fb CYC:14537
e51d  60         RTS         A:47 X:97 Y:ff P:27 SP:fb CYC:14540
c62f  20 a3 c6   JSR $c6a3   A:47 X:97 Y:ff P:27 SP:fd CYC:14546
c6a3  a0 4e      LDY #$4e    A:47 X:97 Y:ff P:27 SP:fb CYC:14552
c6a5  a9 ff      LDA #$ff    A:47 X:97 Y:4e P:25 SP:fb CYC:14554
c6a7  85 01      STA $01     A:ff X:97 Y:4e P:a5 SP:fb CYC:14556
c6a9  20 b0 c6   JSR $c6b0   A:ff X:97 Y:4e P:a5 SP:fb CYC:14559
c6b0  a9 ff      LDA #$ff    A:ff X:97 Y:4e P:a5 SP:f9 CYC:14565
c6b2  48         PHA         A:ff X:97 Y:4e P:a5 SP:f9 CYC:14567
c6b3  a9 aa      LDA #$aa    A:ff X:97 Y:4e P:a5 SP:f8 CYC:14570
c6b5  d0 05      BNE $c6bc   A:aa X:97 Y:4e P:a5 SP:f8 CYC:14572
c6bc  28         PLP         A:aa X:97 Y:4e P:a5 SP:f8 CYC:14575
c6bd  04 a9      NOP $a9     A:aa X:97 Y:4e P:ef SP:f9 CYC:14579
c6bf  44 a9      NOP $a9     A:aa X:97 Y:4e P:ef SP:f9 CYC:14582
c6c1  64 a9      NOP $a9     A:aa X:97 Y:4e P:ef SP:f9 CYC:14585
c6c3  ea         NOP         A:aa X:97 Y:4e P:ef SP:f9 CYC:14588
c6c4  ea         NOP         A:aa X:97 Y:4e P:ef SP:f9 CYC:14590
c6c5  ea         NOP         A:aa X:97 Y:4e P:ef SP:f9 CYC:14592
c6c6  ea         NOP         A:aa X:97 Y:4e P:ef SP:f9 CYC:14594
c6c7  08         PHP         A:aa X:97 Y:4e P:ef SP:f9 CYC:14596
c6c8  48         PHA         A:aa X:97 Y:4e P:ef SP:f8 CYC:14599
c6c9  0c a9 a9   NOP $a9a9   A:aa X:97 Y:4e P:ef SP:f7 CYC:14602
c6cc  ea         NOP         A:aa X:97 Y:4e P:ef SP:f7 CYC:14606
c6cd  ea         NOP         A:aa X:97 Y:4e P:ef SP:f7 CYC:14608
c6ce  ea         NOP         A:aa X:97 Y:4e P:ef SP:f7 CYC:14610
c6cf  ea         NOP         A:aa X:97 Y:4e P:ef SP:f7 CYC:14612
c6d0  08         PHP         A:aa X:97 Y:4e P:ef SP:f7 CYC:14614
c6d1  48         PHA         A:aa X:97 Y:4e P:ef SP:f6 CYC:14617
c6d2  14 a9      NOP $a9,X   A:aa X:97 Y:4e P:ef SP:f5 CYC:14620
c6d4  34 a9      NOP $a9,X   A:aa X:97 Y:4e P:ef SP:f5 CYC:14624
c6d6  54 a9      NOP $a9,X   A:aa X:97 Y:4e P:ef SP:f5 CYC:14628
c6d8  74 a9      NOP $a9,X   A:aa X:97 Y:4e P:ef SP:f5 CYC:14632
c6da  d4 a9      NOP $a9,X   A:aa X:97 Y:4e P:ef SP:f5 CYC:14636
c6dc  f4 a9      NOP $a9,X   A:aa X:97 Y:4e P:ef SP:f5 CYC:14640
c6de  ea         NOP         A:aa X:97 Y:4e P:ef SP:f5 CYC:14644
c6df  ea         NOP         A:aa X:97 Y:4e P:ef SP:f5 CYC:14646
c6e0  ea         NOP         A:aa X:97 Y:4e P:ef SP:f5 CYC:14648
c6e1  ea         NOP         A:aa X:97 Y:4e P:ef SP:f5 CYC:14650
c6e2  08         PHP         A:aa X:97 Y:4e P:ef SP:f5 CYC:14652
c6e3  48         PHA         A:aa X:97 Y:4e P:ef SP:f4 CYC:14655
c6e4  1a         NOP         A:aa X:97 Y:4e P:ef SP:f3 CYC:14658
c6e5  3a         NOP         A:aa X:97 Y:4e P:ef SP:f3 CYC:14660
c6e6  5a         NOP         A:aa X:97 Y:4e P:ef SP:f3 CYC:14662
c6e7  7a         NOP         A:aa X:97 Y:4e P:ef SP:f3 CYC:14664
c6e8  da         NOP         A:aa X:97 Y:4e P:ef SP:f3 CYC:14666
c6e9  fa         NOP         A:aa X:97 Y:4e P:ef SP:f3 CYC:14668
c6ea  80 89      NOP #$89    A:aa X:97 Y:4e P:ef SP:f3 CYC:14670
c6ec  ea         NOP         A:aa X:97 Y:4e P:ef SP:f3 CYC:14672
c6ed  ea         NOP         A:aa X:97 Y:4e P:ef SP:f3 CYC:14674
c6ee  ea         NOP         A:aa X:97 Y:4e P:ef SP:f3 CYC:14676
c6ef  ea         NOP         A:aa X:97 Y:4e P:ef SP:f3 CYC:14678
c6f0  08         PHP         A:aa X:97 Y:4e P:ef SP:f3 CYC:14680
c6f1  48         PHA         A:aa X:97 Y:4e P:ef SP:f2 CYC:14683
c6f2  1c a9 a9   NOP $a9a9,X A:aa X:97 Y:4e P:ef SP:f1 CYC:14686
c6f5  3c a9 a9   NOP $a9a9,X A:aa X:97 Y:4e P:ef SP:f1 CYC:14691
c6f8  5c a9 a9   NOP $a9a9,X A:aa X:97 Y:4e P:ef SP:f1 CYC:14696
c6fb  7c a9 a9   NOP $a9a9,X A:aa X:97 Y:4e P:ef SP:f1 CYC:14701
c6fe  dc a9 a9   NOP $a9a9,X A:aa X:97 Y:4e P:ef SP:f1 CYC:14706
c701  fc a9 a9   NOP $a9a9,X A:aa X:97 Y:4e P:ef SP:f1 CYC:14711
c704  ea         NOP         A:aa X:97 Y:4e P:ef SP:f1 CYC:14716
c705  ea         NOP         A:aa X:97 Y:4e P:ef SP:f1 CYC:14718
c706  ea         NOP         A:aa X:97 Y:4e P:ef SP:f1 CYC:14720
c707  ea         NOP         A:aa X:97 Y:4e P:ef SP:f1 CYC:14722
c708  08         PHP         A:aa X:97 Y:4e P:ef SP:f1 CYC:14724
c709  48         PHA         A:aa X:97 Y:4e P:ef SP:f0 CYC:14727
c70a  a2 05      LDX #$05    A:aa X:97 Y:4e P:ef SP:ef CYC:14730
c70c  68         PLA         A:aa X:05 Y:4e P:6d SP:ef CYC:14732
c70d  c9 55      CMP #$55    A:aa X:05 Y:4e P:ed SP:f0 CYC:14736
c70f  f0 0a      BEQ $c71b   A:aa X:05 Y:4e P:6d SP:f0 CYC:14738
c711  c9 aa      CMP #$aa    A:aa X:05 Y:4e P:6d SP:f0 CYC:14740
c713  f0 06      BEQ $c71b   A:aa X:05 Y:4e P:6f SP:f0 CYC:14742
c71b  68         PLA         A:aa X:05 Y:4e P:6f SP:f0 CYC:14745
c71c  29 cb      AND #$cb    A:ff X:05 Y:4e P:ed SP:f1 CYC:14749
c71e  c9 00      CMP #$00    A:cb X:05 Y:4e P:ed SP:f1 CYC:14751
c720  f0 06      BEQ $c728   A:cb X:05 Y:4e P:ed SP:f1 CYC:14753
c722  c9 cb      CMP #$cb    A:cb X:05 Y:4e P:ed SP:f1 CYC:14755
c724  f0 02      BEQ $c728   A:cb X:05 Y:4e P:6f SP:f1 CYC:14757
c728  c8         INY         A:cb X:05 Y:4e P:6f SP:f1 CYC:14760
c729  ca         DEX         A:cb X:05 Y:4f P:6d SP:f1 CYC:14762
c72a  d0 e0      BNE $c70c   A:cb X:04 Y:4f P:6d SP:f1 CYC:14764
c70c  68         PLA         A:cb X:04 Y:4f P:6d SP:f1 CYC:14767
c70d  c9 55      CMP #$55    A:aa X:04 Y:4f P:ed SP:f2 CYC:14771
c70f  f0 0a      BEQ $c71b   A:aa X:04 Y:4f P:6d SP:f2 CYC:14773
c711  c9 aa      CMP #$aa    A:aa X:04 Y:4f P:6d SP:f2 CYC:14775
c713  f0 06      BEQ $c71b   A:aa X:04 Y:4f P:6f SP:f2 CYC:14777
c71b  68         PLA         A:aa X:04 Y:4f P:6f SP:f2 CYC:14780
c71c  29 cb      AND #$cb    A:ff X:04 Y:4f P:ed SP:f3 CYC:14784
c71e  c9 00      CMP #$00    A:cb X:04 Y:4f P:ed SP:f3 CYC:14786
c720  f0 06      BEQ $c728   A:cb X:04 Y:4f P:ed SP:f3 CYC:14788
c722  c9 cb      CMP #$cb    A:cb X:04 Y:4f P:ed SP:f3 CYC:14790
c724  f0 02      BEQ $c728   A:cb X:04 Y:4f P:6f SP:f3 CYC:14792
c728  c8         INY         A:cb X:04 Y:4f P:6f SP:f3 CYC:14795
c729  ca         DEX         A:cb X:04 Y:50 P:6d SP:f3 CYC:14797
c72a  d0 e0      BNE $c70c   A:cb X:03 Y:50 P:6d SP:f3 CYC:14799
c70c  68         PLA         A:cb X:03 Y:50 P:6d SP:f3 CYC:14802
c70d  c9 55      CMP #$55    A:aa X:03 Y:50 P:ed SP:f4 CYC:14806
c70f  f0 0a      BEQ $c71b   A:aa X:03 Y:50 P:6d SP:f4 CYC:14808
c711  c9 aa      CMP #$aa    A:aa X:03 Y:50 P:6d SP:f4 CYC:14810
c713  f0 06      BEQ $c71b   A:aa X:03 Y:50 P:6f SP:f4 CYC:14812
c71b  68         PLA         A:aa X:03 Y:50 P:6f SP:f4 CYC:14815
c71c  29 cb      AND #$cb    A:ff X:03 Y:50 P:ed SP:f5 CYC:14819
c71e  c9 00      CMP #$00    A:cb X:03 Y:50 P:ed SP:f5 CYC:14821
c720  f0 06      BEQ $c728   A:cb X:03 Y:50 P:ed SP:f5 CYC:14823
c722  c9 cb      CMP #$cb    A:cb X:03 Y:50 P:ed SP:f5 CYC:14825
c724  f0 02      BEQ $c728   A:cb X:03 Y:50 P:6f SP:f5 CYC:14827
c728  c8         INY         A:cb X:03 Y:50 P:6f SP:f5 CYC:14830
c729  ca         DEX         A:cb X:03 Y:51 P:6d SP:f5 CYC:14832
c72a  d0 e0      BNE $c70c   A:cb X:02 Y:51 P:6d SP:f5 CYC:14834
c70c  68         PLA         A:cb X:02 Y:51 P:6d SP:f5 CYC:14837
c70d  c9 55      CMP #$55    A:aa X:02 Y:51 P:ed SP:f6 CYC:14841
c70f  f0 0a      BEQ $c71b   A:aa X:02 Y:51 P:6d SP:f6 CYC:14843
c711  c9 aa      CMP #$aa    A:aa X:02 Y:51 P:6d SP:f6 CYC:14845
c713  f0 06      BEQ $c71b   A:aa X:02 Y:51 P:6f SP:f6 CYC:14847
c71b  68         PLA         A:aa X:02 Y:51 P:6f SP:f6 CYC:14850
c71c  29 cb      AND #$cb    A:ff X:02 Y:51 P:ed SP:f7 CYC:14854
c71e  c9 00      CMP #$00    A:cb X:02 Y:51 P:ed SP:f7 CYC:14856
c720  f0 06      BEQ $c728   A:cb X:02 Y:51 P:ed SP:f7 CYC:14858
c722  c9 cb      CMP #$cb    A:cb X:02 Y:51 P:ed SP:f7 CYC:14860
c724  f0 02      BEQ $c728   A:cb X:02 Y:51 P:6f SP:f7 CYC:14862
c728  c8         INY         A:cb X:02 Y:51 P:6f SP:f7 CYC:14865
c729  ca         DEX         A:cb X:02 Y:52 P:6d SP:f7 CYC:14867
c72a  d0 e0      BNE $c70c   A:cb X:01 Y:52 P:6d SP:f7 CYC:14869
c70c  68         PLA         A:cb X:01 Y:52 P:6d SP:f7 CYC:14872
c70d  c9 55      CMP #$55    A:aa X:01 Y:52 P:ed SP:f8 CYC:14876
c70f  f0 0a      BEQ $c71b   A:aa X:01 Y:52 P:6d SP:f8 CYC:14878
c711  c9 aa      CMP #$aa    A:aa X:01 Y:52 P:6d SP:f8 CYC:14880
c713  f0 06      BEQ $c71b   A:aa X:01 Y:52 P:6f SP:f8 CYC:14882
c71b  68         PLA         A:aa X:01 Y:52 P:6f SP:f8 CYC:14885
c71c  29 cb      AND #$cb    A:ff X:01 Y:52 P:ed SP:f9 CYC:14889
c71e  c9 00      CMP #$00    A:cb X:01 Y:52 P:ed SP:f9 CYC:14891
c720  f0 06      BEQ $c728   A:cb X:01 Y:52 P:ed SP:f9 CYC:14893
c722  c9 cb      CMP #$cb    A:cb X:01 Y:52 P:ed SP:f9 CYC:14895
c724  f0 02      BEQ $c728   A:cb X:01 Y:52 P:6f SP:f9 CYC:14897
c728  c8         INY         A:cb X:01 Y:52 P:6f SP:f9 CYC:14900
c729  ca         DEX         A:cb X:01 Y:53 P:6d SP:f9 CYC:14902
c72a  d0 e0      BNE $c70c   A:cb X:00 Y:53 P:6f SP:f9 CYC:14904
c72c  60         RTS         A:cb X:00 Y:53 P:6f SP:f9 CYC:14906
c6ac  20 b7 c6   JSR $c6b7   A:cb X:00 Y:53 P:6f SP:fb CYC:14912
c6b7  a9 34      LDA #$34    A:cb X:00 Y:53 P:6f SP:f9 CYC:14918
c6b9  48         PHA         A:34 X:00 Y:53 P:6d SP:f9 CYC:14920
c6ba  a9 55      LDA #$55    A:34 X:00 Y:53 P:6d SP:f8 CYC:14923
c6bc  28         PLP         A:55 X:00 Y:53 P:6d SP:f8 CYC:14925
c6bd  04 a9      NOP $a9     A:55 X:00 Y:53 P:24 SP:f9 CYC:14929
c6bf  44 a9      NOP $a9     A:55 X:00 Y:53 P:24 SP:f9 CYC:14932
c6c1  64 a9      NOP $a9     A:55 X:00 Y:53 P:24 SP:f9 CYC:14935
c6c3  ea         NOP         A:55 X:00 Y:53 P:24 SP:f9 CYC:14938
c6c4  ea         NOP         A:55 X:00 Y:53 P:24 SP:f9 CYC:14940
c6c5  ea         NOP         A:55 X:00 Y:53 P:24 SP:f9 CYC:14942
c6c6  ea         NOP         A:55 X:00 Y:53 P:24 SP:f9 CYC:14944
c6c7  08         PHP         A:55 X:00 Y:53 P:24 SP:f9 CYC:14946
c6c8  48         PHA         A:55 X:00 Y:53 P:24 SP:f8 CYC:14949
c6c9  0c a9 a9   NOP $a9a9   A:55 X:00 Y:53 P:24 SP:f7 CYC:14952
c6cc  ea         NOP         A:55 X:00 Y:53 P:24 SP:f7 CYC:14956
c6cd  ea         NOP         A:55 X:00 Y:53 P:24 SP:f7 CYC:14958
c6ce  ea         NOP         A:55 X:00 Y:53 P:24 SP:f7 CYC:14960
c6cf  ea         NOP         A:55 X:00 Y:53 P:24 SP:f7 CYC:14962
c6d0  08         PHP         A:55 X:00 Y:53 P:24 SP:f7 CYC:14964
c6d1  48         PHA         A:55 X:00 Y:53 P:24 SP:f6 CYC:14967
c6d2  14 a9      NOP $a9,X   A:55 X:00 Y:53 P:24 SP:f5 CYC:14970
c6d4  34 a9      NOP $a9,X   A:55 X:00 Y:53 P:24 SP:f5 CYC:14974
c6d6  54 a9      NOP $a9,X   A:55 X:00 Y:53 P:24 SP:f5 CYC:14978
c6d8  74 a9      NOP $a9,X   A:55 X:00 Y:53 P:24 SP:f5 CYC:14982
c6da  d4 a9      NOP $a9,X   A:55 X:00 Y:53 P:24 SP:f5 CYC:14986
c6dc  f4 a9      NOP $a9,X   A:55 X:00 Y:53 P:24 SP:f5 CYC:14990
c6de  ea         NOP         A:55 X:00 Y:53 P:24 SP:f5 CYC:14994
c6df  ea         NOP         A:55 X:00 Y:53 P:24 SP:f5 CYC:14996
c6e0  ea         NOP         A:55 X:00 Y:53 P:24 SP:f5 CYC:14998
c6e1  ea         NOP         A:55 X:00 Y:53 P:24 SP:f5 CYC:15000
c6e2  08         PHP         A:55 X:00 Y:53 P:24 SP:f5 CYC:15002
c6e3  48         PHA         A:55 X:00 Y:53 P:24 SP:f4 CYC:15005
c6e4  1a         NOP         A:55 X:00 Y:53 P:24 SP:f3 CYC:15008
c6e5  3a         NOP         A:55 X:00 Y:53 P:24 SP:f3 CYC:15010
c6e6  5a         NOP         A:55 X:00 Y:53 P:24 SP:f3 CYC:15012
c6e7  7a         NOP         A:55 X:00 Y:53 P:24 SP:f3 CYC:15014
c6e8  da         NOP         A:55 X:00 Y:53 P:24 SP:f3 CYC:15016
c6e9  fa         NOP         A:55 X:00 Y:53 P:24 SP:f3 CYC:15018
c6ea  80 89      NOP #$89    A:55 X:00 Y:53 P:24 SP:f3 CYC:15020
c6ec  ea         NOP         A:55 X:00 Y:53 P:24 SP:f3 CYC:15022
c6ed  ea         NOP         A:55 X:00 Y:53 P:24 SP:f3 CYC:15024
c6ee  ea         NOP         A:55 X:00 Y:53 P:24 SP:f3 CYC:15026
c6ef  ea         NOP         A:55 X:00 Y:53 P:24 SP:f3 CYC:15028
c6f0  08         PHP         A:55 X:00 Y:53 P:24 SP:f3 CYC:15030
c6f1  48         PHA         A:55 X:00 Y:53 P:24 SP:f2 CYC:15033
c6f2  1c a9 a9   NOP $a9a9,X A:55 X:00 Y:53 P:24 SP:f1 CYC:15036
c6f5  3c a9 a9   NOP $a9a9,X A:55 X:00 Y:53 P:24 SP:f1 CYC:15040
c6f8  5c a9 a9   NOP $a9a9,X A:55 X:00 Y:53 P:24 SP:f1 CYC:15044
c6fb  7c a9 a9   NOP $a9a9,X A:55 X:00 Y:53 P:24 SP:f1 CYC:15048
c6fe  dc a9 a9   NOP $a9a9,X A:55 X:00 Y:53 P:24 SP:f1 CYC:15052
c701  fc a9 a9   NOP $a9a9,X A:55 X:00 Y:53 P:24 SP:f1 CYC:15056
c704  ea         NOP         A:55 X:00 Y:53 P:24 SP:f1 CYC:15060
c705  ea         NOP         A:55 X:00 Y:53 P:24 SP:f1 CYC:15062
c706  ea         NOP         A:55 X:00 Y:53 P:24 SP:f1 CYC:15064
c707  ea         NOP         A:55 X:00 Y:53 P:24 SP:f1 CYC:15066
c708  08         PHP         A:55 X:00 Y:53 P:24 SP:f1 CYC:15068
c709  48         PHA         A:55 X:00 Y:53 P:24 SP:f0 CYC:15071
c70a  a2 05      LDX #$05    A:55 X:00 Y:53 P:24 SP:ef CYC:15074
c70c  68         PLA         A:55 X:05 Y:53 P:24 SP:ef CYC:15076
c70d  c9 55      CMP #$55    A:55 X:05 Y:53 P:24 SP:f0 CYC:15080
c70f  f0 0a      BEQ $c71b   A:55 X:05 Y:53 P:27 SP:f0 CYC:15082
c71b  68         PLA         A:55 X:05 Y:53 P:27 SP:f0 CYC:15085
c71c  29 cb      AND #$cb    A:34 X:05 Y:53 P:25 SP:f1 CYC:15089
c71e  c9 00      CMP #$00    A:00 X:05 Y:53 P:27 SP:f1 CYC:15091
c720  f0 06      BEQ $c728   A:00 X:05 Y:53 P:27 SP:f1 CYC:15093
c728  c8         INY         A:00 X:05 Y:53 P:27 SP:f1 CYC:15096
c729  ca         DEX         A:00 X:05 Y:54 P:25 SP:f1 CYC:15098
c72a  d0 e0      BNE $c70c   A:00 X:04 Y:54 P:25 SP:f1 CYC:15100
c70c  68         PLA         A:00 X:04 Y:54 P:25 SP:f1 CYC:15103
c70d  c9 55      CMP #$55    A:55 X:04 Y:54 P:25 SP:f2 CYC:15107
c70f  f0 0a      BEQ $c71b   A:55 X:04 Y:54 P:27 SP:f2 CYC:15109
c71b  68         PLA         A:55 X:04 Y:54 P:27 SP:f2 CYC:15112
c71c  29 cb      AND #$cb    A:34 X:04 Y:54 P:25 SP:f3 CYC:15116
c71e  c9 00      CMP #$00    A:00 X:04 Y:54 P:27 SP:f3 CYC:15118
c720  f0 06      BEQ $c728   A:00 X:04 Y:54 P:27 SP:f3 CYC:15120
c728  c8         INY         A:00 X:04 Y:54 P:27 SP:f3 CYC:15123
c729  ca         DEX         A:00 X:04 Y:55 P:25 SP:f3 CYC:15125
c72a  d0 e0      BNE $c70c   A:00 X:03 Y:55 P:25 SP:f3 CYC:15127
c70c  68         PLA         A:00 X:03 Y:55 P:25 SP:f3 CYC:15130
c70d  c9 55      CMP #$55    A:55 X:03 Y:55 P:25 SP:f4 CYC:15134
c70f  f0 0a      BEQ $c71b   A:55 X:03 Y:55 P:27 SP:f4 CYC:15136
c71b  68         PLA         A:55 X:03 Y:55 P:27 SP:f4 CYC:15139
c71c  29 cb      AND #$cb    A:34 X:03 Y:55 P:25 SP:f5 CYC:15143
c71e  c9 00      CMP #$00    A:00 X:03 Y:55 P:27 SP:f5 CYC:15145
c720  f0 06      BEQ $c728   A:00 X:03 Y:55 P:27 SP:f5 CYC:15147
c728  c8         INY         A:00 X:03 Y:55 P:27 SP:f5 CYC:15150
c729  ca         DEX         A:00 X:03 Y:56 P:25 SP:f5 CYC:15152
c72a  d0 e0      BNE $c70c   A:00 X:02 Y:56 P:25 SP:f5 CYC:15154
c70c  68         PLA         A:00 X:02 Y:56 P:25 SP:f5 CYC:15157
c70d  c9 55      CMP #$55    A:55 X:02 Y:56 P:25 SP:f6 CYC:15161
c70f  f0 0a      BEQ $c71b   A:55 X:02 Y:56 P:27 SP:f6 CYC:15163
c71b  68         PLA         A:55 X:02 Y:56 P:27 SP:f6 CYC:15166
c71c  29 cb      AND #$cb    A:34 X:02 Y:56 P:25 SP:f7 CYC:15170
c71e  c9 00      CMP #$00    A:00 X:02 Y:56 P:27 SP:f7 CYC:15172
c720  f0 06      BEQ $c728   A:00 X:02 Y:56 P:27 SP:f7 CYC:15174
c728  c8         INY         A:00 X:02 Y:56 P:27 SP:f7 CYC:15177
c729  ca         DEX         A:00 X:02 Y:57 P:25 SP:f7 CYC:15179
c72a  d0 e0      BNE $c70c   A:00 X:01 Y:57 P:25 SP:f7 CYC:15181
c70c  68         PLA         A:00 X:01 Y:57 P:25 SP:f7 CYC:15184
c70d  c9 55      CMP #$55    A:55 X:01 Y:57 P:25 SP:f8 CYC:15188
c70f  f0 0a      BEQ $c71b   A:55 X:01 Y:57 P:27 SP:f8 CYC:15190
c71b  68         PLA         A:55 X:01 Y:57 P:27 SP:f8 CYC:15193
c71c  29 cb      AND #$cb    A:34 X:01 Y:57 P:25 SP:f9 CYC:15197
c71e  c9 00      CMP #$00    A:00 X:01 Y:57 P:27 SP:f9 CYC:15199
c720  f0 06      BEQ $c728   A:00 X:01 Y:57 P:27 SP:f9 CYC:15201
c728  c8         INY         A:00 X:01 Y:57 P:27 SP:f9 CYC:15204
c729  ca         DEX         A:00 X:01 Y:58 P:25 SP:f9 CYC:15206
c72a  d0 e0      BNE $c70c   A:00 X:00 Y:58 P:27 SP:f9 CYC:15208
c72c  60         RTS         A:00 X:00 Y:58 P:27 SP:f9 CYC:15210
c6af  60         RTS         A:00 X:00 Y:58 P:27 SP:fb CYC:15216
c632  20 1e e5   JSR $e51e   A:00 X:00 Y:58 P:27 SP:fd CYC:15222
e51e  a9 55      LDA #$55    A:00 X:00 Y:58 P:27 SP:fb CYC:15228
e520  8d 80 05   STA $0580   A:55 X:00 Y:58 P:25 SP:fb CYC:15230
e523  a9 aa      LDA #$aa    A:55 X:00 Y:58 P:25 SP:fb CYC:15234
e525  8d 32 04   STA $0432   A:aa X:00 Y:58 P:a5 SP:fb CYC:15236
e528  a9 80      LDA #$80    A:aa X:00 Y:58 P:a5 SP:fb CYC:15240
e52a  85 43      STA $43     A:80 X:00 Y:58 P:a5 SP:fb CYC:15242
e52c  a9 05      LDA #$05    A:80 X:00 Y:58 P:a5 SP:fb CYC:15245
e52e  85 44      STA $44     A:05 X:00 Y:58 P:25 SP:fb CYC:15247
e530  a9 32      LDA #$32    A:05 X:00 Y:58 P:25 SP:fb CYC:15250
e532  85 45      STA $45     A:32 X:00 Y:58 P:25 SP:fb CYC:15252
e534  a9 04      LDA #$04    A:32 X:00 Y:58 P:25 SP:fb CYC:15255
e536  85 46      STA $46     A:04 X:00 Y:58 P:25 SP:fb CYC:15257
e538  a2 03      LDX #$03    A:04 X:00 Y:58 P:25 SP:fb CYC:15260
e53a  a0 77      LDY #$77    A:04 X:03 Y:58 P:25 SP:fb CYC:15262
e53c  a9 ff      LDA #$ff    A:04 X:03 Y:77 P:25 SP:fb CYC:15264
e53e  85 01      STA $01     A:ff X:03 Y:77 P:a5 SP:fb CYC:15266
e540  24 01      BIT $01     A:ff X:03 Y:77 P:a5 SP:fb CYC:15269
e542  38         SEC         A:ff X:03 Y:77 P:e5 SP:fb CYC:15272
e543  a9 00      LDA #$00    A:ff X:03 Y:77 P:e5 SP:fb CYC:15274
e545  a3 40      LAX ($40,X) A:00 X:03 Y:77 P:67 SP:fb CYC:15276
e547  ea         NOP         A:55 X:55 Y:77 P:65 SP:fb CYC:15282
e548  ea         NOP         A:55 X:55 Y:77 P:65 SP:fb CYC:15284
e549  ea         NOP         A:55 X:55 Y:77 P:65 SP:fb CYC:15286
e54a  ea         NOP         A:55 X:55 Y:77 P:65 SP:fb CYC:15288
e54b  f0 12      BEQ $e55f   A:55 X:55 Y:77 P:65 SP:fb CYC:15290
e54d  30 10      BMI $e55f   A:55 X:55 Y:77 P:65 SP:fb CYC:15292
e54f  50 0e      BVC $e55f   A:55 X:55 Y:77 P:65 SP:fb CYC:15294
e551  90 0c      BCC $e55f   A:55 X:55 Y:77 P:65 SP:fb CYC:15296
e553  c9 55      CMP #$55    A:55 X:55 Y:77 P:65 SP:fb CYC:15298
e555  d0 08      BNE $e55f   A:55 X:55 Y:77 P:67 SP:fb CYC:15300
e557  e0 55      CPX #$55    A:55 X:55 Y:77 P:67 SP:fb CYC:15302
e559  d0 04      BNE $e55f   A:55 X:55 Y:77 P:67 SP:fb CYC:15304
e55b  c0 77      CPY #$77    A:55 X:55 Y:77 P:67 SP:fb CYC:15306
e55d  f0 04      BEQ $e563   A:55 X:55 Y:77 P:67 SP:fb CYC:15308
e563  a2 05      LDX #$05    A:55 X:55 Y:77 P:67 SP:fb CYC:15311
e565  a0 33      LDY #$33    A:55 X:05 Y:77 P:65 SP:fb CYC:15313
e567  b8         CLV         A:55 X:05 Y:33 P:65 SP:fb CYC:15315
e568  18         CLC         A:55 X:05 Y:33 P:25 SP:fb CYC:15317
e569  a9 00      LDA #$00    A:55 X:05 Y:33 P:24 SP:fb CYC:15319
e56b  a3 40      LAX ($40,X) A:00 X:05 Y:33 P:26 SP:fb CYC:15321
e56d  ea         NOP         A:aa X:aa Y:33 P:a4 SP:fb CYC:15327
e56e  ea         NOP         A:aa X:aa Y:33 P:a4 SP:fb CYC:15329
e56f  ea         NOP         A:aa X:aa Y:33 P:a4 SP:fb CYC:15331
e570  ea         NOP         A:aa X:aa Y:33 P:a4 SP:fb CYC:15333
e571  f0 12      BEQ $e585   A:aa X:aa Y:33 P:a4 SP:fb CYC:15335
e573  10 10      BPL $e585   A:aa X:aa Y:33 P:a4 SP:fb CYC:15337
e575  70 0e      BVS $e585   A:aa X:aa Y:33 P:a4 SP:fb CYC:15339
e577  b0 0c      BCS $e585   A:aa X:aa Y:33 P:a4 SP:fb CYC:15341
e579  c9 aa      CMP #$aa    A:aa X:aa Y:33 P:a4 SP:fb CYC:15343
e57b  d0 08      BNE $e585   A:aa X:aa Y:33 P:27 SP:fb CYC:15345
e57d  e0 aa      CPX #$aa    A:aa X:aa Y:33 P:27 SP:fb CYC:15347
e57f  d0 04      BNE $e585   A:aa X:aa Y:33 P:27 SP:fb CYC:15349
e581  c0 33      CPY #$33    A:aa X:aa Y:33 P:27 SP:fb CYC:15351
e583  f0 04      BEQ $e589   A:aa X:aa Y:33 P:27 SP:fb CYC:15353
e589  a9 87      LDA #$87    A:aa X:aa Y:33 P:27 SP:fb CYC:15356
e58b  85 67      STA $67     A:87 X:aa Y:33 P:a5 SP:fb CYC:15358
e58d  a9 32      LDA #$32    A:87 X:aa Y:33 P:a5 SP:fb CYC:15361
e58f  85 68      STA $68     A:32 X:aa Y:33 P:25 SP:fb CYC:15363
e591  a0 57      LDY #$57    A:32 X:aa Y:33 P:25 SP:fb CYC:15366
e593  24 01      BIT $01     A:32 X:aa Y:57 P:25 SP:fb CYC:15368
e595  38         SEC         A:32 X:aa Y:57 P:e5 SP:fb CYC:15371
e596  a9 00      LDA #$00    A:32 X:aa Y:57 P:e5 SP:fb CYC:15373
e598  a7 67      LAX $67     A:00 X:aa Y:57 P:67 SP:fb CYC:15375
e59a  ea         NOP         A:87 X:87 Y:57 P:e5 SP:fb CYC:15378
e59b  ea         NOP         A:87 X:87 Y:57 P:e5 SP:fb CYC:15380
e59c  ea         NOP         A:87 X:87 Y:57 P:e5 SP:fb CYC:15382
e59d  ea         NOP         A:87 X:87 Y:57 P:e5 SP:fb CYC:15384
e59e  f0 12      BEQ $e5b2   A:87 X:87 Y:57 P:e5 SP:fb CYC:15386
e5a0  10 10      BPL $e5b2   A:87 X:87 Y:57 P:e5 SP:fb CYC:15388
e5a2  50 0e      BVC $e5b2   A:87 X:87 Y:57 P:e5 SP:fb CYC:15390
e5a4  90 0c      BCC $e5b2   A:87 X:87 Y:57 P:e5 SP:fb CYC:15392
e5a6  c9 87      CMP #$87    A:87 X:87 Y:57 P:e5 SP:fb CYC:15394
e5a8  d0 08      BNE $e5b2   A:87 X:87 Y:57 P:67 SP:fb CYC:15396
e5aa  e0 87      CPX #$87    A:87 X:87 Y:57 P:67 SP:fb CYC:15398
e5ac  d0 04      BNE $e5b2   A:87 X:87 Y:57 P:67 SP:fb CYC:15400
e5ae  c0 57      CPY #$57    A:87 X:87 Y:57 P:67 SP:fb CYC:15402
e5b0  f0 04      BEQ $e5b6   A:87 X:87 Y:57 P:67 SP:fb CYC:15404
e5b6  a0 53      LDY #$53    A:87 X:87 Y:57 P:67 SP:fb CYC:15407
e5b8  b8         CLV         A:87 X:87 Y:53 P:65 SP:fb CYC:15409
e5b9  18         CLC         A:87 X:87 Y:53 P:25 SP:fb CYC:15411
e5ba  a9 00      LDA #$00    A:87 X:87 Y:53 P:24 SP:fb CYC:15413
e5bc  a7 68      LAX $68     A:00 X:87 Y:53 P:26 SP:fb CYC:15415
e5be  ea         NOP         A:32 X:32 Y:53 P:24 SP:fb CYC:15418
e5bf  ea         NOP         A:32 X:32 Y:53 P:24 SP:fb CYC:15420
e5c0  ea         NOP         A:32 X:32 Y:53 P:24 SP:fb CYC:15422
e5c1  ea         NOP         A:32 X:32 Y:53 P:24 SP:fb CYC:15424
e5c2  f0 12      BEQ $e5d6   A:32 X:32 Y:53 P:24 SP:fb CYC:15426
e5c4  30 10      BMI $e5d6   A:32 X:32 Y:53 P:24 SP:fb CYC:15428
e5c6  70 0e      BVS $e5d6   A:32 X:32 Y:53 P:24 SP:fb CYC:15430
e5c8  b0 0c      BCS $e5d6   A:32 X:32 Y:53 P:24 SP:fb CYC:15432
e5ca  c9 32      CMP #$32    A:32 X:32 Y:53 P:24 SP:fb CYC:15434
e5cc  d0 08      BNE $e5d6   A:32 X:32 Y:53 P:27 SP:fb CYC:15436
e5ce  e0 32      CPX #$32    A:32 X:32 Y:53 P:27 SP:fb CYC:15438
e5d0  d0 04      BNE $e5d6   A:32 X:32 Y:53 P:27 SP:fb CYC:15440
e5d2  c0 53      CPY #$53    A:32 X:32 Y:53 P:27 SP:fb CYC:15442
e5d4  f0 04      BEQ $e5da   A:32 X:32 Y:53 P:27 SP:fb CYC:15444
e5da  a9 87      LDA #$87    A:32 X:32 Y:53 P:27 SP:fb CYC:15447
e5dc  8d 77 05   STA $0577   A:87 X:32 Y:53 P:a5 SP:fb CYC:15449
e5df  a9 32      LDA #$32    A:87 X:32 Y:53 P:a5 SP:fb CYC:15453
e5e1  8d 78 05   STA $0578   A:32 X:32 Y:53 P:25 SP:fb CYC:15455
e5e4  a0 57      LDY #$57    A:32 X:32 Y:53 P:25 SP:fb CYC:15459
e5e6  24 01      BIT $01     A:32 X:32 Y:57 P:25 SP:fb CYC:15461
e5e8  38         SEC         A:32 X:32 Y:57 P:e5 SP:fb CYC:15464
e5e9  a9 00      LDA #$00    A:32 X:32 Y:57 P:e5 SP:fb CYC:15466
e5eb  af 77 05   LAX $0577   A:00 X:32 Y:57 P:67 SP:fb CYC:15468
e5ee  ea         NOP         A:87 X:87 Y:57 P:e5 SP:fb CYC:15472
e5ef  ea         NOP         A:87 X:87 Y:57 P:e5 SP:fb CYC:15474
e5f0  ea         NOP         A:87 X:87 Y:57 P:e5 SP:fb CYC:15476
e5f1  ea         NOP         A:87 X:87 Y:57 P:e5 SP:fb CYC:15478
e5f2  f0 12      BEQ $e606   A:87 X:87 Y:57 P:e5 SP:fb CYC:15480
e5f4  10 10      BPL $e606   A:87 X:87 Y:57 P:e5 SP:fb CYC:15482
e5f6  50 0e      BVC $e606   A:87 X:87 Y:57 P:e5 SP:fb CYC:15484
e5f8  90 0c      BCC $e606   A:87 X:87 Y:57 P:e5 SP:fb CYC:15486
e5fa  c9 87      CMP #$87    A:87 X:87 Y:57 P:e5 SP:fb CYC:15488
e5fc  d0 08      BNE $e606   A:87 X:87 Y:57 P:67 SP:fb CYC:15490
e5fe  e0 87      CPX #$87    A:87 X:87 Y:57 P:67 SP:fb CYC:15492
e600  d0 04      BNE $e606   A:87 X:87 Y:57 P:67 SP:fb CYC:15494
e602  c0 57      CPY #$57    A:87 X:87 Y:57 P:67 SP:fb CYC:15496
e604  f0 04      BEQ $e60a   A:87 X:87 Y:57 P:67 SP:fb CYC:15498
e60a  a0 53      LDY #$53    A:87 X:87 Y:57 P:67 SP:fb CYC:15501
e60c  b8         CLV         A:87 X:87 Y:53 P:65 SP:fb CYC:15503
e60d  18         CLC         A:87 X:87 Y:53 P:25 SP:fb CYC:15505
e60e  a9 00      LDA #$00    A:87 X:87 Y:53 P:24 SP:fb CYC:15507
e610  af 78 05   LAX $0578   A:00 X:87 Y:53 P:26 SP:fb CYC:15509
e613  ea         NOP         A:32 X:32 Y:53 P:24 SP:fb CYC:15513
e614  ea         NOP         A:32 X:32 Y:53 P:24 SP:fb CYC:15515
e615  ea         NOP         A:32 X:32 Y:53 P:24 SP:fb CYC:15517
e616  ea         NOP         A:32 X:32 Y:53 P:24 SP:fb CYC:15519
e617  f0 12      BEQ $e62b   A:32 X:32 Y:53 P:24 SP:fb CYC:15521
e619  30 10      BMI $e62b   A:32 X:32 Y:53 P:24 SP:fb CYC:15523
e61b  70 0e      BVS $e62b   A:32 X:32 Y:53 P:24 SP:fb CYC:15525
e61d  b0 0c      BCS $e62b   A:32 X:32 Y:53 P:24 SP:fb CYC:15527
e61f  c9 32      CMP #$32    A:32 X:32 Y:53 P:24 SP:fb CYC:15529
e621  d0 08      BNE $e62b   A:32 X:32 Y:53 P:27 SP:fb CYC:15531
e623  e0 32      CPX #$32    A:32 X:32 Y:53 P:27 SP:fb CYC:15533
e625  d0 04      BNE $e62b   A:32 X:32 Y:53 P:27 SP:fb CYC:15535
e627  c0 53      CPY #$53    A:32 X:32 Y:53 P:27 SP:fb CYC:15537
e629  f0 04      BEQ $e62f   A:32 X:32 Y:53 P:27 SP:fb CYC:15539
e62f  a9 ff      LDA #$ff    A:32 X:32 Y:53 P:27 SP:fb CYC:15542
e631  85 43      STA $43     A:ff X:32 Y:53 P:a5 SP:fb CYC:15544
e633  a9 04      LDA #$04    A:ff X:32 Y:53 P:a5 SP:fb CYC:15547
e635  85 44      STA $44     A:04 X:32 Y:53 P:25 SP:fb CYC:15549
e637  a9 32      LDA #$32    A:04 X:32 Y:53 P:25 SP:fb CYC:15552
e639  85 45      STA $45     A:32 X:32 Y:53 P:25 SP:fb CYC:15554
e63b  a9 04      LDA #$04    A:32 X:32 Y:53 P:25 SP:fb CYC:15557
e63d  85 46      STA $46     A:04 X:32 Y:53 P:25 SP:fb CYC:15559
e63f  a9 55      LDA #$55    A:04 X:32 Y:53 P:25 SP:fb CYC:15562
e641  8d 80 05   STA $0580   A:55 X:32 Y:53 P:25 SP:fb CYC:15564
e644  a9 aa      LDA #$aa    A:55 X:32 Y:53 P:25 SP:fb CYC:15568
e646  8d 32 04   STA $0432   A:aa X:32 Y:53 P:a5 SP:fb CYC:15570
e649  a2 03      LDX #$03    A:aa X:32 Y:53 P:a5 SP:fb CYC:15574
e64b  a0 81      LDY #$81    A:aa X:03 Y:53 P:25 SP:fb CYC:15576
e64d  24 01      BIT $01     A:aa X:03 Y:81 P:a5 SP:fb CYC:15578
e64f  38         SEC         A:aa X:03 Y:81 P:e5 SP:fb CYC:15581
e650  a9 00      LDA #$00    A:aa X:03 Y:81 P:e5 SP:fb CYC:15583
e652  b3 43      LAX ($43),Y A:00 X:03 Y:81 P:67 SP:fb CYC:15585
e654  ea         NOP         A:55 X:55 Y:81 P:65 SP:fb CYC:15591
e655  ea         NOP         A:55 X:55 Y:81 P:65 SP:fb CYC:15593
e656  ea         NOP         A:55 X:55 Y:81 P:65 SP:fb CYC:15595
e657  ea         NOP         A:55 X:55 Y:81 P:65 SP:fb CYC:15597
e658  f0 12      BEQ $e66c   A:55 X:55 Y:81 P:65 SP:fb CYC:15599
e65a  30 10      BMI $e66c   A:55 X:55 Y:81 P:65 SP:fb CYC:15601
e65c  50 0e      BVC $e66c   A:55 X:55 Y:81 P:65 SP:fb CYC:15603
e65e  90 0c      BCC $e66c   A:55 X:55 Y:81 P:65 SP:fb CYC:15605
e660  c9 55      CMP #$55    A:55 X:55 Y:81 P:65 SP:fb CYC:15607
e662  d0 08      BNE $e66c   A:55 X:55 Y:81 P:67 SP:fb CYC:15609
e664  e0 55      CPX #$55    A:55 X:55 Y:81 P:67 SP:fb CYC:15611
e666  d0 04      BNE $e66c   A:55 X:55 Y:81 P:67 SP:fb CYC:15613
e668  c0 81      CPY #$81    A:55 X:55 Y:81 P:67 SP:fb CYC:15615
e66a  f0 04      BEQ $e670   A:55 X:55 Y:81 P:67 SP:fb CYC:15617
e670  a2 05      LDX #$05    A:55 X:55 Y:81 P:67 SP:fb CYC:15620
e672  a0 00      LDY #$00    A:55 X:05 Y:81 P:65 SP:fb CYC:15622
e674  b8         CLV         A:55 X:05 Y:00 P:67 SP:fb CYC:15624
e675  18         CLC         A:55 X:05 Y:00 P:27 SP:fb CYC:15626
e676  a9 00      LDA #$00    A:55 X:05 Y:00 P:26 SP:fb CYC:15628
e678  b3 45      LAX ($45),Y A:00 X:05 Y:00 P:26 SP:fb CYC:15630
e67a  ea         NOP         A:aa X:aa Y:00 P:a4 SP:fb CYC:15635
e67b  ea         NOP         A:aa X:aa Y:00 P:a4 SP:fb CYC:15637
e67c  ea         NOP         A:aa X:aa Y:00 P:a4 SP:fb CYC:15639
e67d  ea         NOP         A:aa X:aa Y:00 P:a4 SP:fb CYC:15641
e67e  f0 12      BEQ $e692   A:aa X:aa Y:00 P:a4 SP:fb CYC:15643
e680  10 10      BPL $e692   A:aa X:aa Y:00 P:a4 SP:fb CYC:15645
e682  70 0e      BVS $e692   A:aa X:aa Y:00 P:a4 SP:fb CYC:15647
e684  b0 0c      BCS $e692   A:aa X:aa Y:00 P:a4 SP:fb CYC:15649
e686  c9 aa      CMP #$aa    A:aa X:aa Y:00 P:a4 SP:fb CYC:15651
e688  d0 08      BNE $e692   A:aa X:aa Y:00 P:27 SP:fb CYC:15653
e68a  e0 aa      CPX #$aa    A:aa X:aa Y:00 P:27 SP:fb CYC:15655
e68c  d0 04      BNE $e692   A:aa X:aa Y:00 P:27 SP:fb CYC:15657
e68e  c0 00      CPY #$00    A:aa X:aa Y:00 P:27 SP:fb CYC:15659
e690  f0 04      BEQ $e696   A:aa X:aa Y:00 P:27 SP:fb CYC:15661
e696  a9 87      LDA #$87    A:aa X:aa Y:00 P:27 SP:fb CYC:15664
e698  85 67      STA $67     A:87 X:aa Y:00 P:a5 SP:fb CYC:15666
e69a  a9 32      LDA #$32    A:87 X:aa Y:00 P:a5 SP:fb CYC:15669
e69c  85 68      STA $68     A:32 X:aa Y:00 P:25 SP:fb CYC:15671
e69e  a0 57      LDY #$57    A:32 X:aa Y:00 P:25 SP:fb CYC:15674
e6a0  24 01      BIT $01     A:32 X:aa Y:57 P:25 SP:fb CYC:15676
e6a2  38         SEC         A:32 X:aa Y:57 P:e5 SP:fb CYC:15679
e6a3  a9 00      LDA #$00    A:32 X:aa Y:57 P:e5 SP:fb CYC:15681
e6a5  b7 10      LAX $10,Y   A:00 X:aa Y:57 P:67 SP:fb CYC:15683
e6a7  ea         NOP         A:87 X:87 Y:57 P:e5 SP:fb CYC:15687
e6a8  ea         NOP         A:87 X:87 Y:57 P:e5 SP:fb CYC:15689
e6a9  ea         NOP         A:87 X:87 Y:57 P:e5 SP:fb CYC:15691
e6aa  ea         NOP         A:87 X:87 Y:57 P:e5 SP:fb CYC:15693
e6ab  f0 12      BEQ $e6bf   A:87 X:87 Y:57 P:e5 SP:fb CYC:15695
e6ad  10 10      BPL $e6bf   A:87 X:87 Y:57 P:e5 SP:fb CYC:15697
e6af  50 0e      BVC $e6bf   A:87 X:87 Y:57 P:e5 SP:fb CYC:15699
e6b1  90 0c      BCC $e6bf   A:87 X:87 Y:57 P:e5 SP:fb CYC:15701
e6b3  c9 87      CMP #$87    A:87 X:87 Y:57 P:e5 SP:fb CYC:15703
e6b5  d0 08      BNE $e6bf   A:87 X:87 Y:57 P:67 SP:fb CYC:15705
e6b7  e0 87      CPX #$87    A:87 X:87 Y:57 P:67 SP:fb CYC:15707
e6b9  d0 04      BNE $e6bf   A:87 X:87 Y:57 P:67 SP:fb CYC:15709
e6bb  c0 57      CPY #$57    A:87 X:87 Y:57 P:67 SP:fb CYC:15711
e6bd  f0 04      BEQ $e6c3   A:87 X:87 Y:57 P:67 SP:fb CYC:15713
e6c3  a0 ff      LDY #$ff    A:87 X:87 Y:57 P:67 SP:fb CYC:15716
e6c5  b8         CLV         A:87 X:87 Y:ff P:e5 SP:fb CYC:15718
e6c6  18         CLC         A:87 X:87 Y:ff P:a5 SP:fb CYC:15720
e6c7  a9 00      LDA #$00    A:87 X:87 Y:ff P:a4 SP:fb CYC:15722
e6c9  b7 69      LAX $69,Y   A:00 X:87 Y:ff P:26 SP:fb CYC:15724
e6cb  ea         NOP         A:32 X:32 Y:ff P:24 SP:fb CYC:15728
e6cc  ea         NOP         A:32 X:32 Y:ff P:24 SP:fb CYC:15730
e6cd  ea         NOP         A:32 X:32 Y:ff P:24 SP:fb CYC:15732
e6ce  ea         NOP         A:32 X:32 Y:ff P:24 SP:fb CYC:15734
e6cf  f0 12      BEQ $e6e3   A:32 X:32 Y:ff P:24 SP:fb CYC:15736
e6d1  30 10      BMI $e6e3   A:32 X:32 Y:ff P:24 SP:fb CYC:15738
e6d3  70 0e      BVS $e6e3   A:32 X:32 Y:ff P:24 SP:fb CYC:15740
e6d5  b0 0c      BCS $e6e3   A:32 X:32 Y:ff P:24 SP:fb CYC:15742
e6d7  c9 32      CMP #$32    A:32 X:32 Y:ff P:24 SP:fb CYC:15744
e6d9  d0 08      BNE $e6e3   A:32 X:32 Y:ff P:27 SP:fb CYC:15746
e6db  e0 32      CPX #$32    A:32 X:32 Y:ff P:27 SP:fb CYC:15748
e6dd  d0 04      BNE $e6e3   A:32 X:32 Y:ff P:27 SP:fb CYC:15750
e6df  c0 ff      CPY #$ff    A:32 X:32 Y:ff P:27 SP:fb CYC:15752
e6e1  f0 04      BEQ $e6e7   A:32 X:32 Y:ff P:27 SP:fb CYC:15754
e6e7  a9 87      LDA #$87    A:32 X:32 Y:ff P:27 SP:fb CYC:15757
e6e9  8d 87 05   STA $0587   A:87 X:32 Y:ff P:a5 SP:fb CYC:15759
e6ec  a9 32      LDA #$32    A:87 X:32 Y:ff P:a5 SP:fb CYC:15763
e6ee  8d 88 05   STA $0588   A:32 X:32 Y:ff P:25 SP:fb CYC:15765
e6f1  a0 30      LDY #$30    A:32 X:32 Y:ff P:25 SP:fb CYC:15769
e6f3  24 01      BIT $01     A:32 X:32 Y:30 P:25 SP:fb CYC:15771
e6f5  38         SEC         A:32 X:32 Y:30 P:e5 SP:fb CYC:15774
e6f6  a9 00      LDA #$00    A:32 X:32 Y:30 P:e5 SP:fb CYC:15776
e6f8  bf 57 05   LAX $0557,Y A:00 X:32 Y:30 P:67 SP:fb CYC:15778
e6fb  ea         NOP         A:87 X:87 Y:30 P:e5 SP:fb CYC:15782
e6fc  ea         NOP         A:87 X:87 Y:30 P:e5 SP:fb CYC:15784
e6fd  ea         NOP         A:87 X:87 Y:30 P:e5 SP:fb CYC:15786
e6fe  ea         NOP         A:87 X:87 Y:30 P:e5 SP:fb CYC:15788
e6ff  f0 12      BEQ $e713   A:87 X:87 Y:30 P:e5 SP:fb CYC:15790
e701  10 10      BPL $e713   A:87 X:87 Y:30 P:e5 SP:fb CYC:15792
e703  50 0e      BVC $e713   A:87 X:87 Y:30 P:e5 SP:fb CYC:15794
e705  90 0c      BCC $e713   A:87 X:87 Y:30 P:e5 SP:fb CYC:15796
e707  c9 87      CMP #$87    A:87 X:87 Y:30 P:e5 SP:fb CYC:15798
e709  d0 08      BNE $e713   A:87 X:87 Y:30 P:67 SP:fb CYC:15800
e70b  e0 87      CPX #$87    A:87 X:87 Y:30 P:67 SP:fb CYC:15802
e70d  d0 04      BNE $e713   A:87 X:87 Y:30 P:67 SP:fb CYC:15804
e70f  c0 30      CPY #$30    A:87 X:87 Y:30 P:67 SP:fb CYC:15806
e711  f0 04      BEQ $e717   A:87 X:87 Y:30 P:67 SP:fb CYC:15808
e717  a0 40      LDY #$40    A:87 X:87 Y:30 P:67 SP:fb CYC:15811
e719  b8         CLV         A:87 X:87 Y:40 P:65 SP:fb CYC:15813
e71a  18         CLC         A:87 X:87 Y:40 P:25 SP:fb CYC:15815
e71b  a9 00      LDA #$00    A:87 X:87 Y:40 P:24 SP:fb CYC:15817
e71d  bf 48 05   LAX $0548,Y A:00 X:87 Y:40 P:26 SP:fb CYC:15819
e720  ea         NOP         A:32 X:32 Y:40 P:24 SP:fb CYC:15823
e721  ea         NOP         A:32 X:32 Y:40 P:24 SP:fb CYC:15825
e722  ea         NOP         A:32 X:32 Y:40 P:24 SP:fb CYC:15827
e723  ea         NOP         A:32 X:32 Y:40 P:24 SP:fb CYC:15829
e724  f0 12      BEQ $e738   A:32 X:32 Y:40 P:24 SP:fb CYC:15831
e726  30 10      BMI $e738   A:32 X:32 Y:40 P:24 SP:fb CYC:15833
e728  70 0e      BVS $e738   A:32 X:32 Y:40 P:24 SP:fb CYC:15835
e72a  b0 0c      BCS $e738   A:32 X:32 Y:40 P:24 SP:fb CYC:15837
e72c  c9 32      CMP #$32    A:32 X:32 Y:40 P:24 SP:fb CYC:15839
e72e  d0 08      BNE $e738   A:32 X:32 Y:40 P:27 SP:fb CYC:15841
e730  e0 32      CPX #$32    A:32 X:32 Y:40 P:27 SP:fb CYC:15843
e732  d0 04      BNE $e738   A:32 X:32 Y:40 P:27 SP:fb CYC:15845
e734  c0 40      CPY #$40    A:32 X:32 Y:40 P:27 SP:fb CYC:15847
e736  f0 04      BEQ $e73c   A:32 X:32 Y:40 P:27 SP:fb CYC:15849
e73c  60         RTS         A:32 X:32 Y:40 P:27 SP:fb CYC:15852
c635  20 3d e7   JSR $e73d   A:32 X:32 Y:40 P:27 SP:fd CYC:15858
e73d  a9 c0      LDA #$c0    A:32 X:32 Y:40 P:27 SP:fb CYC:15864
e73f  85 01      STA $01     A:c0 X:32 Y:40 P:a5 SP:fb CYC:15866
e741  a9 00      LDA #$00    A:c0 X:32 Y:40 P:a5 SP:fb CYC:15869
e743  8d 89 04   STA $0489   A:00 X:32 Y:40 P:27 SP:fb CYC:15871
e746  a9 89      LDA #$89    A:00 X:32 Y:40 P:27 SP:fb CYC:15875
e748  85 60      STA $60     A:89 X:32 Y:40 P:a5 SP:fb CYC:15877
e74a  a9 04      LDA #$04    A:89 X:32 Y:40 P:a5 SP:fb CYC:15880
e74c  85 61      STA $61     A:04 X:32 Y:40 P:25 SP:fb CYC:15882
e74e  a0 44      LDY #$44    A:04 X:32 Y:40 P:25 SP:fb CYC:15885
e750  a2 17      LDX #$17    A:04 X:32 Y:44 P:25 SP:fb CYC:15887
e752  a9 3e      LDA #$3e    A:04 X:17 Y:44 P:25 SP:fb CYC:15889
e754  24 01      BIT $01     A:3e X:17 Y:44 P:25 SP:fb CYC:15891
e756  18         CLC         A:3e X:17 Y:44 P:e7 SP:fb CYC:15894
e757  83 49      SAX ($49,X) A:3e X:17 Y:44 P:e6 SP:fb CYC:15896
e759  ea         NOP         A:3e X:17 Y:44 P:e6 SP:fb CYC:15902
e75a  ea         NOP         A:3e X:17 Y:44 P:e6 SP:fb CYC:15904
e75b  ea         NOP         A:3e X:17 Y:44 P:e6 SP:fb CYC:15906
e75c  ea         NOP         A:3e X:17 Y:44 P:e6 SP:fb CYC:15908
e75d  d0 19      BNE $e778   A:3e X:17 Y:44 P:e6 SP:fb CYC:15910
e75f  b0 17      BCS $e778   A:3e X:17 Y:44 P:e6 SP:fb CYC:15912
e761  50 15      BVC $e778   A:3e X:17 Y:44 P:e6 SP:fb CYC:15914
e763  10 13      BPL $e778   A:3e X:17 Y:44 P:e6 SP:fb CYC:15916
e765  c9 3e      CMP #$3e    A:3e X:17 Y:44 P:e6 SP:fb CYC:15918
e767  d0 0f      BNE $e778   A:3e X:17 Y:44 P:67 SP:fb CYC:15920
e769  c0 44      CPY #$44    A:3e X:17 Y:44 P:67 SP:fb CYC:15922
e76b  d0 0b      BNE $e778   A:3e X:17 Y:44 P:67 SP:fb CYC:15924
e76d  e0 17      CPX #$17    A:3e X:17 Y:44 P:67 SP:fb CYC:15926
e76f  d0 07      BNE $e778   A:3e X:17 Y:44 P:67 SP:fb CYC:15928
e771  ad 89 04   LDA $0489   A:3e X:17 Y:44 P:67 SP:fb CYC:15930
e774  c9 16      CMP #$16    A:16 X:17 Y:44 P:65 SP:fb CYC:15934
e776  f0 04      BEQ $e77c   A:16 X:17 Y:44 P:67 SP:fb CYC:15936
e77c  a0 44      LDY #$44    A:16 X:17 Y:44 P:67 SP:fb CYC:15939
e77e  a2 7a      LDX #$7a    A:16 X:17 Y:44 P:65 SP:fb CYC:15941
e780  a9 66      LDA #$66    A:16 X:7a Y:44 P:65 SP:fb CYC:15943
e782  38         SEC         A:66 X:7a Y:44 P:65 SP:fb CYC:15945
e783  b8         CLV         A:66 X:7a Y:44 P:65 SP:fb CYC:15947
e784  83 e6      SAX ($e6,X) A:66 X:7a Y:44 P:25 SP:fb CYC:15949
e786  ea         NOP         A:66 X:7a Y:44 P:25 SP:fb CYC:15955
e787  ea         NOP         A:66 X:7a Y:44 P:25 SP:fb CYC:15957
e788  ea         NOP         A:66 X:7a Y:44 P:25 SP:fb CYC:15959
e789  ea         NOP         A:66 X:7a Y:44 P:25 SP:fb CYC:15961
e78a  f0 19      BEQ $e7a5   A:66 X:7a Y:44 P:25 SP:fb CYC:15963
e78c  90 17      BCC $e7a5   A:66 X:7a Y:44 P:25 SP:fb CYC:15965
e78e  70 15      BVS $e7a5   A:66 X:7a Y:44 P:25 SP:fb CYC:15967
e790  30 13      BMI $e7a5   A:66 X:7a Y:44 P:25 SP:fb CYC:15969
e792  c9 66      CMP #$66    A:66 X:7a Y:44 P:25 SP:fb CYC:15971
e794  d0 0f      BNE $e7a5   A:66 X:7a Y:44 P:27 SP:fb CYC:15973
e796  c0 44      CPY #$44    A:66 X:7a Y:44 P:27 SP:fb CYC:15975
e798  d0 0b      BNE $e7a5   A:66 X:7a Y:44 P:27 SP:fb CYC:15977
e79a  e0 7a      CPX #$7a    A:66 X:7a Y:44 P:27 SP:fb CYC:15979
e79c  d0 07      BNE $e7a5   A:66 X:7a Y:44 P:27 SP:fb CYC:15981
e79e  ad 89 04   LDA $0489   A:66 X:7a Y:44 P:27 SP:fb CYC:15983
e7a1  c9 62      CMP #$62    A:62 X:7a Y:44 P:25 SP:fb CYC:15987
e7a3  f0 04      BEQ $e7a9   A:62 X:7a Y:44 P:27 SP:fb CYC:15989
e7a9  a9 ff      LDA #$ff    A:62 X:7a Y:44 P:27 SP:fb CYC:15992
e7ab  85 49      STA $49     A:ff X:7a Y:44 P:a5 SP:fb CYC:15994
e7ad  a0 44      LDY #$44    A:ff X:7a Y:44 P:a5 SP:fb CYC:15997
e7af  a2 aa      LDX #$aa    A:ff X:7a Y:44 P:25 SP:fb CYC:15999
e7b1  a9 55      LDA #$55    A:ff X:aa Y:44 P:a5 SP:fb CYC:16001
e7b3  24 01      BIT $01     A:55 X:aa Y:44 P:25 SP:fb CYC:16003
e7b5  18         CLC         A:55 X:aa Y:44 P:e5 SP:fb CYC:16006
e7b6  87 49      SAX $49     A:55 X:aa Y:44 P:e4 SP:fb CYC:16008
e7b8  ea         NOP         A:55 X:aa Y:44 P:e4 SP:fb CYC:16011
e7b9  ea         NOP         A:55 X:aa Y:44 P:e4 SP:fb CYC:16013
e7ba  ea         NOP         A:55 X:aa Y:44 P:e4 SP:fb CYC:16015
e7bb  ea         NOP         A:55 X:aa Y:44 P:e4 SP:fb CYC:16017
e7bc  f0 18      BEQ $e7d6   A:55 X:aa Y:44 P:e4 SP:fb CYC:16019
e7be  b0 16      BCS $e7d6   A:55 X:aa Y:44 P:e4 SP:fb CYC:16021
e7c0  50 14      BVC $e7d6   A:55 X:aa Y:44 P:e4 SP:fb CYC:16023
e7c2  10 12      BPL $e7d6   A:55 X:aa Y:44 P:e4 SP:fb CYC:16025
e7c4  c9 55      CMP #$55    A:55 X:aa Y:44 P:e4 SP:fb CYC:16027
e7c6  d0 0e      BNE $e7d6   A:55 X:aa Y:44 P:67 SP:fb CYC:16029
e7c8  c0 44      CPY #$44    A:55 X:aa Y:44 P:67 SP:fb CYC:16031
e7ca  d0 0a      BNE $e7d6   A:55 X:aa Y:44 P:67 SP:fb CYC:16033
e7cc  e0 aa      CPX #$aa    A:55 X:aa Y:44 P:67 SP:fb CYC:16035
e7ce  d0 06      BNE $e7d6   A:55 X:aa Y:44 P:67 SP:fb CYC:16037
e7d0  a5 49      LDA $49     A:55 X:aa Y:44 P:67 SP:fb CYC:16039
e7d2  c9 00      CMP #$00    A:00 X:aa Y:44 P:67 SP:fb CYC:16042
e7d4  f0 04      BEQ $e7da   A:00 X:aa Y:44 P:67 SP:fb CYC:16044
e7da  a9 00      LDA #$00    A:00 X:aa Y:44 P:67 SP:fb CYC:16047
e7dc  85 56      STA $56     A:00 X:aa Y:44 P:67 SP:fb CYC:16049
e7de  a0 58      LDY #$58    A:00 X:aa Y:44 P:67 SP:fb CYC:16052
e7e0  a2 ef      LDX #$ef    A:00 X:aa Y:58 P:65 SP:fb CYC:16054
e7e2  a9 66      LDA #$66    A:00 X:ef Y:58 P:e5 SP:fb CYC:16056
e7e4  38         SEC         A:66 X:ef Y:58 P:65 SP:fb CYC:16058
e7e5  b8         CLV         A:66 X:ef Y:58 P:65 SP:fb CYC:16060
e7e6  87 56      SAX $56     A:66 X:ef Y:58 P:25 SP:fb CYC:16062
e7e8  ea         NOP         A:66 X:ef Y:58 P:25 SP:fb CYC:16065
e7e9  ea         NOP         A:66 X:ef Y:58 P:25 SP:fb CYC:16067
e7ea  ea         NOP         A:66 X:ef Y:58 P:25 SP:fb CYC:16069
e7eb  ea         NOP         A:66 X:ef Y:58 P:25 SP:fb CYC:16071
e7ec  f0 18      BEQ $e806   A:66 X:ef Y:58 P:25 SP:fb CYC:16073
e7ee  90 16      BCC $e806   A:66 X:ef Y:58 P:25 SP:fb CYC:16075
e7f0  70 14      BVS $e806   A:66 X:ef Y:58 P:25 SP:fb CYC:16077
e7f2  30 12      BMI $e806   A:66 X:ef Y:58 P:25 SP:fb CYC:16079
e7f4  c9 66      CMP #$66    A:66 X:ef Y:58 P:25 SP:fb CYC:16081
e7f6  d0 0e      BNE $e806   A:66 X:ef Y:58 P:27 SP:fb CYC:16083
e7f8  c0 58      CPY #$58    A:66 X:ef Y:58 P:27 SP:fb CYC:16085
e7fa  d0 0a      BNE $e806   A:66 X:ef Y:58 P:27 SP:fb CYC:16087
e7fc  e0 ef      CPX #$ef    A:66 X:ef Y:58 P:27 SP:fb CYC:16089
e7fe  d0 06      BNE $e806   A:66 X:ef Y:58 P:27 SP:fb CYC:16091
e800  a5 56      LDA $56     A:66 X:ef Y:58 P:27 SP:fb CYC:16093
e802  c9 66      CMP #$66    A:66 X:ef Y:58 P:25 SP:fb CYC:16096
e804  f0 04      BEQ $e80a   A:66 X:ef Y:58 P:27 SP:fb CYC:16098
e80a  a9 ff      LDA #$ff    A:66 X:ef Y:58 P:27 SP:fb CYC:16101
e80c  8d 49 05   STA $0549   A:ff X:ef Y:58 P:a5 SP:fb CYC:16103
e80f  a0 e5      LDY #$e5    A:ff X:ef Y:58 P:a5 SP:fb CYC:16107
e811  a2 af      LDX #$af    A:ff X:ef Y:e5 P:a5 SP:fb CYC:16109
e813  a9 f5      LDA #$f5    A:ff X:af Y:e5 P:a5 SP:fb CYC:16111
e815  24 01      BIT $01     A:f5 X:af Y:e5 P:a5 SP:fb CYC:16113
e817  18         CLC         A:f5 X:af Y:e5 P:e5 SP:fb CYC:16116
e818  8f 49 05   SAX $0549   A:f5 X:af Y:e5 P:e4 SP:fb CYC:16118
e81b  ea         NOP         A:f5 X:af Y:e5 P:e4 SP:fb CYC:16122
e81c  ea         NOP         A:f5 X:af Y:e5 P:e4 SP:fb CYC:16124
e81d  ea         NOP         A:f5 X:af Y:e5 P:e4 SP:fb CYC:16126
e81e  ea         NOP         A:f5 X:af Y:e5 P:e4 SP:fb CYC:16128
e81f  f0 19      BEQ $e83a   A:f5 X:af Y:e5 P:e4 SP:fb CYC:16130
e821  b0 17      BCS $e83a   A:f5 X:af Y:e5 P:e4 SP:fb CYC:16132
e823  50 15      BVC $e83a   A:f5 X:af Y:e5 P:e4 SP:fb CYC:16134
e825  10 13      BPL $e83a   A:f5 X:af Y:e5 P:e4 SP:fb CYC:16136
e827  c9 f5      CMP #$f5    A:f5 X:af Y:e5 P:e4 SP:fb CYC:16138
e829  d0 0f      BNE $e83a   A:f5 X:af Y:e5 P:67 SP:fb CYC:16140
e82b  c0 e5      CPY #$e5    A:f5 X:af Y:e5 P:67 SP:fb CYC:16142
e82d  d0 0b      BNE $e83a   A:f5 X:af Y:e5 P:67 SP:fb CYC:16144
e82f  e0 af      CPX #$af    A:f5 X:af Y:e5 P:67 SP:fb CYC:16146
e831  d0 07      BNE $e83a   A:f5 X:af Y:e5 P:67 SP:fb CYC:16148
e833  ad 49 05   LDA $0549   A:f5 X:af Y:e5 P:67 SP:fb CYC:16150
e836  c9 a5      CMP #$a5    A:a5 X:af Y:e5 P:e5 SP:fb CYC:16154
e838  f0 04      BEQ $e83e   A:a5 X:af Y:e5 P:67 SP:fb CYC:16156
e83e  a9 00      LDA #$00    A:a5 X:af Y:e5 P:67 SP:fb CYC:16159
e840  8d 56 05   STA $0556   A:00 X:af Y:e5 P:67 SP:fb CYC:16161
e843  a0 58      LDY #$58    A:00 X:af Y:e5 P:67 SP:fb CYC:16165
e845  a2 b3      LDX #$b3    A:00 X:af Y:58 P:65 SP:fb CYC:16167
e847  a9 97      LDA #$97    A:00 X:b3 Y:58 P:e5 SP:fb CYC:16169
e849  38         SEC         A:97 X:b3 Y:58 P:e5 SP:fb CYC:16171
e84a  b8         CLV         A:97 X:b3 Y:58 P:e5 SP:fb CYC:16173
e84b  8f 56 05   SAX $0556   A:97 X:b3 Y:58 P:a5 SP:fb CYC:16175
e84e  ea         NOP         A:97 X:b3 Y:58 P:a5 SP:fb CYC:16179
e84f  ea         NOP         A:97 X:b3 Y:58 P:a5 SP:fb CYC:16181
e850  ea         NOP         A:97 X:b3 Y:58 P:a5 SP:fb CYC:16183
e851  ea         NOP         A:97 X:b3 Y:58 P:a5 SP:fb CYC:16185
e852  f0 19      BEQ $e86d   A:97 X:b3 Y:58 P:a5 SP:fb CYC:16187
e854  90 17      BCC $e86d   A:97 X:b3 Y:58 P:a5 SP:fb CYC:16189
e856  70 15      BVS $e86d   A:97 X:b3 Y:58 P:a5 SP:fb CYC:16191
e858  10 13      BPL $e86d   A:97 X:b3 Y:58 P:a5 SP:fb CYC:16193
e85a  c9 97      CMP #$97    A:97 X:b3 Y:58 P:a5 SP:fb CYC:16195
e85c  d0 0f      BNE $e86d   A:97 X:b3 Y:58 P:27 SP:fb CYC:16197
e85e  c0 58      CPY #$58    A:97 X:b3 Y:58 P:27 SP:fb CYC:16199
e860  d0 0b      BNE $e86d   A:97 X:b3 Y:58 P:27 SP:fb CYC:16201
e862  e0 b3      CPX #$b3    A:97 X:b3 Y:58 P:27 SP:fb CYC:16203
e864  d0 07      BNE $e86d   A:97 X:b3 Y:58 P:27 SP:fb CYC:16205
e866  ad 56 05   LDA $0556   A:97 X:b3 Y:58 P:27 SP:fb CYC:16207
e869  c9 93      CMP #$93    A:93 X:b3 Y:58 P:a5 SP:fb CYC:16211
e86b  f0 04      BEQ $e871   A:93 X:b3 Y:58 P:27 SP:fb CYC:16213
e871  a9 ff      LDA #$ff    A:93 X:b3 Y:58 P:27 SP:fb CYC:16216
e873  85 49      STA $49     A:ff X:b3 Y:58 P:a5 SP:fb CYC:16218
e875  a0 ff      LDY #$ff    A:ff X:b3 Y:58 P:a5 SP:fb CYC:16221
e877  a2 aa      LDX #$aa    A:ff X:b3 Y:ff P:a5 SP:fb CYC:16223
e879  a9 55      LDA #$55    A:ff X:aa Y:ff P:a5 SP:fb CYC:16225
e87b  24 01      BIT $01     A:55 X:aa Y:ff P:25 SP:fb CYC:16227
e87d  18         CLC         A:55 X:aa Y:ff P:e5 SP:fb CYC:16230
e87e  97 4a      SAX $4a,Y   A:55 X:aa Y:ff P:e4 SP:fb CYC:16232
e880  ea         NOP         A:55 X:aa Y:ff P:e4 SP:fb CYC:16236
e881  ea         NOP         A:55 X:aa Y:ff P:e4 SP:fb CYC:16238
e882  ea         NOP         A:55 X:aa Y:ff P:e4 SP:fb CYC:16240
e883  ea         NOP         A:55 X:aa Y:ff P:e4 SP:fb CYC:16242
e884  f0 18      BEQ $e89e   A:55 X:aa Y:ff P:e4 SP:fb CYC:16244
e886  b0 16      BCS $e89e   A:55 X:aa Y:ff P:e4 SP:fb CYC:16246
e888  50 14      BVC $e89e   A:55 X:aa Y:ff P:e4 SP:fb CYC:16248
e88a  10 12      BPL $e89e   A:55 X:aa Y:ff P:e4 SP:fb CYC:16250
e88c  c9 55      CMP #$55    A:55 X:aa Y:ff P:e4 SP:fb CYC:16252
e88e  d0 0e      BNE $e89e   A:55 X:aa Y:ff P:67 SP:fb CYC:16254
e890  c0 ff      CPY #$ff    A:55 X:aa Y:ff P:67 SP:fb CYC:16256
e892  d0 0a      BNE $e89e   A:55 X:aa Y:ff P:67 SP:fb CYC:16258
e894  e0 aa      CPX #$aa    A:55 X:aa Y:ff P:67 SP:fb CYC:16260
e896  d0 06      BNE $e89e   A:55 X:aa Y:ff P:67 SP:fb CYC:16262
e898  a5 49      LDA $49     A:55 X:aa Y:ff P:67 SP:fb CYC:16264
e89a  c9 00      CMP #$00    A:00 X:aa Y:ff P:67 SP:fb CYC:16267
e89c  f0 04      BEQ $e8a2   A:00 X:aa Y:ff P:67 SP:fb CYC:16269
e8a2  a9 00      LDA #$00    A:00 X:aa Y:ff P:67 SP:fb CYC:16272
e8a4  85 56      STA $56     A:00 X:aa Y:ff P:67 SP:fb CYC:16274
e8a6  a0 06      LDY #$06    A:00 X:aa Y:ff P:67 SP:fb CYC:16277
e8a8  a2 ef      LDX #$ef    A:00 X:aa Y:06 P:65 SP:fb CYC:16279
e8aa  a9 66      LDA #$66    A:00 X:ef Y:06 P:e5 SP:fb CYC:16281
e8ac  38         SEC         A:66 X:ef Y:06 P:65 SP:fb CYC:16283
e8ad  b8         CLV         A:66 X:ef Y:06 P:65 SP:fb CYC:16285
e8ae  97 50      SAX $50,Y   A:66 X:ef Y:06 P:25 SP:fb CYC:16287
e8b0  ea         NOP         A:66 X:ef Y:06 P:25 SP:fb CYC:16291
e8b1  ea         NOP         A:66 X:ef Y:06 P:25 SP:fb CYC:16293
e8b2  ea         NOP         A:66 X:ef Y:06 P:25 SP:fb CYC:16295
e8b3  ea         NOP         A:66 X:ef Y:06 P:25 SP:fb CYC:16297
e8b4  f0 18      BEQ $e8ce   A:66 X:ef Y:06 P:25 SP:fb CYC:16299
e8b6  90 16      BCC $e8ce   A:66 X:ef Y:06 P:25 SP:fb CYC:16301
e8b8  70 14      BVS $e8ce   A:66 X:ef Y:06 P:25 SP:fb CYC:16303
e8ba  30 12      BMI $e8ce   A:66 X:ef Y:06 P:25 SP:fb CYC:16305
e8bc  c9 66      CMP #$66    A:66 X:ef Y:06 P:25 SP:fb CYC:16307
e8be  d0 0e      BNE $e8ce   A:66 X:ef Y:06 P:27 SP:fb CYC:16309
e8c0  c0 06      CPY #$06    A:66 X:ef Y:06 P:27 SP:fb CYC:16311
e8c2  d0 0a      BNE $e8ce   A:66 X:ef Y:06 P:27 SP:fb CYC:16313
e8c4  e0 ef      CPX #$ef    A:66 X:ef Y:06 P:27 SP:fb CYC:16315
e8c6  d0 06      BNE $e8ce   A:66 X:ef Y:06 P:27 SP:fb CYC:16317
e8c8  a5 56      LDA $56     A:66 X:ef Y:06 P:27 SP:fb CYC:16319
e8ca  c9 66      CMP #$66    A:66 X:ef Y:06 P:25 SP:fb CYC:16322
e8cc  f0 04      BEQ $e8d2   A:66 X:ef Y:06 P:27 SP:fb CYC:16324
e8d2  60         RTS         A:66 X:ef Y:06 P:27 SP:fb CYC:16327
c638  20 d3 e8   JSR $e8d3   A:66 X:ef Y:06 P:27 SP:fd CYC:16333
e8d3  a0 90      LDY #$90    A:66 X:ef Y:06 P:27 SP:fb CYC:16339
e8d5  20 31 f9   JSR $f931   A:66 X:ef Y:90 P:a5 SP:fb CYC:16341
f931  24 01      BIT $01     A:66 X:ef Y:90 P:a5 SP:f9 CYC:16347
f933  a9 40      LDA #$40    A:66 X:ef Y:90 P:e5 SP:f9 CYC:16350
f935  38         SEC         A:40 X:ef Y:90 P:65 SP:f9 CYC:16352
f936  60         RTS         A:40 X:ef Y:90 P:65 SP:f9 CYC:16354
e8d8  eb 40      SBC #$40    A:40 X:ef Y:90 P:65 SP:fb CYC:16360
e8da  ea         NOP         A:00 X:ef Y:90 P:27 SP:fb CYC:16362
e8db  ea         NOP         A:00 X:ef Y:90 P:27 SP:fb CYC:16364
e8dc  ea         NOP         A:00 X:ef Y:90 P:27 SP:fb CYC:16366
e8dd  ea         NOP         A:00 X:ef Y:90 P:27 SP:fb CYC:16368
e8de  20 37 f9   JSR $f937   A:00 X:ef Y:90 P:27 SP:fb CYC:16370
f937  30 0b      BMI $f944   A:00 X:ef Y:90 P:27 SP:f9 CYC:16376
f939  90 09      BCC $f944   A:00 X:ef Y:90 P:27 SP:f9 CYC:16378
f93b  d0 07      BNE $f944   A:00 X:ef Y:90 P:27 SP:f9 CYC:16380
f93d  70 05      BVS $f944   A:00 X:ef Y:90 P:27 SP:f9 CYC:16382
f93f  c9 00      CMP #$00    A:00 X:ef Y:90 P:27 SP:f9 CYC:16384
f941  d0 01      BNE $f944   A:00 X:ef Y:90 P:27 SP:f9 CYC:16386
f943  60         RTS         A:00 X:ef Y:90 P:27 SP:f9 CYC:16388
e8e1  c8         INY         A:00 X:ef Y:90 P:27 SP:fb CYC:16394
e8e2  20 47 f9   JSR $f947   A:00 X:ef Y:91 P:a5 SP:fb CYC:16396
f947  b8         CLV         A:00 X:ef Y:91 P:a5 SP:f9 CYC:16402
f948  38         SEC         A:00 X:ef Y:91 P:a5 SP:f9 CYC:16404
f949  a9 40      LDA #$40    A:00 X:ef Y:91 P:a5 SP:f9 CYC:16406
f94b  60         RTS         A:40 X:ef Y:91 P:25 SP:f9 CYC:16408
e8e5  eb 3f      SBC #$3f    A:40 X:ef Y:91 P:25 SP:fb CYC:16414
e8e7  ea         NOP         A:01 X:ef Y:91 P:25 SP:fb CYC:16416
e8e8  ea         NOP         A:01 X:ef Y:91 P:25 SP:fb CYC:16418
e8e9  ea         NOP         A:01 X:ef Y:91 P:25 SP:fb CYC:16420
e8ea  ea         NOP         A:01 X:ef Y:91 P:25 SP:fb CYC:16422
e8eb  20 4c f9   JSR $f94c   A:01 X:ef Y:91 P:25 SP:fb CYC:16424
f94c  f0 0b      BEQ $f959   A:01 X:ef Y:91 P:25 SP:f9 CYC:16430
f94e  30 09      BMI $f959   A:01 X:ef Y:91 P:25 SP:f9 CYC:16432
f950  90 07      BCC $f959   A:01 X:ef Y:91 P:25 SP:f9 CYC:16434
f952  70 05      BVS $f959   A:01 X:ef Y:91 P:25 SP:f9 CYC:16436
f954  c9 01      CMP #$01    A:01 X:ef Y:91 P:25 SP:f9 CYC:16438
f956  d0 01      BNE $f959   A:01 X:ef Y:91 P:27 SP:f9 CYC:16440
f958  60         RTS         A:01 X:ef Y:91 P:27 SP:f9 CYC:16442
e8ee  c8         INY         A:01 X:ef Y:91 P:27 SP:fb CYC:16448
e8ef  20 5c f9   JSR $f95c   A:01 X:ef Y:92 P:a5 SP:fb CYC:16450
f95c  a9 40      LDA #$40    A:01 X:ef Y:92 P:a5 SP:f9 CYC:16456
f95e  38         SEC         A:40 X:ef Y:92 P:25 SP:f9 CYC:16458
f95f  24 01      BIT $01     A:40 X:ef Y:92 P:25 SP:f9 CYC:16460
f961  60         RTS         A:40 X:ef Y:92 P:e5 SP:f9 CYC:16463
e8f2  eb 41      SBC #$41    A:40 X:ef Y:92 P:e5 SP:fb CYC:16469
e8f4  ea         NOP         A:ff X:ef Y:92 P:a4 SP:fb CYC:16471
e8f5  ea         NOP         A:ff X:ef Y:92 P:a4 SP:fb CYC:16473
e8f6  ea         NOP         A:ff X:ef Y:92 P:a4 SP:fb CYC:16475
e8f7  ea         NOP         A:ff X:ef Y:92 P:a4 SP:fb CYC:16477
e8f8  20 62 f9   JSR $f962   A:ff X:ef Y:92 P:a4 SP:fb CYC:16479
f962  b0 0b      BCS $f96f   A:ff X:ef Y:92 P:a4 SP:f9 CYC:16485
f964  f0 09      BEQ $f96f   A:ff X:ef Y:92 P:a4 SP:f9 CYC:16487
f966  10 07      BPL $f96f   A:ff X:ef Y:92 P:a4 SP:f9 CYC:16489
f968  70 05      BVS $f96f   A:ff X:ef Y:92 P:a4 SP:f9 CYC:16491
f96a  c9 ff      CMP #$ff    A:ff X:ef Y:92 P:a4 SP:f9 CYC:16493
f96c  d0 01      BNE $f96f   A:ff X:ef Y:92 P:27 SP:f9 CYC:16495
f96e  60         RTS         A:ff X:ef Y:92 P:27 SP:f9 CYC:16497
e8fb  c8         INY         A:ff X:ef Y:92 P:27 SP:fb CYC:16503
e8fc  20 72 f9   JSR $f972   A:ff X:ef Y:93 P:a5 SP:fb CYC:16505
f972  18         CLC         A:ff X:ef Y:93 P:a5 SP:f9 CYC:16511
f973  a9 80      LDA #$80    A:ff X:ef Y:93 P:a4 SP:f9 CYC:16513
f975  60         RTS         A:80 X:ef Y:93 P:a4 SP:f9 CYC:16515
e8ff  eb 00      SBC #$00    A:80 X:ef Y:93 P:a4 SP:fb CYC:16521
e901  ea         NOP         A:7f X:ef Y:93 P:65 SP:fb CYC:16523
e902  ea         NOP         A:7f X:ef Y:93 P:65 SP:fb CYC:16525
e903  ea         NOP         A:7f X:ef Y:93 P:65 SP:fb CYC:16527
e904  ea         NOP         A:7f X:ef Y:93 P:65 SP:fb CYC:16529
e905  20 76 f9   JSR $f976   A:7f X:ef Y:93 P:65 SP:fb CYC:16531
f976  90 05      BCC $f97d   A:7f X:ef Y:93 P:65 SP:f9 CYC:16537
f978  c9 7f      CMP #$7f    A:7f X:ef Y:93 P:65 SP:f9 CYC:16539
f97a  d0 01      BNE $f97d   A:7f X:ef Y:93 P:67 SP:f9 CYC:16541
f97c  60         RTS         A:7f X:ef Y:93 P:67 SP:f9 CYC:16543
e908  c8         INY         A:7f X:ef Y:93 P:67 SP:fb CYC:16549
e909  20 80 f9   JSR $f980   A:7f X:ef Y:94 P:e5 SP:fb CYC:16551
f980  38         SEC         A:7f X:ef Y:94 P:e5 SP:f9 CYC:16557
f981  a9 81      LDA #$81    A:7f X:ef Y:94 P:e5 SP:f9 CYC:16559
f983  60         RTS         A:81 X:ef Y:94 P:e5 SP:f9 CYC:16561
e90c  eb 7f      SBC #$7f    A:81 X:ef Y:94 P:e5 SP:fb CYC:16567
e90e  ea         NOP         A:02 X:ef Y:94 P:65 SP:fb CYC:16569
e90f  ea         NOP         A:02 X:ef Y:94 P:65 SP:fb CYC:16571
e910  ea         NOP         A:02 X:ef Y:94 P:65 SP:fb CYC:16573
e911  ea         NOP         A:02 X:ef Y:94 P:65 SP:fb CYC:16575
e912  20 84 f9   JSR $f984   A:02 X:ef Y:94 P:65 SP:fb CYC:16577
f984  50 07      BVC $f98d   A:02 X:ef Y:94 P:65 SP:f9 CYC:16583
f986  90 05      BCC $f98d   A:02 X:ef Y:94 P:65 SP:f9 CYC:16585
f988  c9 02      CMP #$02    A:02 X:ef Y:94 P:65 SP:f9 CYC:16587
f98a  d0 01      BNE $f98d   A:02 X:ef Y:94 P:67 SP:f9 CYC:16589
f98c  60         RTS         A:02 X:ef Y:94 P:67 SP:f9 CYC:16591
e915  60         RTS         A:02 X:ef Y:94 P:67 SP:fb CYC:16597
c63b  20 16 e9   JSR $e916   A:02 X:ef Y:94 P:67 SP:fd CYC:16603
e916  a9 ff      LDA #$ff    A:02 X:ef Y:94 P:67 SP:fb CYC:16609
e918  85 01      STA $01     A:ff X:ef Y:94 P:e5 SP:fb CYC:16611
e91a  a0 95      LDY #$95    A:ff X:ef Y:94 P:e5 SP:fb CYC:16614
e91c  a2 02      LDX #$02    A:ff X:ef Y:95 P:e5 SP:fb CYC:16616
e91e  a9 47      LDA #$47    A:ff X:02 Y:95 P:65 SP:fb CYC:16618
e920  85 47      STA $47     A:47 X:02 Y:95 P:65 SP:fb CYC:16620
e922  a9 06      LDA #$06    A:47 X:02 Y:95 P:65 SP:fb CYC:16623
e924  85 48      STA $48     A:06 X:02 Y:95 P:65 SP:fb CYC:16625
e926  a9 eb      LDA #$eb    A:06 X:02 Y:95 P:65 SP:fb CYC:16628
e928  8d 47 06   STA $0647   A:eb X:02 Y:95 P:e5 SP:fb CYC:16630
e92b  20 31 fa   JSR $fa31   A:eb X:02 Y:95 P:e5 SP:fb CYC:16634
fa31  24 01      BIT $01     A:eb X:02 Y:95 P:e5 SP:f9 CYC:16640
fa33  18         CLC         A:eb X:02 Y:95 P:e5 SP:f9 CYC:16643
fa34  a9 40      LDA #$40    A:eb X:02 Y:95 P:e4 SP:f9 CYC:16645
fa36  60         RTS         A:40 X:02 Y:95 P:64 SP:f9 CYC:16647
e92e  c3 45      DCP ($45,X) A:40 X:02 Y:95 P:64 SP:fb CYC:16653
e930  ea         NOP         A:40 X:02 Y:95 P:64 SP:fb CYC:16661
e931  ea         NOP         A:40 X:02 Y:95 P:64 SP:fb CYC:16663
e932  ea         NOP         A:40 X:02 Y:95 P:64 SP:fb CYC:16665
e933  ea         NOP         A:40 X:02 Y:95 P:64 SP:fb CYC:16667
e934  20 37 fa   JSR $fa37   A:40 X:02 Y:95 P:64 SP:fb CYC:16669
fa37  50 2c      BVC $fa65   A:40 X:02 Y:95 P:64 SP:f9 CYC:16675
fa39  b0 2a      BCS $fa65   A:40 X:02 Y:95 P:64 SP:f9 CYC:16677
fa3b  30 28      BMI $fa65   A:40 X:02 Y:95 P:64 SP:f9 CYC:16679
fa3d  c9 40      CMP #$40    A:40 X:02 Y:95 P:64 SP:f9 CYC:16681
fa3f  d0 24      BNE $fa65   A:40 X:02 Y:95 P:67 SP:f9 CYC:16683
fa41  60         RTS         A:40 X:02 Y:95 P:67 SP:f9 CYC:16685
e937  ad 47 06   LDA $0647   A:40 X:02 Y:95 P:67 SP:fb CYC:16691
e93a  c9 ea      CMP #$ea    A:ea X:02 Y:95 P:e5 SP:fb CYC:16695
e93c  f0 02      BEQ $e940   A:ea X:02 Y:95 P:67 SP:fb CYC:16697
e940  c8         INY         A:ea X:02 Y:95 P:67 SP:fb CYC:16700
e941  a9 00      LDA #$00    A:ea X:02 Y:96 P:e5 SP:fb CYC:16702
e943  8d 47 06   STA $0647   A:00 X:02 Y:96 P:67 SP:fb CYC:16704
e946  20 42 fa   JSR $fa42   A:00 X:02 Y:96 P:67 SP:fb CYC:16708
fa42  b8         CLV         A:00 X:02 Y:96 P:67 SP:f9 CYC:16714
fa43  38         SEC         A:00 X:02 Y:96 P:27 SP:f9 CYC:16716
fa44  a9 ff      LDA #$ff    A:00 X:02 Y:96 P:27 SP:f9 CYC:16718
fa46  60         RTS         A:ff X:02 Y:96 P:a5 SP:f9 CYC:16720
e949  c3 45      DCP ($45,X) A:ff X:02 Y:96 P:a5 SP:fb CYC:16726
e94b  ea         NOP         A:ff X:02 Y:96 P:27 SP:fb CYC:16734
e94c  ea         NOP         A:ff X:02 Y:96 P:27 SP:fb CYC:16736
e94d  ea         NOP         A:ff X:02 Y:96 P:27 SP:fb CYC:16738
e94e  ea         NOP         A:ff X:02 Y:96 P:27 SP:fb CYC:16740
e94f  20 47 fa   JSR $fa47   A:ff X:02 Y:96 P:27 SP:fb CYC:16742
fa47  70 1c      BVS $fa65   A:ff X:02 Y:96 P:27 SP:f9 CYC:16748
fa49  d0 1a      BNE $fa65   A:ff X:02 Y:96 P:27 SP:f9 CYC:16750
fa4b  30 18      BMI $fa65   A:ff X:02 Y:96 P:27 SP:f9 CYC:16752
fa4d  90 16      BCC $fa65   A:ff X:02 Y:96 P:27 SP:f9 CYC:16754
fa4f  c9 ff      CMP #$ff    A:ff X:02 Y:96 P:27 SP:f9 CYC:16756
fa51  d0 12      BNE $fa65   A:ff X:02 Y:96 P:27 SP:f9 CYC:16758
fa53  60         RTS         A:ff X:02 Y:96 P:27 SP:f9 CYC:16760
e952  ad 47 06   LDA $0647   A:ff X:02 Y:96 P:27 SP:fb CYC:16766
e955  c9 ff      CMP #$ff    A:ff X:02 Y:96 P:a5 SP:fb CYC:16770
e957  f0 02      BEQ $e95b   A:ff X:02 Y:96 P:27 SP:fb CYC:16772
e95b  c8         INY         A:ff X:02 Y:96 P:27 SP:fb CYC:16775
e95c  a9 37      LDA #$37    A:ff X:02 Y:97 P:a5 SP:fb CYC:16777
e95e  8d 47 06   STA $0647   A:37 X:02 Y:97 P:25 SP:fb CYC:16779
e961  20 54 fa   JSR $fa54   A:37 X:02 Y:97 P:25 SP:fb CYC:16783
fa54  24 01      BIT $01     A:37 X:02 Y:97 P:25 SP:f9 CYC:16789
fa56  a9 f0      LDA #$f0    A:37 X:02 Y:97 P:e5 SP:f9 CYC:16792
fa58  60         RTS         A:f0 X:02 Y:97 P:e5 SP:f9 CYC:16794
e964  c3 45      DCP ($45,X) A:f0 X:02 Y:97 P:e5 SP:fb CYC:16800
e966  ea         NOP         A:f0 X:02 Y:97 P:e5 SP:fb CYC:16808
e967  ea         NOP         A:f0 X:02 Y:97 P:e5 SP:fb CYC:16810
e968  ea         NOP         A:f0 X:02 Y:97 P:e5 SP:fb CYC:16812
e969  ea         NOP         A:f0 X:02 Y:97 P:e5 SP:fb CYC:16814
e96a  20 59 fa   JSR $fa59   A:f0 X:02 Y:97 P:e5 SP:fb CYC:16816
fa59  50 0a      BVC $fa65   A:f0 X:02 Y:97 P:e5 SP:f9 CYC:16822
fa5b  f0 08      BEQ $fa65   A:f0 X:02 Y:97 P:e5 SP:f9 CYC:16824
fa5d  10 06      BPL $fa65   A:f0 X:02 Y:97 P:e5 SP:f9 CYC:16826
fa5f  90 04      BCC $fa65   A:f0 X:02 Y:97 P:e5 SP:f9 CYC:16828
fa61  c9 f0      CMP #$f0    A:f0 X:02 Y:97 P:e5 SP:f9 CYC:16830
fa63  f0 02      BEQ $fa67   A:f0 X:02 Y:97 P:67 SP:f9 CYC:16832
fa67  60         RTS         A:f0 X:02 Y:97 P:67 SP:f9 CYC:16835
e96d  ad 47 06   LDA $0647   A:f0 X:02 Y:97 P:67 SP:fb CYC:16841
e970  c9 36      CMP #$36    A:36 X:02 Y:97 P:65 SP:fb CYC:16845
e972  f0 02      BEQ $e976   A:36 X:02 Y:97 P:67 SP:fb CYC:16847
e976  c8         INY         A:36 X:02 Y:97 P:67 SP:fb CYC:16850
e977  a9 eb      LDA #$eb    A:36 X:02 Y:98 P:e5 SP:fb CYC:16852
e979  85 47      STA $47     A:eb X:02 Y:98 P:e5 SP:fb CYC:16854
e97b  20 31 fa   JSR $fa31   A:eb X:02 Y:98 P:e5 SP:fb CYC:16857
fa31  24 01      BIT $01     A:eb X:02 Y:98 P:e5 SP:f9 CYC:16863
fa33  18         CLC         A:eb X:02 Y:98 P:e5 SP:f9 CYC:16866
fa34  a9 40      LDA #$40    A:eb X:02 Y:98 P:e4 SP:f9 CYC:16868
fa36  60         RTS         A:40 X:02 Y:98 P:64 SP:f9 CYC:16870
e97e  c7 47      DCP $47     A:40 X:02 Y:98 P:64 SP:fb CYC:16876
e980  ea         NOP         A:40 X:02 Y:98 P:64 SP:fb CYC:16881
e981  ea         NOP         A:40 X:02 Y:98 P:64 SP:fb CYC:16883
e982  ea         NOP         A:40 X:02 Y:98 P:64 SP:fb CYC:16885
e983  ea         NOP         A:40 X:02 Y:98 P:64 SP:fb CYC:16887
e984  20 37 fa   JSR $fa37   A:40 X:02 Y:98 P:64 SP:fb CYC:16889
fa37  50 2c      BVC $fa65   A:40 X:02 Y:98 P:64 SP:f9 CYC:16895
fa39  b0 2a      BCS $fa65   A:40 X:02 Y:98 P:64 SP:f9 CYC:16897
fa3b  30 28      BMI $fa65   A:40 X:02 Y:98 P:64 SP:f9 CYC:16899
fa3d  c9 40      CMP #$40    A:40 X:02 Y:98 P:64 SP:f9 CYC:16901
fa3f  d0 24      BNE $fa65   A:40 X:02 Y:98 P:67 SP:f9 CYC:16903
fa41  60         RTS         A:40 X:02 Y:98 P:67 SP:f9 CYC:16905
e987  a5 47      LDA $47     A:40 X:02 Y:98 P:67 SP:fb CYC:16911
e989  c9 ea      CMP #$ea    A:ea X:02 Y:98 P:e5 SP:fb CYC:16914
e98b  f0 02      BEQ $e98f   A:ea X:02 Y:98 P:67 SP:fb CYC:16916
e98f  c8         INY         A:ea X:02 Y:98 P:67 SP:fb CYC:16919
e990  a9 00      LDA #$00    A:ea X:02 Y:99 P:e5 SP:fb CYC:16921
e992  85 47      STA $47     A:00 X:02 Y:99 P:67 SP:fb CYC:16923
e994  20 42 fa   JSR $fa42   A:00 X:02 Y:99 P:67 SP:fb CYC:16926
fa42  b8         CLV         A:00 X:02 Y:99 P:67 SP:f9 CYC:16932
fa43  38         SEC         A:00 X:02 Y:99 P:27 SP:f9 CYC:16934
fa44  a9 ff      LDA #$ff    A:00 X:02 Y:99 P:27 SP:f9 CYC:16936
fa46  60         RTS         A:ff X:02 Y:99 P:a5 SP:f9 CYC:16938
e997  c7 47      DCP $47     A:ff X:02 Y:99 P:a5 SP:fb CYC:16944
e999  ea         NOP         A:ff X:02 Y:99 P:27 SP:fb CYC:16949
e99a  ea         NOP         A:ff X:02 Y:99 P:27 SP:fb CYC:16951
e99b  ea         NOP         A:ff X:02 Y:99 P:27 SP:fb CYC:16953
e99c  ea         NOP         A:ff X:02 Y:99 P:27 SP:fb CYC:16955
e99d  20 47 fa   JSR $fa47   A:ff X:02 Y:99 P:27 SP:fb CYC:16957
fa47  70 1c      BVS $fa65   A:ff X:02 Y:99 P:27 SP:f9 CYC:16963
fa49  d0 1a      BNE $fa65   A:ff X:02 Y:99 P:27 SP:f9 CYC:16965
fa4b  30 18      BMI $fa65   A:ff X:02 Y:99 P:27 SP:f9 CYC:16967
fa4d  90 16      BCC $fa65   A:ff X:02 Y:99 P:27 SP:f9 CYC:16969
fa4f  c9 ff      CMP #$ff    A:ff X:02 Y:99 P:27 SP:f9 CYC:16971
fa51  d0 12      BNE $fa65   A:ff X:02 Y:99 P:27 SP:f9 CYC:16973
fa53  60         RTS         A:ff X:02 Y:99 P:27 SP:f9 CYC:16975
e9a0  a5 47      LDA $47     A:ff X:02 Y:99 P:27 SP:fb CYC:16981
e9a2  c9 ff      CMP #$ff    A:ff X:02 Y:99 P:a5 SP:fb CYC:16984
e9a4  f0 02      BEQ $e9a8   A:ff X:02 Y:99 P:27 SP:fb CYC:16986
e9a8  c8         INY         A:ff X:02 Y:99 P:27 SP:fb CYC:16989
e9a9  a9 37      LDA #$37    A:ff X:02 Y:9a P:a5 SP:fb CYC:16991
e9ab  85 47      STA $47     A:37 X:02 Y:9a P:25 SP:fb CYC:16993
e9ad  20 54 fa   JSR $fa54   A:37 X:02 Y:9a P:25 SP:fb CYC:16996
fa54  24 01      BIT $01     A:37 X:02 Y:9a P:25 SP:f9 CYC:17002
fa56  a9 f0      LDA #$f0    A:37 X:02 Y:9a P:e5 SP:f9 CYC:17005
fa58  60         RTS         A:f0 X:02 Y:9a P:e5 SP:f9 CYC:17007
e9b0  c7 47      DCP $47     A:f0 X:02 Y:9a P:e5 SP:fb CYC:17013
e9b2  ea         NOP         A:f0 X:02 Y:9a P:e5 SP:fb CYC:17018
e9b3  ea         NOP         A:f0 X:02 Y:9a P:e5 SP:fb CYC:17020
e9b4  ea         NOP         A:f0 X:02 Y:9a P:e5 SP:fb CYC:17022
e9b5  ea         NOP         A:f0 X:02 Y:9a P:e5 SP:fb CYC:17024
e9b6  20 59 fa   JSR $fa59   A:f0 X:02 Y:9a P:e5 SP:fb CYC:17026
fa59  50 0a      BVC $fa65   A:f0 X:02 Y:9a P:e5 SP:f9 CYC:17032
fa5b  f0 08      BEQ $fa65   A:f0 X:02 Y:9a P:e5 SP:f9 CYC:17034
fa5d  10 06      BPL $fa65   A:f0 X:02 Y:9a P:e5 SP:f9 CYC:17036
fa5f  90 04      BCC $fa65   A:f0 X:02 Y:9a P:e5 SP:f9 CYC:17038
fa61  c9 f0      CMP #$f0    A:f0 X:02 Y:9a P:e5 SP:f9 CYC:17040
fa63  f0 02      BEQ $fa67   A:f0 X:02 Y:9a P:67 SP:f9 CYC:17042
fa67  60         RTS         A:f0 X:02 Y:9a P:67 SP:f9 CYC:17045
e9b9  a5 47      LDA $47     A:f0 X:02 Y:9a P:67 SP:fb CYC:17051
e9bb  c9 36      CMP #$36    A:36 X:02 Y:9a P:65 SP:fb CYC:17054
e9bd  f0 02      BEQ $e9c1   A:36 X:02 Y:9a P:67 SP:fb CYC:17056
e9c1  c8         INY         A:36 X:02 Y:9a P:67 SP:fb CYC:17059
e9c2  a9 eb      LDA #$eb    A:36 X:02 Y:9b P:e5 SP:fb CYC:17061
e9c4  8d 47 06   STA $0647   A:eb X:02 Y:9b P:e5 SP:fb CYC:17063
e9c7  20 31 fa   JSR $fa31   A:eb X:02 Y:9b P:e5 SP:fb CYC:17067
fa31  24 01      BIT $01     A:eb X:02 Y:9b P:e5 SP:f9 CYC:17073
fa33  18         CLC         A:eb X:02 Y:9b P:e5 SP:f9 CYC:17076
fa34  a9 40      LDA #$40    A:eb X:02 Y:9b P:e4 SP:f9 CYC:17078
fa36  60         RTS         A:40 X:02 Y:9b P:64 SP:f9 CYC:17080
e9ca  cf 47 06   DCP $0647   A:40 X:02 Y:9b P:64 SP:fb CYC:17086
e9cd  ea         NOP         A:40 X:02 Y:9b P:64 SP:fb CYC:17092
e9ce  ea         NOP         A:40 X:02 Y:9b P:64 SP:fb CYC:17094
e9cf  ea         NOP         A:40 X:02 Y:9b P:64 SP:fb CYC:17096
e9d0  ea         NOP         A:40 X:02 Y:9b P:64 SP:fb CYC:17098
e9d1  20 37 fa   JSR $fa37   A:40 X:02 Y:9b P:64 SP:fb CYC:17100
fa37  50 2c      BVC $fa65   A:40 X:02 Y:9b P:64 SP:f9 CYC:17106
fa39  b0 2a      BCS $fa65   A:40 X:02 Y:9b P:64 SP:f9 CYC:17108
fa3b  30 28      BMI $fa65   A:40 X:02 Y:9b P:64 SP:f9 CYC:17110
fa3d  c9 40      CMP #$40    A:40 X:02 Y:9b P:64 SP:f9 CYC:17112
fa3f  d0 24      BNE $fa65   A:40 X:02 Y:9b P:67 SP:f9 CYC:17114
fa41  60         RTS         A:40 X:02 Y:9b P:67 SP:f9 CYC:17116
e9d4  ad 47 06   LDA $0647   A:40 X:02 Y:9b P:67 SP:fb CYC:17122
e9d7  c9 ea      CMP #$ea    A:ea X:02 Y:9b P:e5 SP:fb CYC:17126
e9d9  f0 02      BEQ $e9dd   A:ea X:02 Y:9b P:67 SP:fb CYC:17128
e9dd  c8         INY         A:ea X:02 Y:9b P:67 SP:fb CYC:17131
e9de  a9 00      LDA #$00    A:ea X:02 Y:9c P:e5 SP:fb CYC:17133
e9e0  8d 47 06   STA $0647   A:00 X:02 Y:9c P:67 SP:fb CYC:17135
e9e3  20 42 fa   JSR $fa42   A:00 X:02 Y:9c P:67 SP:fb CYC:17139
fa42  b8         CLV         A:00 X:02 Y:9c P:67 SP:f9 CYC:17145
fa43  38         SEC         A:00 X:02 Y:9c P:27 SP:f9 CYC:17147
fa44  a9 ff      LDA #$ff    A:00 X:02 Y:9c P:27 SP:f9 CYC:17149
fa46  60         RTS         A:ff X:02 Y:9c P:a5 SP:f9 CYC:17151
e9e6  cf 47 06   DCP $0647   A:ff X:02 Y:9c P:a5 SP:fb CYC:17157
e9e9  ea         NOP         A:ff X:02 Y:9c P:27 SP:fb CYC:17163
e9ea  ea         NOP         A:ff X:02 Y:9c P:27 SP:fb CYC:17165
e9eb  ea         NOP         A:ff X:02 Y:9c P:27 SP:fb CYC:17167
e9ec  ea         NOP         A:ff X:02 Y:9c P:27 SP:fb CYC:17169
e9ed  20 47 fa   JSR $fa47   A:ff X:02 Y:9c P:27 SP:fb CYC:17171
fa47  70 1c      BVS $fa65   A:ff X:02 Y:9c P:27 SP:f9 CYC:17177
fa49  d0 1a      BNE $fa65   A:ff X:02 Y:9c P:27 SP:f9 CYC:17179
fa4b  30 18      BMI $fa65   A:ff X:02 Y:9c P:27 SP:f9 CYC:17181
fa4d  90 16      BCC $fa65   A:ff X:02 Y:9c P:27 SP:f9 CYC:17183
fa4f  c9 ff      CMP #$ff    A:ff X:02 Y:9c P:27 SP:f9 CYC:17185
fa51  d0 12      BNE $fa65   A:ff X:02 Y:9c P:27 SP:f9 CYC:17187
fa53  60         RTS         A:ff X:02 Y:9c P:27 SP:f9 CYC:17189
e9f0  ad 47 06   LDA $0647   A:ff X:02 Y:9c P:27 SP:fb CYC:17195
e9f3  c9 ff      CMP #$ff    A:ff X:02 Y:9c P:a5 SP:fb CYC:17199
e9f5  f0 02      BEQ $e9f9   A:ff X:02 Y:9c P:27 SP:fb CYC:17201
e9f9  c8         INY         A:ff X:02 Y:9c P:27 SP:fb CYC:17204
e9fa  a9 37      LDA #$37    A:ff X:02 Y:9d P:a5 SP:fb CYC:17206
e9fc  8d 47 06   STA $0647   A:37 X:02 Y:9d P:25 SP:fb CYC:17208
e9ff  20 54 fa   JSR $fa54   A:37 X:02 Y:9d P:25 SP:fb CYC:17212
fa54  24 01      BIT $01     A:37 X:02 Y:9d P:25 SP:f9 CYC:17218
fa56  a9 f0      LDA #$f0    A:37 X:02 Y:9d P:e5 SP:f9 CYC:17221
fa58  60         RTS         A:f0 X:02 Y:9d P:e5 SP:f9 CYC:17223
ea02  cf 47 06   DCP $0647   A:f0 X:02 Y:9d P:e5 SP:fb CYC:17229
ea05  ea         NOP         A:f0 X:02 Y:9d P:e5 SP:fb CYC:17235
ea06  ea         NOP         A:f0 X:02 Y:9d P:e5 SP:fb CYC:17237
ea07  ea         NOP         A:f0 X:02 Y:9d P:e5 SP:fb CYC:17239
ea08  ea         NOP         A:f0 X:02 Y:9d P:e5 SP:fb CYC:17241
ea09  20 59 fa   JSR $fa59   A:f0 X:02 Y:9d P:e5 SP:fb CYC:17243
fa59  50 0a      BVC $fa65   A:f0 X:02 Y:9d P:e5 SP:f9 CYC:17249
fa5b  f0 08      BEQ $fa65   A:f0 X:02 Y:9d P:e5 SP:f9 CYC:17251
fa5d  10 06      BPL $fa65   A:f0 X:02 Y:9d P:e5 SP:f9 CYC:17253
fa5f  90 04      BCC $fa65   A:f0 X:02 Y:9d P:e5 SP:f9 CYC:17255
fa61  c9 f0      CMP #$f0    A:f0 X:02 Y:9d P:e5 SP:f9 CYC:17257
fa63  f0 02      BEQ $fa67   A:f0 X:02 Y:9d P:67 SP:f9 CYC:17259
fa67  60         RTS         A:f0 X:02 Y:9d P:67 SP:f9 CYC:17262
ea0c  ad 47 06   LDA $0647   A:f0 X:02 Y:9d P:67 SP:fb CYC:17268
ea0f  c9 36      CMP #$36    A:36 X:02 Y:9d P:65 SP:fb CYC:17272
ea11  f0 02      BEQ $ea15   A:36 X:02 Y:9d P:67 SP:fb CYC:17274
ea15  a9 eb      LDA #$eb    A:36 X:02 Y:9d P:67 SP:fb CYC:17277
ea17  8d 47 06   STA $0647   A:eb X:02 Y:9d P:e5 SP:fb CYC:17279
ea1a  a9 48      LDA #$48    A:eb X:02 Y:9d P:e5 SP:fb CYC:17283
ea1c  85 45      STA $45     A:48 X:02 Y:9d P:65 SP:fb CYC:17285
ea1e  a9 05      LDA #$05    A:48 X:02 Y:9d P:65 SP:fb CYC:17288
ea20  85 46      STA $46     A:05 X:02 Y:9d P:65 SP:fb CYC:17290
ea22  a0 ff      LDY #$ff    A:05 X:02 Y:9d P:65 SP:fb CYC:17293
ea24  20 31 fa   JSR $fa31   A:05 X:02 Y:ff P:e5 SP:fb CYC:17295
fa31  24 01      BIT $01     A:05 X:02 Y:ff P:e5 SP:f9 CYC:17301
fa33  18         CLC         A:05 X:02 Y:ff P:e5 SP:f9 CYC:17304
fa34  a9 40      LDA #$40    A:05 X:02 Y:ff P:e4 SP:f9 CYC:17306
fa36  60         RTS         A:40 X:02 Y:ff P:64 SP:f9 CYC:17308
ea27  d3 45      DCP ($45),Y A:40 X:02 Y:ff P:64 SP:fb CYC:17314
ea29  ea         NOP         A:40 X:02 Y:ff P:64 SP:fb CYC:17322
ea2a  ea         NOP         A:40 X:02 Y:ff P:64 SP:fb CYC:17324
ea2b  08         PHP         A:40 X:02 Y:ff P:64 SP:fb CYC:17326
ea2c  48         PHA         A:40 X:02 Y:ff P:64 SP:fa CYC:17329
ea2d  a0 9e      LDY #$9e    A:40 X:02 Y:ff P:64 SP:f9 CYC:17332
ea2f  68         PLA         A:40 X:02 Y:9e P:e4 SP:f9 CYC:17334
ea30  28         PLP         A:40 X:02 Y:9e P:64 SP:fa CYC:17338
ea31  20 37 fa   JSR $fa37   A:40 X:02 Y:9e P:64 SP:fb CYC:17342
fa37  50 2c      BVC $fa65   A:40 X:02 Y:9e P:64 SP:f9 CYC:17348
fa39  b0 2a      BCS $fa65   A:40 X:02 Y:9e P:64 SP:f9 CYC:17350
fa3b  30 28      BMI $fa65   A:40 X:02 Y:9e P:64 SP:f9 CYC:17352
fa3d  c9 40      CMP #$40    A:40 X:02 Y:9e P:64 SP:f9 CYC:17354
fa3f  d0 24      BNE $fa65   A:40 X:02 Y:9e P:67 SP:f9 CYC:17356
fa41  60         RTS         A:40 X:02 Y:9e P:67 SP:f9 CYC:17358
ea34  ad 47 06   LDA $0647   A:40 X:02 Y:9e P:67 SP:fb CYC:17364
ea37  c9 ea      CMP #$ea    A:ea X:02 Y:9e P:e5 SP:fb CYC:17368
ea39  f0 02      BEQ $ea3d   A:ea X:02 Y:9e P:67 SP:fb CYC:17370
ea3d  a0 ff      LDY #$ff    A:ea X:02 Y:9e P:67 SP:fb CYC:17373
ea3f  a9 00      LDA #$00    A:ea X:02 Y:ff P:e5 SP:fb CYC:17375
ea41  8d 47 06   STA $0647   A:00 X:02 Y:ff P:67 SP:fb CYC:17377
ea44  20 42 fa   JSR $fa42   A:00 X:02 Y:ff P:67 SP:fb CYC:17381
fa42  b8         CLV         A:00 X:02 Y:ff P:67 SP:f9 CYC:17387
fa43  38         SEC         A:00 X:02 Y:ff P:27 SP:f9 CYC:17389
fa44  a9 ff      LDA #$ff    A:00 X:02 Y:ff P:27 SP:f9 CYC:17391
fa46  60         RTS         A:ff X:02 Y:ff P:a5 SP:f9 CYC:17393
ea47  d3 45      DCP ($45),Y A:ff X:02 Y:ff P:a5 SP:fb CYC:17399
ea49  ea         NOP         A:ff X:02 Y:ff P:27 SP:fb CYC:17407
ea4a  ea         NOP         A:ff X:02 Y:ff P:27 SP:fb CYC:17409
ea4b  08         PHP         A:ff X:02 Y:ff P:27 SP:fb CYC:17411
ea4c  48         PHA         A:ff X:02 Y:ff P:27 SP:fa CYC:17414
ea4d  a0 9f      LDY #$9f    A:ff X:02 Y:ff P:27 SP:f9 CYC:17417
ea4f  68         PLA         A:ff X:02 Y:9f P:a5 SP:f9 CYC:17419
ea50  28         PLP         A:ff X:02 Y:9f P:a5 SP:fa CYC:17423
ea51  20 47 fa   JSR $fa47   A:ff X:02 Y:9f P:27 SP:fb CYC:17427
fa47  70 1c      BVS $fa65   A:ff X:02 Y:9f P:27 SP:f9 CYC:17433
fa49  d0 1a      BNE $fa65   A:ff X:02 Y:9f P:27 SP:f9 CYC:17435
fa4b  30 18      BMI $fa65   A:ff X:02 Y:9f P:27 SP:f9 CYC:17437
fa4d  90 16      BCC $fa65   A:ff X:02 Y:9f P:27 SP:f9 CYC:17439
fa4f  c9 ff      CMP #$ff    A:ff X:02 Y:9f P:27 SP:f9 CYC:17441
fa51  d0 12      BNE $fa65   A:ff X:02 Y:9f P:27 SP:f9 CYC:17443
fa53  60         RTS         A:ff X:02 Y:9f P:27 SP:f9 CYC:17445
ea54  ad 47 06   LDA $0647   A:ff X:02 Y:9f P:27 SP:fb CYC:17451
ea57  c9 ff      CMP #$ff    A:ff X:02 Y:9f P:a5 SP:fb CYC:17455
ea59  f0 02      BEQ $ea5d   A:ff X:02 Y:9f P:27 SP:fb CYC:17457
ea5d  a0 ff      LDY #$ff    A:ff X:02 Y:9f P:27 SP:fb CYC:17460
ea5f  a9 37      LDA #$37    A:ff X:02 Y:ff P:a5 SP:fb CYC:17462
ea61  8d 47 06   STA $0647   A:37 X:02 Y:ff P:25 SP:fb CYC:17464
ea64  20 54 fa   JSR $fa54   A:37 X:02 Y:ff P:25 SP:fb CYC:17468
fa54  24 01      BIT $01     A:37 X:02 Y:ff P:25 SP:f9 CYC:17474
fa56  a9 f0      LDA #$f0    A:37 X:02 Y:ff P:e5 SP:f9 CYC:17477
fa58  60         RTS         A:f0 X:02 Y:ff P:e5 SP:f9 CYC:17479
ea67  d3 45      DCP ($45),Y A:f0 X:02 Y:ff P:e5 SP:fb CYC:17485
ea69  ea         NOP         A:f0 X:02 Y:ff P:e5 SP:fb CYC:17493
ea6a  ea         NOP         A:f0 X:02 Y:ff P:e5 SP:fb CYC:17495
ea6b  08         PHP         A:f0 X:02 Y:ff P:e5 SP:fb CYC:17497
ea6c  48         PHA         A:f0 X:02 Y:ff P:e5 SP:fa CYC:17500
ea6d  a0 a0      LDY #$a0    A:f0 X:02 Y:ff P:e5 SP:f9 CYC:17503
ea6f  68         PLA         A:f0 X:02 Y:a0 P:e5 SP:f9 CYC:17505
ea70  28         PLP         A:f0 X:02 Y:a0 P:e5 SP:fa CYC:17509
ea71  20 59 fa   JSR $fa59   A:f0 X:02 Y:a0 P:e5 SP:fb CYC:17513
fa59  50 0a      BVC $fa65   A:f0 X:02 Y:a0 P:e5 SP:f9 CYC:17519
fa5b  f0 08      BEQ $fa65   A:f0 X:02 Y:a0 P:e5 SP:f9 CYC:17521
fa5d  10 06      BPL $fa65   A:f0 X:02 Y:a0 P:e5 SP:f9 CYC:17523
fa5f  90 04      BCC $fa65   A:f0 X:02 Y:a0 P:e5 SP:f9 CYC:17525
fa61  c9 f0      CMP #$f0    A:f0 X:02 Y:a0 P:e5 SP:f9 CYC:17527
fa63  f0 02      BEQ $fa67   A:f0 X:02 Y:a0 P:67 SP:f9 CYC:17529
fa67  60         RTS         A:f0 X:02 Y:a0 P:67 SP:f9 CYC:17532
ea74  ad 47 06   LDA $0647   A:f0 X:02 Y:a0 P:67 SP:fb CYC:17538
ea77  c9 36      CMP #$36    A:36 X:02 Y:a0 P:65 SP:fb CYC:17542
ea79  f0 02      BEQ $ea7d   A:36 X:02 Y:a0 P:67 SP:fb CYC:17544
ea7d  a0 a1      LDY #$a1    A:36 X:02 Y:a0 P:67 SP:fb CYC:17547
ea7f  a2 ff      LDX #$ff    A:36 X:02 Y:a1 P:e5 SP:fb CYC:17549
ea81  a9 eb      LDA #$eb    A:36 X:ff Y:a1 P:e5 SP:fb CYC:17551
ea83  85 47      STA $47     A:eb X:ff Y:a1 P:e5 SP:fb CYC:17553
ea85  20 31 fa   JSR $fa31   A:eb X:ff Y:a1 P:e5 SP:fb CYC:17556
fa31  24 01      BIT $01     A:eb X:ff Y:a1 P:e5 SP:f9 CYC:17562
fa33  18         CLC         A:eb X:ff Y:a1 P:e5 SP:f9 CYC:17565
fa34  a9 40      LDA #$40    A:eb X:ff Y:a1 P:e4 SP:f9 CYC:17567
fa36  60         RTS         A:40 X:ff Y:a1 P:64 SP:f9 CYC:17569
ea88  d7 48      DCP $48,X   A:40 X:ff Y:a1 P:64 SP:fb CYC:17575
ea8a  ea         NOP         A:40 X:ff Y:a1 P:64 SP:fb CYC:17581
ea8b  ea         NOP         A:40 X:ff Y:a1 P:64 SP:fb CYC:17583
ea8c  ea         NOP         A:40 X:ff Y:a1 P:64 SP:fb CYC:17585
ea8d  ea         NOP         A:40 X:ff Y:a1 P:64 SP:fb CYC:17587
ea8e  20 37 fa   JSR $fa37   A:40 X:ff Y:a1 P:64 SP:fb CYC:17589
fa37  50 2c      BVC $fa65   A:40 X:ff Y:a1 P:64 SP:f9 CYC:17595
fa39  b0 2a      BCS $fa65   A:40 X:ff Y:a1 P:64 SP:f9 CYC:17597
fa3b  30 28      BMI $fa65   A:40 X:ff Y:a1 P:64 SP:f9 CYC:17599
fa3d  c9 40      CMP #$40    A:40 X:ff Y:a1 P:64 SP:f9 CYC:17601
fa3f  d0 24      BNE $fa65   A:40 X:ff Y:a1 P:67 SP:f9 CYC:17603
fa41  60         RTS         A:40 X:ff Y:a1 P:67 SP:f9 CYC:17605
ea91  a5 47      LDA $47     A:40 X:ff Y:a1 P:67 SP:fb CYC:17611
ea93  c9 ea      CMP #$ea    A:ea X:ff Y:a1 P:e5 SP:fb CYC:17614
ea95  f0 02      BEQ $ea99   A:ea X:ff Y:a1 P:67 SP:fb CYC:17616
ea99  c8         INY         A:ea X:ff Y:a1 P:67 SP:fb CYC:17619
ea9a  a9 00      LDA #$00    A:ea X:ff Y:a2 P:e5 SP:fb CYC:17621
ea9c  85 47      STA $47     A:00 X:ff Y:a2 P:67 SP:fb CYC:17623
ea9e  20 42 fa   JSR $fa42   A:00 X:ff Y:a2 P:67 SP:fb CYC:17626
fa42  b8         CLV         A:00 X:ff Y:a2 P:67 SP:f9 CYC:17632
fa43  38         SEC         A:00 X:ff Y:a2 P:27 SP:f9 CYC:17634
fa44  a9 ff      LDA #$ff    A:00 X:ff Y:a2 P:27 SP:f9 CYC:17636
fa46  60         RTS         A:ff X:ff Y:a2 P:a5 SP:f9 CYC:17638
eaa1  d7 48      DCP $48,X   A:ff X:ff Y:a2 P:a5 SP:fb CYC:17644
eaa3  ea         NOP         A:ff X:ff Y:a2 P:27 SP:fb CYC:17650
eaa4  ea         NOP         A:ff X:ff Y:a2 P:27 SP:fb CYC:17652
eaa5  ea         NOP         A:ff X:ff Y:a2 P:27 SP:fb CYC:17654
eaa6  ea         NOP         A:ff X:ff Y:a2 P:27 SP:fb CYC:17656
eaa7  20 47 fa   JSR $fa47   A:ff X:ff Y:a2 P:27 SP:fb CYC:17658
fa47  70 1c      BVS $fa65   A:ff X:ff Y:a2 P:27 SP:f9 CYC:17664
fa49  d0 1a      BNE $fa65   A:ff X:ff Y:a2 P:27 SP:f9 CYC:17666
fa4b  30 18      BMI $fa65   A:ff X:ff Y:a2 P:27 SP:f9 CYC:17668
fa4d  90 16      BCC $fa65   A:ff X:ff Y:a2 P:27 SP:f9 CYC:17670
fa4f  c9 ff      CMP #$ff    A:ff X:ff Y:a2 P:27 SP:f9 CYC:17672
fa51  d0 12      BNE $fa65   A:ff X:ff Y:a2 P:27 SP:f9 CYC:17674
fa53  60         RTS         A:ff X:ff Y:a2 P:27 SP:f9 CYC:17676
eaaa  a5 47      LDA $47     A:ff X:ff Y:a2 P:27 SP:fb CYC:17682
eaac  c9 ff      CMP #$ff    A:ff X:ff Y:a2 P:a5 SP:fb CYC:17685
eaae  f0 02      BEQ $eab2   A:ff X:ff Y:a2 P:27 SP:fb CYC:17687
eab2  c8         INY         A:ff X:ff Y:a2 P:27 SP:fb CYC:17690
eab3  a9 37      LDA #$37    A:ff X:ff Y:a3 P:a5 SP:fb CYC:17692
eab5  85 47      STA $47     A:37 X:ff Y:a3 P:25 SP:fb CYC:17694
eab7  20 54 fa   JSR $fa54   A:37 X:ff Y:a3 P:25 SP:fb CYC:17697
fa54  24 01      BIT $01     A:37 X:ff Y:a3 P:25 SP:f9 CYC:17703
fa56  a9 f0      LDA #$f0    A:37 X:ff Y:a3 P:e5 SP:f9 CYC:17706
fa58  60         RTS         A:f0 X:ff Y:a3 P:e5 SP:f9 CYC:17708
eaba  d7 48      DCP $48,X   A:f0 X:ff Y:a3 P:e5 SP:fb CYC:17714
eabc  ea         NOP         A:f0 X:ff Y:a3 P:e5 SP:fb CYC:17720
eabd  ea         NOP         A:f0 X:ff Y:a3 P:e5 SP:fb CYC:17722
eabe  ea         NOP         A:f0 X:ff Y:a3 P:e5 SP:fb CYC:17724
eabf  ea         NOP         A:f0 X:ff Y:a3 P:e5 SP:fb CYC:17726
eac0  20 59 fa   JSR $fa59   A:f0 X:ff Y:a3 P:e5 SP:fb CYC:17728
fa59  50 0a      BVC $fa65   A:f0 X:ff Y:a3 P:e5 SP:f9 CYC:17734
fa5b  f0 08      BEQ $fa65   A:f0 X:ff Y:a3 P:e5 SP:f9 CYC:17736
fa5d  10 06      BPL $fa65   A:f0 X:ff Y:a3 P:e5 SP:f9 CYC:17738
fa5f  90 04      BCC $fa65   A:f0 X:ff Y:a3 P:e5 SP:f9 CYC:17740
fa61  c9 f0      CMP #$f0    A:f0 X:ff Y:a3 P:e5 SP:f9 CYC:17742
fa63  f0 02      BEQ $fa67   A:f0 X:ff Y:a3 P:67 SP:f9 CYC:17744
fa67  60         RTS         A:f0 X:ff Y:a3 P:67 SP:f9 CYC:17747
eac3  a5 47      LDA $47     A:f0 X:ff Y:a3 P:67 SP:fb CYC:17753
eac5  c9 36      CMP #$36    A:36 X:ff Y:a3 P:65 SP:fb CYC:17756
eac7  f0 02      BEQ $eacb   A:36 X:ff Y:a3 P:67 SP:fb CYC:17758
eacb  a9 eb      LDA #$eb    A:36 X:ff Y:a3 P:67 SP:fb CYC:17761
eacd  8d 47 06   STA $0647   A:eb X:ff Y:a3 P:e5 SP:fb CYC:17763
ead0  a0 ff      LDY #$ff    A:eb X:ff Y:a3 P:e5 SP:fb CYC:17767
ead2  20 31 fa   JSR $fa31   A:eb X:ff Y:ff P:e5 SP:fb CYC:17769
fa31  24 01      BIT $01     A:eb X:ff Y:ff P:e5 SP:f9 CYC:17775
fa33  18         CLC         A:eb X:ff Y:ff P:e5 SP:f9 CYC:17778
fa34  a9 40      LDA #$40    A:eb X:ff Y:ff P:e4 SP:f9 CYC:17780
fa36  60         RTS         A:40 X:ff Y:ff P:64 SP:f9 CYC:17782
ead5  db 48 05   DCP $0548,Y A:40 X:ff Y:ff P:64 SP:fb CYC:17788
ead8  ea         NOP         A:40 X:ff Y:ff P:64 SP:fb CYC:17795
ead9  ea         NOP         A:40 X:ff Y:ff P:64 SP:fb CYC:17797
eada  08         PHP         A:40 X:ff Y:ff P:64 SP:fb CYC:17799
eadb  48         PHA         A:40 X:ff Y:ff P:64 SP:fa CYC:17802
eadc  a0 a4      LDY #$a4    A:40 X:ff Y:ff P:64 SP:f9 CYC:17805
eade  68         PLA         A:40 X:ff Y:a4 P:e4 SP:f9 CYC:17807
eadf  28         PLP         A:40 X:ff Y:a4 P:64 SP:fa CYC:17811
eae0  20 37 fa   JSR $fa37   A:40 X:ff Y:a4 P:64 SP:fb CYC:17815
fa37  50 2c      BVC $fa65   A:40 X:ff Y:a4 P:64 SP:f9 CYC:17821
fa39  b0 2a      BCS $fa65   A:40 X:ff Y:a4 P:64 SP:f9 CYC:17823
fa3b  30 28      BMI $fa65   A:40 X:ff Y:a4 P:64 SP:f9 CYC:17825
fa3d  c9 40      CMP #$40    A:40 X:ff Y:a4 P:64 SP:f9 CYC:17827
fa3f  d0 24      BNE $fa65   A:40 X:ff Y:a4 P:67 SP:f9 CYC:17829
fa41  60         RTS         A:40 X:ff Y:a4 P:67 SP:f9 CYC:17831
eae3  ad 47 06   LDA $0647   A:40 X:ff Y:a4 P:67 SP:fb CYC:17837
eae6  c9 ea      CMP #$ea    A:ea X:ff Y:a4 P:e5 SP:fb CYC:17841
eae8  f0 02      BEQ $eaec   A:ea X:ff Y:a4 P:67 SP:fb CYC:17843
eaec  a0 ff      LDY #$ff    A:ea X:ff Y:a4 P:67 SP:fb CYC:17846
eaee  a9 00      LDA #$00    A:ea X:ff Y:ff P:e5 SP:fb CYC:17848
eaf0  8d 47 06   STA $0647   A:00 X:ff Y:ff P:67 SP:fb CYC:17850
eaf3  20 42 fa   JSR $fa42   A:00 X:ff Y:ff P:67 SP:fb CYC:17854
fa42  b8         CLV         A:00 X:ff Y:ff P:67 SP:f9 CYC:17860
fa43  38         SEC         A:00 X:ff Y:ff P:27 SP:f9 CYC:17862
fa44  a9 ff      LDA #$ff    A:00 X:ff Y:ff P:27 SP:f9 CYC:17864
fa46  60         RTS         A:ff X:ff Y:ff P:a5 SP:f9 CYC:17866
eaf6  db 48 05   DCP $0548,Y A:ff X:ff Y:ff P:a5 SP:fb CYC:17872
eaf9  ea         NOP         A:ff X:ff Y:ff P:27 SP:fb CYC:17879
eafa  ea         NOP         A:ff X:ff Y:ff P:27 SP:fb CYC:17881
eafb  08         PHP         A:ff X:ff Y:ff P:27 SP:fb CYC:17883
eafc  48         PHA         A:ff X:ff Y:ff P:27 SP:fa CYC:17886
eafd  a0 a5      LDY #$a5    A:ff X:ff Y:ff P:27 SP:f9 CYC:17889
eaff  68         PLA         A:ff X:ff Y:a5 P:a5 SP:f9 CYC:17891
eb00  28         PLP         A:ff X:ff Y:a5 P:a5 SP:fa CYC:17895
eb01  20 47 fa   JSR $fa47   A:ff X:ff Y:a5 P:27 SP:fb CYC:17899
fa47  70 1c      BVS $fa65   A:ff X:ff Y:a5 P:27 SP:f9 CYC:17905
fa49  d0 1a      BNE $fa65   A:ff X:ff Y:a5 P:27 SP:f9 CYC:17907
fa4b  30 18      BMI $fa65   A:ff X:ff Y:a5 P:27 SP:f9 CYC:17909
fa4d  90 16      BCC $fa65   A:ff X:ff Y:a5 P:27 SP:f9 CYC:17911
fa4f  c9 ff      CMP #$ff    A:ff X:ff Y:a5 P:27 SP:f9 CYC:17913
fa51  d0 12      BNE $fa65   A:ff X:ff Y:a5 P:27 SP:f9 CYC:17915
fa53  60         RTS         A:ff X:ff Y:a5 P:27 SP:f9 CYC:17917
eb04  ad 47 06   LDA $0647   A:ff X:ff Y:a5 P:27 SP:fb CYC:17923
eb07  c9 ff      CMP #$ff    A:ff X:ff Y:a5 P:a5 SP:fb CYC:17927
eb09  f0 02      BEQ $eb0d   A:ff X:ff Y:a5 P:27 SP:fb CYC:17929
eb0d  a0 ff      LDY #$ff    A:ff X:ff Y:a5 P:27 SP:fb CYC:17932
eb0f  a9 37      LDA #$37    A:ff X:ff Y:ff P:a5 SP:fb CYC:17934
eb11  8d 47 06   STA $0647   A:37 X:ff Y:ff P:25 SP:fb CYC:17936
eb14  20 54 fa   JSR $fa54   A:37 X:ff Y:ff P:25 SP:fb CYC:17940
fa54  24 01      BIT $01     A:37 X:ff Y:ff P:25 SP:f9 CYC:17946
fa56  a9 f0      LDA #$f0    A:37 X:ff Y:ff P:e5 SP:f9 CYC:17949
fa58  60         RTS         A:f0 X:ff Y:ff P:e5 SP:f9 CYC:17951
eb17  db 48 05   DCP $0548,Y A:f0 X:ff Y:ff P:e5 SP:fb CYC:17957
eb1a  ea         NOP         A:f0 X:ff Y:ff P:e5 SP:fb CYC:17964
eb1b  ea         NOP         A:f0 X:ff Y:ff P:e5 SP:fb CYC:17966
eb1c  08         PHP         A:f0 X:ff Y:ff P:e5 SP:fb CYC:17968
eb1d  48         PHA         A:f0 X:ff Y:ff P:e5 SP:fa CYC:17971
eb1e  a0 a6      LDY #$a6    A:f0 X:ff Y:ff P:e5 SP:f9 CYC:17974
eb20  68         PLA         A:f0 X:ff Y:a6 P:e5 SP:f9 CYC:17976
eb21  28         PLP         A:f0 X:ff Y:a6 P:e5 SP:fa CYC:17980
eb22  20 59 fa   JSR $fa59   A:f0 X:ff Y:a6 P:e5 SP:fb CYC:17984
fa59  50 0a      BVC $fa65   A:f0 X:ff Y:a6 P:e5 SP:f9 CYC:17990
fa5b  f0 08      BEQ $fa65   A:f0 X:ff Y:a6 P:e5 SP:f9 CYC:17992
fa5d  10 06      BPL $fa65   A:f0 X:ff Y:a6 P:e5 SP:f9 CYC:17994
fa5f  90 04      BCC $fa65   A:f0 X:ff Y:a6 P:e5 SP:f9 CYC:17996
fa61  c9 f0      CMP #$f0    A:f0 X:ff Y:a6 P:e5 SP:f9 CYC:17998
fa63  f0 02      BEQ $fa67   A:f0 X:ff Y:a6 P:67 SP:f9 CYC:18000
fa67  60         RTS         A:f0 X:ff Y:a6 P:67 SP:f9 CYC:18003
eb25  ad 47 06   LDA $0647   A:f0 X:ff Y:a6 P:67 SP:fb CYC:18009
eb28  c9 36      CMP #$36    A:36 X:ff Y:a6 P:65 SP:fb CYC:18013
eb2a  f0 02      BEQ $eb2e   A:36 X:ff Y:a6 P:67 SP:fb CYC:18015
eb2e  a0 a7      LDY #$a7    A:36 X:ff Y:a6 P:67 SP:fb CYC:18018
eb30  a2 ff      LDX #$ff    A:36 X:ff Y:a7 P:e5 SP:fb CYC:18020
eb32  a9 eb      LDA #$eb    A:36 X:ff Y:a7 P:e5 SP:fb CYC:18022
eb34  8d 47 06   STA $0647   A:eb X:ff Y:a7 P:e5 SP:fb CYC:18024
eb37  20 31 fa   JSR $fa31   A:eb X:ff Y:a7 P:e5 SP:fb CYC:18028
fa31  24 01      BIT $01     A:eb X:ff Y:a7 P:e5 SP:f9 CYC:18034
fa33  18         CLC         A:eb X:ff Y:a7 P:e5 SP:f9 CYC:18037
fa34  a9 40      LDA #$40    A:eb X:ff Y:a7 P:e4 SP:f9 CYC:18039
fa36  60         RTS         A:40 X:ff Y:a7 P:64 SP:f9 CYC:18041
eb3a  df 48 05   DCP $0548,X A:40 X:ff Y:a7 P:64 SP:fb CYC:18047
eb3d  ea         NOP         A:40 X:ff Y:a7 P:64 SP:fb CYC:18054
eb3e  ea         NOP         A:40 X:ff Y:a7 P:64 SP:fb CYC:18056
eb3f  ea         NOP         A:40 X:ff Y:a7 P:64 SP:fb CYC:18058
eb40  ea         NOP         A:40 X:ff Y:a7 P:64 SP:fb CYC:18060
eb41  20 37 fa   JSR $fa37   A:40 X:ff Y:a7 P:64 SP:fb CYC:18062
fa37  50 2c      BVC $fa65   A:40 X:ff Y:a7 P:64 SP:f9 CYC:18068
fa39  b0 2a      BCS $fa65   A:40 X:ff Y:a7 P:64 SP:f9 CYC:18070
fa3b  30 28      BMI $fa65   A:40 X:ff Y:a7 P:64 SP:f9 CYC:18072
fa3d  c9 40      CMP #$40    A:40 X:ff Y:a7 P:64 SP:f9 CYC:18074
fa3f  d0 24      BNE $fa65   A:40 X:ff Y:a7 P:67 SP:f9 CYC:18076
fa41  60         RTS         A:40 X:ff Y:a7 P:67 SP:f9 CYC:18078
eb44  ad 47 06   LDA $0647   A:40 X:ff Y:a7 P:67 SP:fb CYC:18084
eb47  c9 ea      CMP #$ea    A:ea X:ff Y:a7 P:e5 SP:fb CYC:18088
eb49  f0 02      BEQ $eb4d   A:ea X:ff Y:a7 P:67 SP:fb CYC:18090
eb4d  c8         INY         A:ea X:ff Y:a7 P:67 SP:fb CYC:18093
eb4e  a9 00      LDA #$00    A:ea X:ff Y:a8 P:e5 SP:fb CYC:18095
eb50  8d 47 06   STA $0647   A:00 X:ff Y:a8 P:67 SP:fb CYC:18097
eb53  20 42 fa   JSR $fa42   A:00 X:ff Y:a8 P:67 SP:fb CYC:18101
fa42  b8         CLV         A:00 X:ff Y:a8 P:67 SP:f9 CYC:18107
fa43  38         SEC         A:00 X:ff Y:a8 P:27 SP:f9 CYC:18109
fa44  a9 ff      LDA #$ff    A:00 X:ff Y:a8 P:27 SP:f9 CYC:18111
fa46  60         RTS         A:ff X:ff Y:a8 P:a5 SP:f9 CYC:18113
eb56  df 48 05   DCP $0548,X A:ff X:ff Y:a8 P:a5 SP:fb CYC:18119
eb59  ea         NOP         A:ff X:ff Y:a8 P:27 SP:fb CYC:18126
eb5a  ea         NOP         A:ff X:ff Y:a8 P:27 SP:fb CYC:18128
eb5b  ea         NOP         A:ff X:ff Y:a8 P:27 SP:fb CYC:18130
eb5c  ea         NOP         A:ff X:ff Y:a8 P:27 SP:fb CYC:18132
eb5d  20 47 fa   JSR $fa47   A:ff X:ff Y:a8 P:27 SP:fb CYC:18134
fa47  70 1c      BVS $fa65   A:ff X:ff Y:a8 P:27 SP:f9 CYC:18140
fa49  d0 1a      BNE $fa65   A:ff X:ff Y:a8 P:27 SP:f9 CYC:18142
fa4b  30 18      BMI $fa65   A:ff X:ff Y:a8 P:27 SP:f9 CYC:18144
fa4d  90 16      BCC $fa65   A:ff X:ff Y:a8 P:27 SP:f9 CYC:18146
fa4f  c9 ff      CMP #$ff    A:ff X:ff Y:a8 P:27 SP:f9 CYC:18148
fa51  d0 12      BNE $fa65   A:ff X:ff Y:a8 P:27 SP:f9 CYC:18150
fa53  60         RTS         A:ff X:ff Y:a8 P:27 SP:f9 CYC:18152
eb60  ad 47 06   LDA $0647   A:ff X:ff Y:a8 P:27 SP:fb CYC:18158
eb63  c9 ff      CMP #$ff    A:ff X:ff Y:a8 P:a5 SP:fb CYC:18162
eb65  f0 02      BEQ $eb69   A:ff X:ff Y:a8 P:27 SP:fb CYC:18164
eb69  c8         INY         A:ff X:ff Y:a8 P:27 SP:fb CYC:18167
eb6a  a9 37      LDA #$37    A:ff X:ff Y:a9 P:a5 SP:fb CYC:18169
eb6c  8d 47 06   STA $0647   A:37 X:ff Y:a9 P:25 SP:fb CYC:18171
eb6f  20 54 fa   JSR $fa54   A:37 X:ff Y:a9 P:25 SP:fb CYC:18175
fa54  24 01      BIT $01     A:37 X:ff Y:a9 P:25 SP:f9 CYC:18181
fa56  a9 f0      LDA #$f0    A:37 X:ff Y:a9 P:e5 SP:f9 CYC:18184
fa58  60         RTS         A:f0 X:ff Y:a9 P:e5 SP:f9 CYC:18186
eb72  df 48 05   DCP $0548,X A:f0 X:ff Y:a9 P:e5 SP:fb CYC:18192
eb75  ea         NOP         A:f0 X:ff Y:a9 P:e5 SP:fb CYC:18199
eb76  ea         NOP         A:f0 X:ff Y:a9 P:e5 SP:fb CYC:18201
eb77  ea         NOP         A:f0 X:ff Y:a9 P:e5 SP:fb CYC:18203
eb78  ea         NOP         A:f0 X:ff Y:a9 P:e5 SP:fb CYC:18205
eb79  20 59 fa   JSR $fa59   A:f0 X:ff Y:a9 P:e5 SP:fb CYC:18207
fa59  50 0a      BVC $fa65   A:f0 X:ff Y:a9 P:e5 SP:f9 CYC:18213
fa5b  f0 08      BEQ $fa65   A:f0 X:ff Y:a9 P:e5 SP:f9 CYC:18215
fa5d  10 06      BPL $fa65   A:f0 X:ff Y:a9 P:e5 SP:f9 CYC:18217
fa5f  90 04      BCC $fa65   A:f0 X:ff Y:a9 P:e5 SP:f9 CYC:18219
fa61  c9 f0      CMP #$f0    A:f0 X:ff Y:a9 P:e5 SP:f9 CYC:18221
fa63  f0 02      BEQ $fa67   A:f0 X:ff Y:a9 P:67 SP:f9 CYC:18223
fa67  60         RTS         A:f0 X:ff Y:a9 P:67 SP:f9 CYC:18226
eb7c  ad 47 06   LDA $0647   A:f0 X:ff Y:a9 P:67 SP:fb CYC:18232
eb7f  c9 36      CMP #$36    A:36 X:ff Y:a9 P:65 SP:fb CYC:18236
eb81  f0 02      BEQ $eb85   A:36 X:ff Y:a9 P:67 SP:fb CYC:18238
eb85  60         RTS         A:36 X:ff Y:a9 P:67 SP:fb CYC:18241
c63e  20 86 eb   JSR $eb86   A:36 X:ff Y:a9 P:67 SP:fd CYC:18247
eb86  a9 ff      LDA #$ff    A:36 X:ff Y:a9 P:67 SP:fb CYC:18253
eb88  85 01      STA $01     A:ff X:ff Y:a9 P:e5 SP:fb CYC:18255
eb8a  a0 aa      LDY #$aa    A:ff X:ff Y:a9 P:e5 SP:fb CYC:18258
eb8c  a2 02      LDX #$02    A:ff X:ff Y:aa P:e5 SP:fb CYC:18260
eb8e  a9 47      LDA #$47    A:ff X:02 Y:aa P:65 SP:fb CYC:18262
eb90  85 47      STA $47     A:47 X:02 Y:aa P:65 SP:fb CYC:18264
eb92  a9 06      LDA #$06    A:47 X:02 Y:aa P:65 SP:fb CYC:18267
eb94  85 48      STA $48     A:06 X:02 Y:aa P:65 SP:fb CYC:18269
eb96  a9 eb      LDA #$eb    A:06 X:02 Y:aa P:65 SP:fb CYC:18272
eb98  8d 47 06   STA $0647   A:eb X:02 Y:aa P:e5 SP:fb CYC:18274
eb9b  20 b1 fa   JSR $fab1   A:eb X:02 Y:aa P:e5 SP:fb CYC:18278
fab1  24 01      BIT $01     A:eb X:02 Y:aa P:e5 SP:f9 CYC:18284
fab3  18         CLC         A:eb X:02 Y:aa P:e5 SP:f9 CYC:18287
fab4  a9 40      LDA #$40    A:eb X:02 Y:aa P:e4 SP:f9 CYC:18289
fab6  60         RTS         A:40 X:02 Y:aa P:64 SP:f9 CYC:18291
eb9e  e3 45      ISC ($45,X) A:40 X:02 Y:aa P:64 SP:fb CYC:18297
eba0  ea         NOP         A:53 X:02 Y:aa P:24 SP:fb CYC:18305
eba1  ea         NOP         A:53 X:02 Y:aa P:24 SP:fb CYC:18307
eba2  ea         NOP         A:53 X:02 Y:aa P:24 SP:fb CYC:18309
eba3  ea         NOP         A:53 X:02 Y:aa P:24 SP:fb CYC:18311
eba4  20 b7 fa   JSR $fab7   A:53 X:02 Y:aa P:24 SP:fb CYC:18313
fab7  70 2d      BVS $fae6   A:53 X:02 Y:aa P:24 SP:f9 CYC:18319
fab9  b0 2b      BCS $fae6   A:53 X:02 Y:aa P:24 SP:f9 CYC:18321
fabb  30 29      BMI $fae6   A:53 X:02 Y:aa P:24 SP:f9 CYC:18323
fabd  c9 53      CMP #$53    A:53 X:02 Y:aa P:24 SP:f9 CYC:18325
fabf  d0 25      BNE $fae6   A:53 X:02 Y:aa P:27 SP:f9 CYC:18327
fac1  60         RTS         A:53 X:02 Y:aa P:27 SP:f9 CYC:18329
eba7  ad 47 06   LDA $0647   A:53 X:02 Y:aa P:27 SP:fb CYC:18335
ebaa  c9 ec      CMP #$ec    A:ec X:02 Y:aa P:a5 SP:fb CYC:18339
ebac  f0 02      BEQ $ebb0   A:ec X:02 Y:aa P:27 SP:fb CYC:18341
ebb0  c8         INY         A:ec X:02 Y:aa P:27 SP:fb CYC:18344
ebb1  a9 ff      LDA #$ff    A:ec X:02 Y:ab P:a5 SP:fb CYC:18346
ebb3  8d 47 06   STA $0647   A:ff X:02 Y:ab P:a5 SP:fb CYC:18348
ebb6  20 c2 fa   JSR $fac2   A:ff X:02 Y:ab P:a5 SP:fb CYC:18352
fac2  b8         CLV         A:ff X:02 Y:ab P:a5 SP:f9 CYC:18358
fac3  38         SEC         A:ff X:02 Y:ab P:a5 SP:f9 CYC:18360
fac4  a9 ff      LDA #$ff    A:ff X:02 Y:ab P:a5 SP:f9 CYC:18362
fac6  60         RTS         A:ff X:02 Y:ab P:a5 SP:f9 CYC:18364
ebb9  e3 45      ISC ($45,X) A:ff X:02 Y:ab P:a5 SP:fb CYC:18370
ebbb  ea         NOP         A:ff X:02 Y:ab P:a5 SP:fb CYC:18378
ebbc  ea         NOP         A:ff X:02 Y:ab P:a5 SP:fb CYC:18380
ebbd  ea         NOP         A:ff X:02 Y:ab P:a5 SP:fb CYC:18382
ebbe  ea         NOP         A:ff X:02 Y:ab P:a5 SP:fb CYC:18384
ebbf  20 c7 fa   JSR $fac7   A:ff X:02 Y:ab P:a5 SP:fb CYC:18386
fac7  70 1d      BVS $fae6   A:ff X:02 Y:ab P:a5 SP:f9 CYC:18392
fac9  f0 1b      BEQ $fae6   A:ff X:02 Y:ab P:a5 SP:f9 CYC:18394
facb  10 19      BPL $fae6   A:ff X:02 Y:ab P:a5 SP:f9 CYC:18396
facd  90 17      BCC $fae6   A:ff X:02 Y:ab P:a5 SP:f9 CYC:18398
facf  c9 ff      CMP #$ff    A:ff X:02 Y:ab P:a5 SP:f9 CYC:18400
fad1  d0 13      BNE $fae6   A:ff X:02 Y:ab P:27 SP:f9 CYC:18402
fad3  60         RTS         A:ff X:02 Y:ab P:27 SP:f9 CYC:18404
ebc2  ad 47 06   LDA $0647   A:ff X:02 Y:ab P:27 SP:fb CYC:18410
ebc5  c9 00      CMP #$00    A:00 X:02 Y:ab P:27 SP:fb CYC:18414
ebc7  f0 02      BEQ $ebcb   A:00 X:02 Y:ab P:27 SP:fb CYC:18416
ebcb  c8         INY         A:00 X:02 Y:ab P:27 SP:fb CYC:18419
ebcc  a9 37      LDA #$37    A:00 X:02 Y:ac P:a5 SP:fb CYC:18421
ebce  8d 47 06   STA $0647   A:37 X:02 Y:ac P:25 SP:fb CYC:18423
ebd1  20 d4 fa   JSR $fad4   A:37 X:02 Y:ac P:25 SP:fb CYC:18427
fad4  24 01      BIT $01     A:37 X:02 Y:ac P:25 SP:f9 CYC:18433
fad6  38         SEC         A:37 X:02 Y:ac P:e5 SP:f9 CYC:18436
fad7  a9 f0      LDA #$f0    A:37 X:02 Y:ac P:e5 SP:f9 CYC:18438
fad9  60         RTS         A:f0 X:02 Y:ac P:e5 SP:f9 CYC:18440
ebd4  e3 45      ISC ($45,X) A:f0 X:02 Y:ac P:e5 SP:fb CYC:18446
ebd6  ea         NOP         A:b8 X:02 Y:ac P:a5 SP:fb CYC:18454
ebd7  ea         NOP         A:b8 X:02 Y:ac P:a5 SP:fb CYC:18456
ebd8  ea         NOP         A:b8 X:02 Y:ac P:a5 SP:fb CYC:18458
ebd9  ea         NOP         A:b8 X:02 Y:ac P:a5 SP:fb CYC:18460
ebda  20 da fa   JSR $fada   A:b8 X:02 Y:ac P:a5 SP:fb CYC:18462
fada  70 0a      BVS $fae6   A:b8 X:02 Y:ac P:a5 SP:f9 CYC:18468
fadc  f0 08      BEQ $fae6   A:b8 X:02 Y:ac P:a5 SP:f9 CYC:18470
fade  10 06      BPL $fae6   A:b8 X:02 Y:ac P:a5 SP:f9 CYC:18472
fae0  90 04      BCC $fae6   A:b8 X:02 Y:ac P:a5 SP:f9 CYC:18474
fae2  c9 b8      CMP #$b8    A:b8 X:02 Y:ac P:a5 SP:f9 CYC:18476
fae4  f0 02      BEQ $fae8   A:b8 X:02 Y:ac P:27 SP:f9 CYC:18478
fae8  60         RTS         A:b8 X:02 Y:ac P:27 SP:f9 CYC:18481
ebdd  ad 47 06   LDA $0647   A:b8 X:02 Y:ac P:27 SP:fb CYC:18487
ebe0  c9 38      CMP #$38    A:38 X:02 Y:ac P:25 SP:fb CYC:18491
ebe2  f0 02      BEQ $ebe6   A:38 X:02 Y:ac P:27 SP:fb CYC:18493
ebe6  c8         INY         A:38 X:02 Y:ac P:27 SP:fb CYC:18496
ebe7  a9 eb      LDA #$eb    A:38 X:02 Y:ad P:a5 SP:fb CYC:18498
ebe9  85 47      STA $47     A:eb X:02 Y:ad P:a5 SP:fb CYC:18500
ebeb  20 b1 fa   JSR $fab1   A:eb X:02 Y:ad P:a5 SP:fb CYC:18503
fab1  24 01      BIT $01     A:eb X:02 Y:ad P:a5 SP:f9 CYC:18509
fab3  18         CLC         A:eb X:02 Y:ad P:e5 SP:f9 CYC:18512
fab4  a9 40      LDA #$40    A:eb X:02 Y:ad P:e4 SP:f9 CYC:18514
fab6  60         RTS         A:40 X:02 Y:ad P:64 SP:f9 CYC:18516
ebee  e7 47      ISC $47     A:40 X:02 Y:ad P:64 SP:fb CYC:18522
ebf0  ea         NOP         A:53 X:02 Y:ad P:24 SP:fb CYC:18527
ebf1  ea         NOP         A:53 X:02 Y:ad P:24 SP:fb CYC:18529
ebf2  ea         NOP         A:53 X:02 Y:ad P:24 SP:fb CYC:18531
ebf3  ea         NOP         A:53 X:02 Y:ad P:24 SP:fb CYC:18533
ebf4  20 b7 fa   JSR $fab7   A:53 X:02 Y:ad P:24 SP:fb CYC:18535
fab7  70 2d      BVS $fae6   A:53 X:02 Y:ad P:24 SP:f9 CYC:18541
fab9  b0 2b      BCS $fae6   A:53 X:02 Y:ad P:24 SP:f9 CYC:18543
fabb  30 29      BMI $fae6   A:53 X:02 Y:ad P:24 SP:f9 CYC:18545
fabd  c9 53      CMP #$53    A:53 X:02 Y:ad P:24 SP:f9 CYC:18547
fabf  d0 25      BNE $fae6   A:53 X:02 Y:ad P:27 SP:f9 CYC:18549
fac1  60         RTS         A:53 X:02 Y:ad P:27 SP:f9 CYC:18551
ebf7  a5 47      LDA $47     A:53 X:02 Y:ad P:27 SP:fb CYC:18557
ebf9  c9 ec      CMP #$ec    A:ec X:02 Y:ad P:a5 SP:fb CYC:18560
ebfb  f0 02      BEQ $ebff   A:ec X:02 Y:ad P:27 SP:fb CYC:18562
ebff  c8         INY         A:ec X:02 Y:ad P:27 SP:fb CYC:18565
ec00  a9 ff      LDA #$ff    A:ec X:02 Y:ae P:a5 SP:fb CYC:18567
ec02  85 47      STA $47     A:ff X:02 Y:ae P:a5 SP:fb CYC:18569
ec04  20 c2 fa   JSR $fac2   A:ff X:02 Y:ae P:a5 SP:fb CYC:18572
fac2  b8         CLV         A:ff X:02 Y:ae P:a5 SP:f9 CYC:18578
fac3  38         SEC         A:ff X:02 Y:ae P:a5 SP:f9 CYC:18580
fac4  a9 ff      LDA #$ff    A:ff X:02 Y:ae P:a5 SP:f9 CYC:18582
fac6  60         RTS         A:ff X:02 Y:ae P:a5 SP:f9 CYC:18584
ec07  e7 47      ISC $47     A:ff X:02 Y:ae P:a5 SP:fb CYC:18590
ec09  ea         NOP         A:ff X:02 Y:ae P:a5 SP:fb CYC:18595
ec0a  ea         NOP         A:ff X:02 Y:ae P:a5 SP:fb CYC:18597
ec0b  ea         NOP         A:ff X:02 Y:ae P:a5 SP:fb CYC:18599
ec0c  ea         NOP         A:ff X:02 Y:ae P:a5 SP:fb CYC:18601
ec0d  20 c7 fa   JSR $fac7   A:ff X:02 Y:ae P:a5 SP:fb CYC:18603
fac7  70 1d      BVS $fae6   A:ff X:02 Y:ae P:a5 SP:f9 CYC:18609
fac9  f0 1b      BEQ $fae6   A:ff X:02 Y:ae P:a5 SP:f9 CYC:18611
facb  10 19      BPL $fae6   A:ff X:02 Y:ae P:a5 SP:f9 CYC:18613
facd  90 17      BCC $fae6   A:ff X:02 Y:ae P:a5 SP:f9 CYC:18615
facf  c9 ff      CMP #$ff    A:ff X:02 Y:ae P:a5 SP:f9 CYC:18617
fad1  d0 13      BNE $fae6   A:ff X:02 Y:ae P:27 SP:f9 CYC:18619
fad3  60         RTS         A:ff X:02 Y:ae P:27 SP:f9 CYC:18621
ec10  a5 47      LDA $47     A:ff X:02 Y:ae P:27 SP:fb CYC:18627
ec12  c9 00      CMP #$00    A:00 X:02 Y:ae P:27 SP:fb CYC:18630
ec14  f0 02      BEQ $ec18   A:00 X:02 Y:ae P:27 SP:fb CYC:18632
ec18  c8         INY         A:00 X:02 Y:ae P:27 SP:fb CYC:18635
ec19  a9 37      LDA #$37    A:00 X:02 Y:af P:a5 SP:fb CYC:18637
ec1b  85 47      STA $47     A:37 X:02 Y:af P:25 SP:fb CYC:18639
ec1d  20 d4 fa   JSR $fad4   A:37 X:02 Y:af P:25 SP:fb CYC:18642
fad4  24 01      BIT $01     A:37 X:02 Y:af P:25 SP:f9 CYC:18648
fad6  38         SEC         A:37 X:02 Y:af P:e5 SP:f9 CYC:18651
fad7  a9 f0      LDA #$f0    A:37 X:02 Y:af P:e5 SP:f9 CYC:18653
fad9  60         RTS         A:f0 X:02 Y:af P:e5 SP:f9 CYC:18655
ec20  e7 47      ISC $47     A:f0 X:02 Y:af P:e5 SP:fb CYC:18661
ec22  ea         NOP         A:b8 X:02 Y:af P:a5 SP:fb CYC:18666
ec23  ea         NOP         A:b8 X:02 Y:af P:a5 SP:fb CYC:18668
ec24  ea         NOP         A:b8 X:02 Y:af P:a5 SP:fb CYC:18670
ec25  ea         NOP         A:b8 X:02 Y:af P:a5 SP:fb CYC:18672
ec26  20 da fa   JSR $fada   A:b8 X:02 Y:af P:a5 SP:fb CYC:18674
fada  70 0a      BVS $fae6   A:b8 X:02 Y:af P:a5 SP:f9 CYC:18680
fadc  f0 08      BEQ $fae6   A:b8 X:02 Y:af P:a5 SP:f9 CYC:18682
fade  10 06      BPL $fae6   A:b8 X:02 Y:af P:a5 SP:f9 CYC:18684
fae0  90 04      BCC $fae6   A:b8 X:02 Y:af P:a5 SP:f9 CYC:18686
fae2  c9 b8      CMP #$b8    A:b8 X:02 Y:af P:a5 SP:f9 CYC:18688
fae4  f0 02      BEQ $fae8   A:b8 X:02 Y:af P:27 SP:f9 CYC:18690
fae8  60         RTS         A:b8 X:02 Y:af P:27 SP:f9 CYC:18693
ec29  a5 47      LDA $47     A:b8 X:02 Y:af P:27 SP:fb CYC:18699
ec2b  c9 38      CMP #$38    A:38 X:02 Y:af P:25 SP:fb CYC:18702
ec2d  f0 02      BEQ $ec31   A:38 X:02 Y:af P:27 SP:fb CYC:18704
ec31  c8         INY         A:38 X:02 Y:af P:27 SP:fb CYC:18707
ec32  a9 eb      LDA #$eb    A:38 X:02 Y:b0 P:a5 SP:fb CYC:18709
ec34  8d 47 06   STA $0647   A:eb X:02 Y:b0 P:a5 SP:fb CYC:18711
ec37  20 b1 fa   JSR $fab1   A:eb X:02 Y:b0 P:a5 SP:fb CYC:18715
fab1  24 01      BIT $01     A:eb X:02 Y:b0 P:a5 SP:f9 CYC:18721
fab3  18         CLC         A:eb X:02 Y:b0 P:e5 SP:f9 CYC:18724
fab4  a9 40      LDA #$40    A:eb X:02 Y:b0 P:e4 SP:f9 CYC:18726
fab6  60         RTS         A:40 X:02 Y:b0 P:64 SP:f9 CYC:18728
ec3a  ef 47 06   ISC $0647   A:40 X:02 Y:b0 P:64 SP:fb CYC:18734
ec3d  ea         NOP         A:53 X:02 Y:b0 P:24 SP:fb CYC:18740
ec3e  ea         NOP         A:53 X:02 Y:b0 P:24 SP:fb CYC:18742
ec3f  ea         NOP         A:53 X:02 Y:b0 P:24 SP:fb CYC:18744
ec40  ea         NOP         A:53 X:02 Y:b0 P:24 SP:fb CYC:18746
ec41  20 b7 fa   JSR $fab7   A:53 X:02 Y:b0 P:24 SP:fb CYC:18748
fab7  70 2d      BVS $fae6   A:53 X:02 Y:b0 P:24 SP:f9 CYC:18754
fab9  b0 2b      BCS $fae6   A:53 X:02 Y:b0 P:24 SP:f9 CYC:18756
fabb  30 29      BMI $fae6   A:53 X:02 Y:b0 P:24 SP:f9 CYC:18758
fabd  c9 53      CMP #$53    A:53 X:02 Y:b0 P:24 SP:f9 CYC:18760
fabf  d0 25      BNE $fae6   A:53 X:02 Y:b0 P:27 SP:f9 CYC:18762
fac1  60         RTS         A:53 X:02 Y:b0 P:27 SP:f9 CYC:18764
ec44  ad 47 06   LDA $0647   A:53 X:02 Y:b0 P:27 SP:fb CYC:18770
ec47  c9 ec      CMP #$ec    A:ec X:02 Y:b0 P:a5 SP:fb CYC:18774
ec49  f0 02      BEQ $ec4d   A:ec X:02 Y:b0 P:27 SP:fb CYC:18776
ec4d  c8         INY         A:ec X:02 Y:b0 P:27 SP:fb CYC:18779
ec4e  a9 ff      LDA #$ff    A:ec X:02 Y:b1 P:a5 SP:fb CYC:18781
ec50  8d 47 06   STA $0647   A:ff X:02 Y:b1 P:a5 SP:fb CYC:18783
ec53  20 c2 fa   JSR $fac2   A:ff X:02 Y:b1 P:a5 SP:fb CYC:18787
fac2  b8         CLV         A:ff X:02 Y:b1 P:a5 SP:f9 CYC:18793
fac3  38         SEC         A:ff X:02 Y:b1 P:a5 SP:f9 CYC:18795
fac4  a9 ff      LDA #$ff    A:ff X:02 Y:b1 P:a5 SP:f9 CYC:18797
fac6  60         RTS         A:ff X:02 Y:b1 P:a5 SP:f9 CYC:18799
ec56  ef 47 06   ISC $0647   A:ff X:02 Y:b1 P:a5 SP:fb CYC:18805
ec59  ea         NOP         A:ff X:02 Y:b1 P:a5 SP:fb CYC:18811
ec5a  ea         NOP         A:ff X:02 Y:b1 P:a5 SP:fb CYC:18813
ec5b  ea         NOP         A:ff X:02 Y:b1 P:a5 SP:fb CYC:18815
ec5c  ea         NOP         A:ff X:02 Y:b1 P:a5 SP:fb CYC:18817
ec5d  20 c7 fa   JSR $fac7   A:ff X:02 Y:b1 P:a5 SP:fb CYC:18819
fac7  70 1d      BVS $fae6   A:ff X:02 Y:b1 P:a5 SP:f9 CYC:18825
fac9  f0 1b      BEQ $fae6   A:ff X:02 Y:b1 P:a5 SP:f9 CYC:18827
facb  10 19      BPL $fae6   A:ff X:02 Y:b1 P:a5 SP:f9 CYC:18829
facd  90 17      BCC $fae6   A:ff X:02 Y:b1 P:a5 SP:f9 CYC:18831
facf  c9 ff      CMP #$ff    A:ff X:02 Y:b1 P:a5 SP:f9 CYC:18833
fad1  d0 13      BNE $fae6   A:ff X:02 Y:b1 P:27 SP:f9 CYC:18835
fad3  60         RTS         A:ff X:02 Y:b1 P:27 SP:f9 CYC:18837
ec60  ad 47 06   LDA $0647   A:ff X:02 Y:b1 P:27 SP:fb CYC:18843
ec63  c9 00      CMP #$00    A:00 X:02 Y:b1 P:27 SP:fb CYC:18847
ec65  f0 02      BEQ $ec69   A:00 X:02 Y:b1 P:27 SP:fb CYC:18849
ec69  c8         INY         A:00 X:02 Y:b1 P:27 SP:fb CYC:18852
ec6a  a9 37      LDA #$37    A:00 X:02 Y:b2 P:a5 SP:fb CYC:18854
ec6c  8d 47 06   STA $0647   A:37 X:02 Y:b2 P:25 SP:fb CYC:18856
ec6f  20 d4 fa   JSR $fad4   A:37 X:02 Y:b2 P:25 SP:fb CYC:18860
fad4  24 01      BIT $01     A:37 X:02 Y:b2 P:25 SP:f9 CYC:18866
fad6  38         SEC         A:37 X:02 Y:b2 P:e5 SP:f9 CYC:18869
fad7  a9 f0      LDA #$f0    A:37 X:02 Y:b2 P:e5 SP:f9 CYC:18871
fad9  60         RTS         A:f0 X:02 Y:b2 P:e5 SP:f9 CYC:18873
ec72  ef 47 06   ISC $0647   A:f0 X:02 Y:b2 P:e5 SP:fb CYC:18879
ec75  ea         NOP         A:b8 X:02 Y:b2 P:a5 SP:fb CYC:18885
ec76  ea         NOP         A:b8 X:02 Y:b2 P:a5 SP:fb CYC:18887
ec77  ea         NOP         A:b8 X:02 Y:b2 P:a5 SP:fb CYC:18889
ec78  ea         NOP         A:b8 X:02 Y:b2 P:a5 SP:fb CYC:18891
ec79  20 da fa   JSR $fada   A:b8 X:02 Y:b2 P:a5 SP:fb CYC:18893
fada  70 0a      BVS $fae6   A:b8 X:02 Y:b2 P:a5 SP:f9 CYC:18899
fadc  f0 08      BEQ $fae6   A:b8 X:02 Y:b2 P:a5 SP:f9 CYC:18901
fade  10 06      BPL $fae6   A:b8 X:02 Y:b2 P:a5 SP:f9 CYC:18903
fae0  90 04      BCC $fae6   A:b8 X:02 Y:b2 P:a5 SP:f9 CYC:18905
fae2  c9 b8      CMP #$b8    A:b8 X:02 Y:b2 P:a5 SP:f9 CYC:18907
fae4  f0 02      BEQ $fae8   A:b8 X:02 Y:b2 P:27 SP:f9 CYC:18909
fae8  60         RTS         A:b8 X:02 Y:b2 P:27 SP:f9 CYC:18912
ec7c  ad 47 06   LDA $0647   A:b8 X:02 Y:b2 P:27 SP:fb CYC:18918
ec7f  c9 38      CMP #$38    A:38 X:02 Y:b2 P:25 SP:fb CYC:18922
ec81  f0 02      BEQ $ec85   A:38 X:02 Y:b2 P:27 SP:fb CYC:18924
ec85  a9 eb      LDA #$eb    A:38 X:02 Y:b2 P:27 SP:fb CYC:18927
ec87  8d 47 06   STA $0647   A:eb X:02 Y:b2 P:a5 SP:fb CYC:18929
ec8a  a9 48      LDA #$48    A:eb X:02 Y:b2 P:a5 SP:fb CYC:18933
ec8c  85 45      STA $45     A:48 X:02 Y:b2 P:25 SP:fb CYC:18935
ec8e  a9 05      LDA #$05    A:48 X:02 Y:b2 P:25 SP:fb CYC:18938
ec90  85 46      STA $46     A:05 X:02 Y:b2 P:25 SP:fb CYC:18940
ec92  a0 ff      LDY #$ff    A:05 X:02 Y:b2 P:25 SP:fb CYC:18943
ec94  20 b1 fa   JSR $fab1   A:05 X:02 Y:ff P:a5 SP:fb CYC:18945
fab1  24 01      BIT $01     A:05 X:02 Y:ff P:a5 SP:f9 CYC:18951
fab3  18         CLC         A:05 X:02 Y:ff P:e5 SP:f9 CYC:18954
fab4  a9 40      LDA #$40    A:05 X:02 Y:ff P:e4 SP:f9 CYC:18956
fab6  60         RTS         A:40 X:02 Y:ff P:64 SP:f9 CYC:18958
ec97  f3 45      ISC ($45),Y A:40 X:02 Y:ff P:64 SP:fb CYC:18964
ec99  ea         NOP         A:53 X:02 Y:ff P:24 SP:fb CYC:18972
ec9a  ea         NOP         A:53 X:02 Y:ff P:24 SP:fb CYC:18974
ec9b  08         PHP         A:53 X:02 Y:ff P:24 SP:fb CYC:18976
ec9c  48         PHA         A:53 X:02 Y:ff P:24 SP:fa CYC:18979
ec9d  a0 b3      LDY #$b3    A:53 X:02 Y:ff P:24 SP:f9 CYC:18982
ec9f  68         PLA         A:53 X:02 Y:b3 P:a4 SP:f9 CYC:18984
eca0  28         PLP         A:53 X:02 Y:b3 P:24 SP:fa CYC:18988
eca1  20 b7 fa   JSR $fab7   A:53 X:02 Y:b3 P:24 SP:fb CYC:18992
fab7  70 2d      BVS $fae6   A:53 X:02 Y:b3 P:24 SP:f9 CYC:18998
fab9  b0 2b      BCS $fae6   A:53 X:02 Y:b3 P:24 SP:f9 CYC:19000
fabb  30 29      BMI $fae6   A:53 X:02 Y:b3 P:24 SP:f9 CYC:19002
fabd  c9 53      CMP #$53    A:53 X:02 Y:b3 P:24 SP:f9 CYC:19004
fabf  d0 25      BNE $fae6   A:53 X:02 Y:b3 P:27 SP:f9 CYC:19006
fac1  60         RTS         A:53 X:02 Y:b3 P:27 SP:f9 CYC:19008
eca4  ad 47 06   LDA $0647   A:53 X:02 Y:b3 P:27 SP:fb CYC:19014
eca7  c9 ec      CMP #$ec    A:ec X:02 Y:b3 P:a5 SP:fb CYC:19018
eca9  f0 02      BEQ $ecad   A:ec X:02 Y:b3 P:27 SP:fb CYC:19020
ecad  a0 ff      LDY #$ff    A:ec X:02 Y:b3 P:27 SP:fb CYC:19023
ecaf  a9 ff      LDA #$ff    A:ec X:02 Y:ff P:a5 SP:fb CYC:19025
ecb1  8d 47 06   STA $0647   A:ff X:02 Y:ff P:a5 SP:fb CYC:19027
ecb4  20 c2 fa   JSR $fac2   A:ff X:02 Y:ff P:a5 SP:fb CYC:19031
fac2  b8         CLV         A:ff X:02 Y:ff P:a5 SP:f9 CYC:19037
fac3  38         SEC         A:ff X:02 Y:ff P:a5 SP:f9 CYC:19039
fac4  a9 ff      LDA #$ff    A:ff X:02 Y:ff P:a5 SP:f9 CYC:19041
fac6  60         RTS         A:ff X:02 Y:ff P:a5 SP:f9 CYC:19043
ecb7  f3 45      ISC ($45),Y A:ff X:02 Y:ff P:a5 SP:fb CYC:19049
ecb9  ea         NOP         A:ff X:02 Y:ff P:a5 SP:fb CYC:19057
ecba  ea         NOP         A:ff X:02 Y:ff P:a5 SP:fb CYC:19059
ecbb  08         PHP         A:ff X:02 Y:ff P:a5 SP:fb CYC:19061
ecbc  48         PHA         A:ff X:02 Y:ff P:a5 SP:fa CYC:19064
ecbd  a0 b4      LDY #$b4    A:ff X:02 Y:ff P:a5 SP:f9 CYC:19067
ecbf  68         PLA         A:ff X:02 Y:b4 P:a5 SP:f9 CYC:19069
ecc0  28         PLP         A:ff X:02 Y:b4 P:a5 SP:fa CYC:19073
ecc1  20 c7 fa   JSR $fac7   A:ff X:02 Y:b4 P:a5 SP:fb CYC:19077
fac7  70 1d      BVS $fae6   A:ff X:02 Y:b4 P:a5 SP:f9 CYC:19083
fac9  f0 1b      BEQ $fae6   A:ff X:02 Y:b4 P:a5 SP:f9 CYC:19085
facb  10 19      BPL $fae6   A:ff X:02 Y:b4 P:a5 SP:f9 CYC:19087
facd  90 17      BCC $fae6   A:ff X:02 Y:b4 P:a5 SP:f9 CYC:19089
facf  c9 ff      CMP #$ff    A:ff X:02 Y:b4 P:a5 SP:f9 CYC:19091
fad1  d0 13      BNE $fae6   A:ff X:02 Y:b4 P:27 SP:f9 CYC:19093
fad3  60         RTS         A:ff X:02 Y:b4 P:27 SP:f9 CYC:19095
ecc4  ad 47 06   LDA $0647   A:ff X:02 Y:b4 P:27 SP:fb CYC:19101
ecc7  c9 00      CMP #$00    A:00 X:02 Y:b4 P:27 SP:fb CYC:19105
ecc9  f0 02      BEQ $eccd   A:00 X:02 Y:b4 P:27 SP:fb CYC:19107
eccd  a0 ff      LDY #$ff    A:00 X:02 Y:b4 P:27 SP:fb CYC:19110
eccf  a9 37      LDA #$37    A:00 X:02 Y:ff P:a5 SP:fb CYC:19112
ecd1  8d 47 06   STA $0647   A:37 X:02 Y:ff P:25 SP:fb CYC:19114
ecd4  20 d4 fa   JSR $fad4   A:37 X:02 Y:ff P:25 SP:fb CYC:19118
fad4  24 01      BIT $01     A:37 X:02 Y:ff P:25 SP:f9 CYC:19124
fad6  38         SEC         A:37 X:02 Y:ff P:e5 SP:f9 CYC:19127
fad7  a9 f0      LDA #$f0    A:37 X:02 Y:ff P:e5 SP:f9 CYC:19129
fad9  60         RTS         A:f0 X:02 Y:ff P:e5 SP:f9 CYC:19131
ecd7  f3 45      ISC ($45),Y A:f0 X:02 Y:ff P:e5 SP:fb CYC:19137
ecd9  ea         NOP         A:b8 X:02 Y:ff P:a5 SP:fb CYC:19145
ecda  ea         NOP         A:b8 X:02 Y:ff P:a5 SP:fb CYC:19147
ecdb  08         PHP         A:b8 X:02 Y:ff P:a5 SP:fb CYC:19149
ecdc  48         PHA         A:b8 X:02 Y:ff P:a5 SP:fa CYC:19152
ecdd  a0 b5      LDY #$b5    A:b8 X:02 Y:ff P:a5 SP:f9 CYC:19155
ecdf  68         PLA         A:b8 X:02 Y:b5 P:a5 SP:f9 CYC:19157
ece0  28         PLP         A:b8 X:02 Y:b5 P:a5 SP:fa CYC:19161
ece1  20 da fa   JSR $fada   A:b8 X:02 Y:b5 P:a5 SP:fb CYC:19165
fada  70 0a      BVS $fae6   A:b8 X:02 Y:b5 P:a5 SP:f9 CYC:19171
fadc  f0 08      BEQ $fae6   A:b8 X:02 Y:b5 P:a5 SP:f9 CYC:19173
fade  10 06      BPL $fae6   A:b8 X:02 Y:b5 P:a5 SP:f9 CYC:19175
fae0  90 04      BCC $fae6   A:b8 X:02 Y:b5 P:a5 SP:f9 CYC:19177
fae2  c9 b8      CMP #$b8    A:b8 X:02 Y:b5 P:a5 SP:f9 CYC:19179
fae4  f0 02      BEQ $fae8   A:b8 X:02 Y:b5 P:27 SP:f9 CYC:19181
fae8  60         RTS         A:b8 X:02 Y:b5 P:27 SP:f9 CYC:19184
ece4  ad 47 06   LDA $0647   A:b8 X:02 Y:b5 P:27 SP:fb CYC:19190
ece7  c9 38      CMP #$38    A:38 X:02 Y:b5 P:25 SP:fb CYC:19194
ece9  f0 02      BEQ $eced   A:38 X:02 Y:b5 P:27 SP:fb CYC:19196
eced  a0 b6      LDY #$b6    A:38 X:02 Y:b5 P:27 SP:fb CYC:19199
ecef  a2 ff      LDX #$ff    A:38 X:02 Y:b6 P:a5 SP:fb CYC:19201
ecf1  a9 eb      LDA #$eb    A:38 X:ff Y:b6 P:a5 SP:fb CYC:19203
ecf3  85 47      STA $47     A:eb X:ff Y:b6 P:a5 SP:fb CYC:19205
ecf5  20 b1 fa   JSR $fab1   A:eb X:ff Y:b6 P:a5 SP:fb CYC:19208
fab1  24 01      BIT $01     A:eb X:ff Y:b6 P:a5 SP:f9 CYC:19214
fab3  18         CLC         A:eb X:ff Y:b6 P:e5 SP:f9 CYC:19217
fab4  a9 40      LDA #$40    A:eb X:ff Y:b6 P:e4 SP:f9 CYC:19219
fab6  60         RTS         A:40 X:ff Y:b6 P:64 SP:f9 CYC:19221
ecf8  f7 48      ISC $48,X   A:40 X:ff Y:b6 P:64 SP:fb CYC:19227
ecfa  ea         NOP         A:53 X:ff Y:b6 P:24 SP:fb CYC:19233
ecfb  ea         NOP         A:53 X:ff Y:b6 P:24 SP:fb CYC:19235
ecfc  ea         NOP         A:53 X:ff Y:b6 P:24 SP:fb CYC:19237
ecfd  ea         NOP         A:53 X:ff Y:b6 P:24 SP:fb CYC:19239
ecfe  20 b7 fa   JSR $fab7   A:53 X:ff Y:b6 P:24 SP:fb CYC:19241
fab7  70 2d      BVS $fae6   A:53 X:ff Y:b6 P:24 SP:f9 CYC:19247
fab9  b0 2b      BCS $fae6   A:53 X:ff Y:b6 P:24 SP:f9 CYC:19249
fabb  30 29      BMI $fae6   A:53 X:ff Y:b6 P:24 SP:f9 CYC:19251
fabd  c9 53      CMP #$53    A:53 X:ff Y:b6 P:24 SP:f9 CYC:19253
fabf  d0 25      BNE $fae6   A:53 X:ff Y:b6 P:27 SP:f9 CYC:19255
fac1  60         RTS         A:53 X:ff Y:b6 P:27 SP:f9 CYC:19257
ed01  a5 47      LDA $47     A:53 X:ff Y:b6 P:27 SP:fb CYC:19263
ed03  c9 ec      CMP #$ec    A:ec X:ff Y:b6 P:a5 SP:fb CYC:19266
ed05  f0 02      BEQ $ed09   A:ec X:ff Y:b6 P:27 SP:fb CYC:19268
ed09  c8         INY         A:ec X:ff Y:b6 P:27 SP:fb CYC:19271
ed0a  a9 ff      LDA #$ff    A:ec X:ff Y:b7 P:a5 SP:fb CYC:19273
ed0c  85 47      STA $47     A:ff X:ff Y:b7 P:a5 SP:fb CYC:19275
ed0e  20 c2 fa   JSR $fac2   A:ff X:ff Y:b7 P:a5 SP:fb CYC:19278
fac2  b8         CLV         A:ff X:ff Y:b7 P:a5 SP:f9 CYC:19284
fac3  38         SEC         A:ff X:ff Y:b7 P:a5 SP:f9 CYC:19286
fac4  a9 ff      LDA #$ff    A:ff X:ff Y:b7 P:a5 SP:f9 CYC:19288
fac6  60         RTS         A:ff X:ff Y:b7 P:a5 SP:f9 CYC:19290
ed11  f7 48      ISC $48,X   A:ff X:ff Y:b7 P:a5 SP:fb CYC:19296
ed13  ea         NOP         A:ff X:ff Y:b7 P:a5 SP:fb CYC:19302
ed14  ea         NOP         A:ff X:ff Y:b7 P:a5 SP:fb CYC:19304
ed15  ea         NOP         A:ff X:ff Y:b7 P:a5 SP:fb CYC:19306
ed16  ea         NOP         A:ff X:ff Y:b7 P:a5 SP:fb CYC:19308
ed17  20 c7 fa   JSR $fac7   A:ff X:ff Y:b7 P:a5 SP:fb CYC:19310
fac7  70 1d      BVS $fae6   A:ff X:ff Y:b7 P:a5 SP:f9 CYC:19316
fac9  f0 1b      BEQ $fae6   A:ff X:ff Y:b7 P:a5 SP:f9 CYC:19318
facb  10 19      BPL $fae6   A:ff X:ff Y:b7 P:a5 SP:f9 CYC:19320
facd  90 17      BCC $fae6   A:ff X:ff Y:b7 P:a5 SP:f9 CYC:19322
facf  c9 ff      CMP #$ff    A:ff X:ff Y:b7 P:a5 SP:f9 CYC:19324
fad1  d0 13      BNE $fae6   A:ff X:ff Y:b7 P:27 SP:f9 CYC:19326
fad3  60         RTS         A:ff X:ff Y:b7 P:27 SP:f9 CYC:19328
ed1a  a5 47      LDA $47     A:ff X:ff Y:b7 P:27 SP:fb CYC:19334
ed1c  c9 00      CMP #$00    A:00 X:ff Y:b7 P:27 SP:fb CYC:19337
ed1e  f0 02      BEQ $ed22   A:00 X:ff Y:b7 P:27 SP:fb CYC:19339
ed22  c8         INY         A:00 X:ff Y:b7 P:27 SP:fb CYC:19342
ed23  a9 37      LDA #$37    A:00 X:ff Y:b8 P:a5 SP:fb CYC:19344
ed25  85 47      STA $47     A:37 X:ff Y:b8 P:25 SP:fb CYC:19346
ed27  20 d4 fa   JSR $fad4   A:37 X:ff Y:b8 P:25 SP:fb CYC:19349
fad4  24 01      BIT $01     A:37 X:ff Y:b8 P:25 SP:f9 CYC:19355
fad6  38         SEC         A:37 X:ff Y:b8 P:e5 SP:f9 CYC:19358
fad7  a9 f0      LDA #$f0    A:37 X:ff Y:b8 P:e5 SP:f9 CYC:19360
fad9  60         RTS         A:f0 X:ff Y:b8 P:e5 SP:f9 CYC:19362
ed2a  f7 48      ISC $48,X   A:f0 X:ff Y:b8 P:e5 SP:fb CYC:19368
ed2c  ea         NOP         A:b8 X:ff Y:b8 P:a5 SP:fb CYC:19374
ed2d  ea         NOP         A:b8 X:ff Y:b8 P:a5 SP:fb CYC:19376
ed2e  ea         NOP         A:b8 X:ff Y:b8 P:a5 SP:fb CYC:19378
ed2f  ea         NOP         A:b8 X:ff Y:b8 P:a5 SP:fb CYC:19380
ed30  20 da fa   JSR $fada   A:b8 X:ff Y:b8 P:a5 SP:fb CYC:19382
fada  70 0a      BVS $fae6   A:b8 X:ff Y:b8 P:a5 SP:f9 CYC:19388
fadc  f0 08      BEQ $fae6   A:b8 X:ff Y:b8 P:a5 SP:f9 CYC:19390
fade  10 06      BPL $fae6   A:b8 X:ff Y:b8 P:a5 SP:f9 CYC:19392
fae0  90 04      BCC $fae6   A:b8 X:ff Y:b8 P:a5 SP:f9 CYC:19394
fae2  c9 b8      CMP #$b8    A:b8 X:ff Y:b8 P:a5 SP:f9 CYC:19396
fae4  f0 02      BEQ $fae8   A:b8 X:ff Y:b8 P:27 SP:f9 CYC:19398
fae8  60         RTS         A:b8 X:ff Y:b8 P:27 SP:f9 CYC:19401
ed33  a5 47      LDA $47     A:b8 X:ff Y:b8 P:27 SP:fb CYC:19407
ed35  c9 38      CMP #$38    A:38 X:ff Y:b8 P:25 SP:fb CYC:19410
ed37  f0 02      BEQ $ed3b   A:38 X:ff Y:b8 P:27 SP:fb CYC:19412
ed3b  a9 eb      LDA #$eb    A:38 X:ff Y:b8 P:27 SP:fb CYC:19415
ed3d  8d 47 06   STA $0647   A:eb X:ff Y:b8 P:a5 SP:fb CYC:19417
ed40  a0 ff      LDY #$ff    A:eb X:ff Y:b8 P:a5 SP:fb CYC:19421
ed42  20 b1 fa   JSR $fab1   A:eb X:ff Y:ff P:a5 SP:fb CYC:19423
fab1  24 01      BIT $01     A:eb X:ff Y:ff P:a5 SP:f9 CYC:19429
fab3  18         CLC         A:eb X:ff Y:ff P:e5 SP:f9 CYC:19432
fab4  a9 40      LDA #$40    A:eb X:ff Y:ff P:e4 SP:f9 CYC:19434
fab6  60         RTS         A:40 X:ff Y:ff P:64 SP:f9 CYC:19436
ed45  fb 48 05   ISC $0548,Y A:40 X:ff Y:ff P:64 SP:fb CYC:19442
ed48  ea         NOP         A:53 X:ff Y:ff P:24 SP:fb CYC:19449
ed49  ea         NOP         A:53 X:ff Y:ff P:24 SP:fb CYC:19451
ed4a  08         PHP         A:53 X:ff Y:ff P:24 SP:fb CYC:19453
ed4b  48         PHA         A:53 X:ff Y:ff P:24 SP:fa CYC:19456
ed4c  a0 b9      LDY #$b9    A:53 X:ff Y:ff P:24 SP:f9 CYC:19459
ed4e  68         PLA         A:53 X:ff Y:b9 P:a4 SP:f9 CYC:19461
ed4f  28         PLP         A:53 X:ff Y:b9 P:24 SP:fa CYC:19465
ed50  20 b7 fa   JSR $fab7   A:53 X:ff Y:b9 P:24 SP:fb CYC:19469
fab7  70 2d      BVS $fae6   A:53 X:ff Y:b9 P:24 SP:f9 CYC:19475
fab9  b0 2b      BCS $fae6   A:53 X:ff Y:b9 P:24 SP:f9 CYC:19477
fabb  30 29      BMI $fae6   A:53 X:ff Y:b9 P:24 SP:f9 CYC:19479
fabd  c9 53      CMP #$53    A:53 X:ff Y:b9 P:24 SP:f9 CYC:19481
fabf  d0 25      BNE $fae6   A:53 X:ff Y:b9 P:27 SP:f9 CYC:19483
fac1  60         RTS         A:53 X:ff Y:b9 P:27 SP:f9 CYC:19485
ed53  ad 47 06   LDA $0647   A:53 X:ff Y:b9 P:27 SP:fb CYC:19491
ed56  c9 ec      CMP #$ec    A:ec X:ff Y:b9 P:a5 SP:fb CYC:19495
ed58  f0 02      BEQ $ed5c   A:ec X:ff Y:b9 P:27 SP:fb CYC:19497
ed5c  a0 ff      LDY #$ff    A:ec X:ff Y:b9 P:27 SP:fb CYC:19500
ed5e  a9 ff      LDA #$ff    A:ec X:ff Y:ff P:a5 SP:fb CYC:19502
ed60  8d 47 06   STA $0647   A:ff X:ff Y:ff P:a5 SP:fb CYC:19504
ed63  20 c2 fa   JSR $fac2   A:ff X:ff Y:ff P:a5 SP:fb CYC:19508
fac2  b8         CLV         A:ff X:ff Y:ff P:a5 SP:f9 CYC:19514
fac3  38         SEC         A:ff X:ff Y:ff P:a5 SP:f9 CYC:19516
fac4  a9 ff      LDA #$ff    A:ff X:ff Y:ff P:a5 SP:f9 CYC:19518
fac6  60         RTS         A:ff X:ff Y:ff P:a5 SP:f9 CYC:19520
ed66  fb 48 05   ISC $0548,Y A:ff X:ff Y:ff P:a5 SP:fb CYC:19526
ed69  ea         NOP         A:ff X:ff Y:ff P:a5 SP:fb CYC:19533
ed6a  ea         NOP         A:ff X:ff Y:ff P:a5 SP:fb CYC:19535
ed6b  08         PHP         A:ff X:ff Y:ff P:a5 SP:fb CYC:19537
ed6c  48         PHA         A:ff X:ff Y:ff P:a5 SP:fa CYC:19540
ed6d  a0 ba      LDY #$ba    A:ff X:ff Y:ff P:a5 SP:f9 CYC:19543
ed6f  68         PLA         A:ff X:ff Y:ba P:a5 SP:f9 CYC:19545
ed70  28         PLP         A:ff X:ff Y:ba P:a5 SP:fa CYC:19549
ed71  20 c7 fa   JSR $fac7   A:ff X:ff Y:ba P:a5 SP:fb CYC:19553
fac7  70 1d      BVS $fae6   A:ff X:ff Y:ba P:a5 SP:f9 CYC:19559
fac9  f0 1b      BEQ $fae6   A:ff X:ff Y:ba P:a5 SP:f9 CYC:19561
facb  10 19      BPL $fae6   A:ff X:ff Y:ba P:a5 SP:f9 CYC:19563
facd  90 17      BCC $fae6   A:ff X:ff Y:ba P:a5 SP:f9 CYC:19565
facf  c9 ff      CMP #$ff    A:ff X:ff Y:ba P:a5 SP:f9 CYC:19567
fad1  d0 13      BNE $fae6   A:ff X:ff Y:ba P:27 SP:f9 CYC:19569
fad3  60         RTS         A:ff X:ff Y:ba P:27 SP:f9 CYC:19571
ed74  ad 47 06   LDA $0647   A:ff X:ff Y:ba P:27 SP:fb CYC:19577
ed77  c9 00      CMP #$00    A:00 X:ff Y:ba P:27 SP:fb CYC:19581
ed79  f0 02      BEQ $ed7d   A:00 X:ff Y:ba P:27 SP:fb CYC:19583
ed7d  a0 ff      LDY #$ff    A:00 X:ff Y:ba P:27 SP:fb CYC:19586
ed7f  a9 37      LDA #$37    A:00 X:ff Y:ff P:a5 SP:fb CYC:19588
ed81  8d 47 06   STA $0647   A:37 X:ff Y:ff P:25 SP:fb CYC:19590
ed84  20 d4 fa   JSR $fad4   A:37 X:ff Y:ff P:25 SP:fb CYC:19594
fad4  24 01      BIT $01     A:37 X:ff Y:ff P:25 SP:f9 CYC:19600
fad6  38         SEC         A:37 X:ff Y:ff P:e5 SP:f9 CYC:19603
fad7  a9 f0      LDA #$f0    A:37 X:ff Y:ff P:e5 SP:f9 CYC:19605
fad9  60         RTS         A:f0 X:ff Y:ff P:e5 SP:f9 CYC:19607
ed87  fb 48 05   ISC $0548,Y A:f0 X:ff Y:ff P:e5 SP:fb CYC:19613
ed8a  ea         NOP         A:b8 X:ff Y:ff P:a5 SP:fb CYC:19620
ed8b  ea         NOP         A:b8 X:ff Y:ff P:a5 SP:fb CYC:19622
ed8c  08         PHP         A:b8 X:ff Y:ff P:a5 SP:fb CYC:19624
ed8d  48         PHA         A:b8 X:ff Y:ff P:a5 SP:fa CYC:19627
ed8e  a0 bb      LDY #$bb    A:b8 X:ff Y:ff P:a5 SP:f9 CYC:19630
ed90  68         PLA         A:b8 X:ff Y:bb P:a5 SP:f9 CYC:19632
ed91  28         PLP         A:b8 X:ff Y:bb P:a5 SP:fa CYC:19636
ed92  20 da fa   JSR $fada   A:b8 X:ff Y:bb P:a5 SP:fb CYC:19640
fada  70 0a      BVS $fae6   A:b8 X:ff Y:bb P:a5 SP:f9 CYC:19646
fadc  f0 08      BEQ $fae6   A:b8 X:ff Y:bb P:a5 SP:f9 CYC:19648
fade  10 06      BPL $fae6   A:b8 X:ff Y:bb P:a5 SP:f9 CYC:19650
fae0  90 04      BCC $fae6   A:b8 X:ff Y:bb P:a5 SP:f9 CYC:19652
fae2  c9 b8      CMP #$b8    A:b8 X:ff Y:bb P:a5 SP:f9 CYC:19654
fae4  f0 02      BEQ $fae8   A:b8 X:ff Y:bb P:27 SP:f9 CYC:19656
fae8  60         RTS         A:b8 X:ff Y:bb P:27 SP:f9 CYC:19659
ed95  ad 47 06   LDA $0647   A:b8 X:ff Y:bb P:27 SP:fb CYC:19665
ed98  c9 38      CMP #$38    A:38 X:ff Y:bb P:25 SP:fb CYC:19669
ed9a  f0 02      BEQ $ed9e   A:38 X:ff Y:bb P:27 SP:fb CYC:19671
ed9e  a0 bc      LDY #$bc    A:38 X:ff Y:bb P:27 SP:fb CYC:19674
eda0  a2 ff      LDX #$ff    A:38 X:ff Y:bc P:a5 SP:fb CYC:19676
eda2  a9 eb      LDA #$eb    A:38 X:ff Y:bc P:a5 SP:fb CYC:19678
eda4  8d 47 06   STA $0647   A:eb X:ff Y:bc P:a5 SP:fb CYC:19680
eda7  20 b1 fa   JSR $fab1   A:eb X:ff Y:bc P:a5 SP:fb CYC:19684
fab1  24 01      BIT $01     A:eb X:ff Y:bc P:a5 SP:f9 CYC:19690
fab3  18         CLC         A:eb X:ff Y:bc P:e5 SP:f9 CYC:19693
fab4  a9 40      LDA #$40    A:eb X:ff Y:bc P:e4 SP:f9 CYC:19695
fab6  60         RTS         A:40 X:ff Y:bc P:64 SP:f9 CYC:19697
edaa  ff 48 05   ISC $0548,X A:40 X:ff Y:bc P:64 SP:fb CYC:19703
edad  ea         NOP         A:53 X:ff Y:bc P:24 SP:fb CYC:19710
edae  ea         NOP         A:53 X:ff Y:bc P:24 SP:fb CYC:19712
edaf  ea         NOP         A:53 X:ff Y:bc P:24 SP:fb CYC:19714
edb0  ea         NOP         A:53 X:ff Y:bc P:24 SP:fb CYC:19716
edb1  20 b7 fa   JSR $fab7   A:53 X:ff Y:bc P:24 SP:fb CYC:19718
fab7  70 2d      BVS $fae6   A:53 X:ff Y:bc P:24 SP:f9 CYC:19724
fab9  b0 2b      BCS $fae6   A:53 X:ff Y:bc P:24 SP:f9 CYC:19726
fabb  30 29      BMI $fae6   A:53 X:ff Y:bc P:24 SP:f9 CYC:19728
fabd  c9 53      CMP #$53    A:53 X:ff Y:bc P:24 SP:f9 CYC:19730
fabf  d0 25      BNE $fae6   A:53 X:ff Y:bc P:27 SP:f9 CYC:19732
fac1  60         RTS         A:53 X:ff Y:bc P:27 SP:f9 CYC:19734
edb4  ad 47 06   LDA $0647   A:53 X:ff Y:bc P:27 SP:fb CYC:19740
edb7  c9 ec      CMP #$ec    A:ec X:ff Y:bc P:a5 SP:fb CYC:19744
edb9  f0 02      BEQ $edbd   A:ec X:ff Y:bc P:27 SP:fb CYC:19746
edbd  c8         INY         A:ec X:ff Y:bc P:27 SP:fb CYC:19749
edbe  a9 ff      LDA #$ff    A:ec X:ff Y:bd P:a5 SP:fb CYC:19751
edc0  8d 47 06   STA $0647   A:ff X:ff Y:bd P:a5 SP:fb CYC:19753
edc3  20 c2 fa   JSR $fac2   A:ff X:ff Y:bd P:a5 SP:fb CYC:19757
fac2  b8         CLV         A:ff X:ff Y:bd P:a5 SP:f9 CYC:19763
fac3  38         SEC         A:ff X:ff Y:bd P:a5 SP:f9 CYC:19765
fac4  a9 ff      LDA #$ff    A:ff X:ff Y:bd P:a5 SP:f9 CYC:19767
fac6  60         RTS         A:ff X:ff Y:bd P:a5 SP:f9 CYC:19769
edc6  ff 48 05   ISC $0548,X A:ff X:ff Y:bd P:a5 SP:fb CYC:19775
edc9  ea         NOP         A:ff X:ff Y:bd P:a5 SP:fb CYC:19782
edca  ea         NOP         A:ff X:ff Y:bd P:a5 SP:fb CYC:19784
edcb  ea         NOP         A:ff X:ff Y:bd P:a5 SP:fb CYC:19786
edcc  ea         NOP         A:ff X:ff Y:bd P:a5 SP:fb CYC:19788
edcd  20 c7 fa   JSR $fac7   A:ff X:ff Y:bd P:a5 SP:fb CYC:19790
fac7  70 1d      BVS $fae6   A:ff X:ff Y:bd P:a5 SP:f9 CYC:19796
fac9  f0 1b      BEQ $fae6   A:ff X:ff Y:bd P:a5 SP:f9 CYC:19798
facb  10 19      BPL $fae6   A:ff X:ff Y:bd P:a5 SP:f9 CYC:19800
facd  90 17      BCC $fae6   A:ff X:ff Y:bd P:a5 SP:f9 CYC:19802
facf  c9 ff      CMP #$ff    A:ff X:ff Y:bd P:a5 SP:f9 CYC:19804
fad1  d0 13      BNE $fae6   A:ff X:ff Y:bd P:27 SP:f9 CYC:19806
fad3  60         RTS         A:ff X:ff Y:bd P:27 SP:f9 CYC:19808
edd0  ad 47 06   LDA $0647   A:ff X:ff Y:bd P:27 SP:fb CYC:19814
edd3  c9 00      CMP #$00    A:00 X:ff Y:bd P:27 SP:fb CYC:19818
edd5  f0 02      BEQ $edd9   A:00 X:ff Y:bd P:27 SP:fb CYC:19820
edd9  c8         INY         A:00 X:ff Y:bd P:27 SP:fb CYC:19823
edda  a9 37      LDA #$37    A:00 X:ff Y:be P:a5 SP:fb CYC:19825
eddc  8d 47 06   STA $0647   A:37 X:ff Y:be P:25 SP:fb CYC:19827
eddf  20 d4 fa   JSR $fad4   A:37 X:ff Y:be P:25 SP:fb CYC:19831
fad4  24 01      BIT $01     A:37 X:ff Y:be P:25 SP:f9 CYC:19837
fad6  38         SEC         A:37 X:ff Y:be P:e5 SP:f9 CYC:19840
fad7  a9 f0      LDA #$f0    A:37 X:ff Y:be P:e5 SP:f9 CYC:19842
fad9  60         RTS         A:f0 X:ff Y:be P:e5 SP:f9 CYC:19844
ede2  ff 48 05   ISC $0548,X A:f0 X:ff Y:be P:e5 SP:fb CYC:19850
ede5  ea         NOP         A:b8 X:ff Y:be P:a5 SP:fb CYC:19857
ede6  ea         NOP         A:b8 X:ff Y:be P:a5 SP:fb CYC:19859
ede7  ea         NOP         A:b8 X:ff Y:be P:a5 SP:fb CYC:19861
ede8  ea         NOP         A:b8 X:ff Y:be P:a5 SP:fb CYC:19863
ede9  20 da fa   JSR $fada   A:b8 X:ff Y:be P:a5 SP:fb CYC:19865
fada  70 0a      BVS $fae6   A:b8 X:ff Y:be P:a5 SP:f9 CYC:19871
fadc  f0 08      BEQ $fae6   A:b8 X:ff Y:be P:a5 SP:f9 CYC:19873
fade  10 06      BPL $fae6   A:b8 X:ff Y:be P:a5 SP:f9 CYC:19875
fae0  90 04      BCC $fae6   A:b8 X:ff Y:be P:a5 SP:f9 CYC:19877
fae2  c9 b8      CMP #$b8    A:b8 X:ff Y:be P:a5 SP:f9 CYC:19879
fae4  f0 02      BEQ $fae8   A:b8 X:ff Y:be P:27 SP:f9 CYC:19881
fae8  60         RTS         A:b8 X:ff Y:be P:27 SP:f9 CYC:19884
edec  ad 47 06   LDA $0647   A:b8 X:ff Y:be P:27 SP:fb CYC:19890
edef  c9 38      CMP #$38    A:38 X:ff Y:be P:25 SP:fb CYC:19894
edf1  f0 02      BEQ $edf5   A:38 X:ff Y:be P:27 SP:fb CYC:19896
edf5  60         RTS         A:38 X:ff Y:be P:27 SP:fb CYC:19899
c641  20 f6 ed   JSR $edf6   A:38 X:ff Y:be P:27 SP:fd CYC:19905
edf6  a9 ff      LDA #$ff    A:38 X:ff Y:be P:27 SP:fb CYC:19911
edf8  85 01      STA $01     A:ff X:ff Y:be P:a5 SP:fb CYC:19913
edfa  a0 bf      LDY #$bf    A:ff X:ff Y:be P:a5 SP:fb CYC:19916
edfc  a2 02      LDX #$02    A:ff X:ff Y:bf P:a5 SP:fb CYC:19918
edfe  a9 47      LDA #$47    A:ff X:02 Y:bf P:25 SP:fb CYC:19920
ee00  85 47      STA $47     A:47 X:02 Y:bf P:25 SP:fb CYC:19922
ee02  a9 06      LDA #$06    A:47 X:02 Y:bf P:25 SP:fb CYC:19925
ee04  85 48      STA $48     A:06 X:02 Y:bf P:25 SP:fb CYC:19927
ee06  a9 a5      LDA #$a5    A:06 X:02 Y:bf P:25 SP:fb CYC:19930
ee08  8d 47 06   STA $0647   A:a5 X:02 Y:bf P:a5 SP:fb CYC:19932
ee0b  20 7b fa   JSR $fa7b   A:a5 X:02 Y:bf P:a5 SP:fb CYC:19936
fa7b  24 01      BIT $01     A:a5 X:02 Y:bf P:a5 SP:f9 CYC:19942
fa7d  18         CLC         A:a5 X:02 Y:bf P:e5 SP:f9 CYC:19945
fa7e  a9 b3      LDA #$b3    A:a5 X:02 Y:bf P:e4 SP:f9 CYC:19947
fa80  60         RTS         A:b3 X:02 Y:bf P:e4 SP:f9 CYC:19949
ee0e  03 45      SLO ($45,X) A:b3 X:02 Y:bf P:e4 SP:fb CYC:19955
ee10  ea         NOP         A:fb X:02 Y:bf P:e5 SP:fb CYC:19963
ee11  ea         NOP         A:fb X:02 Y:bf P:e5 SP:fb CYC:19965
ee12  ea         NOP         A:fb X:02 Y:bf P:e5 SP:fb CYC:19967
ee13  ea         NOP         A:fb X:02 Y:bf P:e5 SP:fb CYC:19969
ee14  20 81 fa   JSR $fa81   A:fb X:02 Y:bf P:e5 SP:fb CYC:19971
fa81  50 63      BVC $fae6   A:fb X:02 Y:bf P:e5 SP:f9 CYC:19977
fa83  90 61      BCC $fae6   A:fb X:02 Y:bf P:e5 SP:f9 CYC:19979
fa85  10 5f      BPL $fae6   A:fb X:02 Y:bf P:e5 SP:f9 CYC:19981
fa87  c9 fb      CMP #$fb    A:fb X:02 Y:bf P:e5 SP:f9 CYC:19983
fa89  d0 5b      BNE $fae6   A:fb X:02 Y:bf P:67 SP:f9 CYC:19985
fa8b  60         RTS         A:fb X:02 Y:bf P:67 SP:f9 CYC:19987
ee17  ad 47 06   LDA $0647   A:fb X:02 Y:bf P:67 SP:fb CYC:19993
ee1a  c9 4a      CMP #$4a    A:4a X:02 Y:bf P:65 SP:fb CYC:19997
ee1c  f0 02      BEQ $ee20   A:4a X:02 Y:bf P:67 SP:fb CYC:19999
ee20  c8         INY         A:4a X:02 Y:bf P:67 SP:fb CYC:20002
ee21  a9 29      LDA #$29    A:4a X:02 Y:c0 P:e5 SP:fb CYC:20004
ee23  8d 47 06   STA $0647   A:29 X:02 Y:c0 P:65 SP:fb CYC:20006
ee26  20 8c fa   JSR $fa8c   A:29 X:02 Y:c0 P:65 SP:fb CYC:20010
fa8c  b8         CLV         A:29 X:02 Y:c0 P:65 SP:f9 CYC:20016
fa8d  18         CLC         A:29 X:02 Y:c0 P:25 SP:f9 CYC:20018
fa8e  a9 c3      LDA #$c3    A:29 X:02 Y:c0 P:24 SP:f9 CYC:20020
fa90  60         RTS         A:c3 X:02 Y:c0 P:a4 SP:f9 CYC:20022
ee29  03 45      SLO ($45,X) A:c3 X:02 Y:c0 P:a4 SP:fb CYC:20028
ee2b  ea         NOP         A:d3 X:02 Y:c0 P:a4 SP:fb CYC:20036
ee2c  ea         NOP         A:d3 X:02 Y:c0 P:a4 SP:fb CYC:20038
ee2d  ea         NOP         A:d3 X:02 Y:c0 P:a4 SP:fb CYC:20040
ee2e  ea         NOP         A:d3 X:02 Y:c0 P:a4 SP:fb CYC:20042
ee2f  20 91 fa   JSR $fa91   A:d3 X:02 Y:c0 P:a4 SP:fb CYC:20044
fa91  70 53      BVS $fae6   A:d3 X:02 Y:c0 P:a4 SP:f9 CYC:20050
fa93  f0 51      BEQ $fae6   A:d3 X:02 Y:c0 P:a4 SP:f9 CYC:20052
fa95  10 4f      BPL $fae6   A:d3 X:02 Y:c0 P:a4 SP:f9 CYC:20054
fa97  b0 4d      BCS $fae6   A:d3 X:02 Y:c0 P:a4 SP:f9 CYC:20056
fa99  c9 d3      CMP #$d3    A:d3 X:02 Y:c0 P:a4 SP:f9 CYC:20058
fa9b  d0 49      BNE $fae6   A:d3 X:02 Y:c0 P:27 SP:f9 CYC:20060
fa9d  60         RTS         A:d3 X:02 Y:c0 P:27 SP:f9 CYC:20062
ee32  ad 47 06   LDA $0647   A:d3 X:02 Y:c0 P:27 SP:fb CYC:20068
ee35  c9 52      CMP #$52    A:52 X:02 Y:c0 P:25 SP:fb CYC:20072
ee37  f0 02      BEQ $ee3b   A:52 X:02 Y:c0 P:27 SP:fb CYC:20074
ee3b  c8         INY         A:52 X:02 Y:c0 P:27 SP:fb CYC:20077
ee3c  a9 37      LDA #$37    A:52 X:02 Y:c1 P:a5 SP:fb CYC:20079
ee3e  8d 47 06   STA $0647   A:37 X:02 Y:c1 P:25 SP:fb CYC:20081
ee41  20 9e fa   JSR $fa9e   A:37 X:02 Y:c1 P:25 SP:fb CYC:20085
fa9e  24 01      BIT $01     A:37 X:02 Y:c1 P:25 SP:f9 CYC:20091
faa0  38         SEC         A:37 X:02 Y:c1 P:e5 SP:f9 CYC:20094
faa1  a9 10      LDA #$10    A:37 X:02 Y:c1 P:e5 SP:f9 CYC:20096
faa3  60         RTS         A:10 X:02 Y:c1 P:65 SP:f9 CYC:20098
ee44  03 45      SLO ($45,X) A:10 X:02 Y:c1 P:65 SP:fb CYC:20104
ee46  ea         NOP         A:7e X:02 Y:c1 P:64 SP:fb CYC:20112
ee47  ea         NOP         A:7e X:02 Y:c1 P:64 SP:fb CYC:20114
ee48  ea         NOP         A:7e X:02 Y:c1 P:64 SP:fb CYC:20116
ee49  ea         NOP         A:7e X:02 Y:c1 P:64 SP:fb CYC:20118
ee4a  20 a4 fa   JSR $faa4   A:7e X:02 Y:c1 P:64 SP:fb CYC:20120
faa4  50 40      BVC $fae6   A:7e X:02 Y:c1 P:64 SP:f9 CYC:20126
faa6  f0 3e      BEQ $fae6   A:7e X:02 Y:c1 P:64 SP:f9 CYC:20128
faa8  30 3c      BMI $fae6   A:7e X:02 Y:c1 P:64 SP:f9 CYC:20130
faaa  b0 3a      BCS $fae6   A:7e X:02 Y:c1 P:64 SP:f9 CYC:20132
faac  c9 7e      CMP #$7e    A:7e X:02 Y:c1 P:64 SP:f9 CYC:20134
faae  d0 36      BNE $fae6   A:7e X:02 Y:c1 P:67 SP:f9 CYC:20136
fab0  60         RTS         A:7e X:02 Y:c1 P:67 SP:f9 CYC:20138
ee4d  ad 47 06   LDA $0647   A:7e X:02 Y:c1 P:67 SP:fb CYC:20144
ee50  c9 6e      CMP #$6e    A:6e X:02 Y:c1 P:65 SP:fb CYC:20148
ee52  f0 02      BEQ $ee56   A:6e X:02 Y:c1 P:67 SP:fb CYC:20150
ee56  c8         INY         A:6e X:02 Y:c1 P:67 SP:fb CYC:20153
ee57  a9 a5      LDA #$a5    A:6e X:02 Y:c2 P:e5 SP:fb CYC:20155
ee59  85 47      STA $47     A:a5 X:02 Y:c2 P:e5 SP:fb CYC:20157
ee5b  20 7b fa   JSR $fa7b   A:a5 X:02 Y:c2 P:e5 SP:fb CYC:20160
fa7b  24 01      BIT $01     A:a5 X:02 Y:c2 P:e5 SP:f9 CYC:20166
fa7d  18         CLC         A:a5 X:02 Y:c2 P:e5 SP:f9 CYC:20169
fa7e  a9 b3      LDA #$b3    A:a5 X:02 Y:c2 P:e4 SP:f9 CYC:20171
fa80  60         RTS         A:b3 X:02 Y:c2 P:e4 SP:f9 CYC:20173
ee5e  07 47      SLO $47     A:b3 X:02 Y:c2 P:e4 SP:fb CYC:20179
ee60  ea         NOP         A:fb X:02 Y:c2 P:e5 SP:fb CYC:20184
ee61  ea         NOP         A:fb X:02 Y:c2 P:e5 SP:fb CYC:20186
ee62  ea         NOP         A:fb X:02 Y:c2 P:e5 SP:fb CYC:20188
ee63  ea         NOP         A:fb X:02 Y:c2 P:e5 SP:fb CYC:20190
ee64  20 81 fa   JSR $fa81   A:fb X:02 Y:c2 P:e5 SP:fb CYC:20192
fa81  50 63      BVC $fae6   A:fb X:02 Y:c2 P:e5 SP:f9 CYC:20198
fa83  90 61      BCC $fae6   A:fb X:02 Y:c2 P:e5 SP:f9 CYC:20200
fa85  10 5f      BPL $fae6   A:fb X:02 Y:c2 P:e5 SP:f9 CYC:20202
fa87  c9 fb      CMP #$fb    A:fb X:02 Y:c2 P:e5 SP:f9 CYC:20204
fa89  d0 5b      BNE $fae6   A:fb X:02 Y:c2 P:67 SP:f9 CYC:20206
fa8b  60         RTS         A:fb X:02 Y:c2 P:67 SP:f9 CYC:20208
ee67  a5 47      LDA $47     A:fb X:02 Y:c2 P:67 SP:fb CYC:20214
ee69  c9 4a      CMP #$4a    A:4a X:02 Y:c2 P:65 SP:fb CYC:20217
ee6b  f0 02      BEQ $ee6f   A:4a X:02 Y:c2 P:67 SP:fb CYC:20219
ee6f  c8         INY         A:4a X:02 Y:c2 P:67 SP:fb CYC:20222
ee70  a9 29      LDA #$29    A:4a X:02 Y:c3 P:e5 SP:fb CYC:20224
ee72  85 47      STA $47     A:29 X:02 Y:c3 P:65 SP:fb CYC:20226
ee74  20 8c fa   JSR $fa8c   A:29 X:02 Y:c3 P:65 SP:fb CYC:20229
fa8c  b8         CLV         A:29 X:02 Y:c3 P:65 SP:f9 CYC:20235
fa8d  18         CLC         A:29 X:02 Y:c3 P:25 SP:f9 CYC:20237
fa8e  a9 c3      LDA #$c3    A:29 X:02 Y:c3 P:24 SP:f9 CYC:20239
fa90  60         RTS         A:c3 X:02 Y:c3 P:a4 SP:f9 CYC:20241
ee77  07 47      SLO $47     A:c3 X:02 Y:c3 P:a4 SP:fb CYC:20247
ee79  ea         NOP         A:d3 X:02 Y:c3 P:a4 SP:fb CYC:20252
ee7a  ea         NOP         A:d3 X:02 Y:c3 P:a4 SP:fb CYC:20254
ee7b  ea         NOP         A:d3 X:02 Y:c3 P:a4 SP:fb CYC:20256
ee7c  ea         NOP         A:d3 X:02 Y:c3 P:a4 SP:fb CYC:20258
ee7d  20 91 fa   JSR $fa91   A:d3 X:02 Y:c3 P:a4 SP:fb CYC:20260
fa91  70 53      BVS $fae6   A:d3 X:02 Y:c3 P:a4 SP:f9 CYC:20266
fa93  f0 51      BEQ $fae6   A:d3 X:02 Y:c3 P:a4 SP:f9 CYC:20268
fa95  10 4f      BPL $fae6   A:d3 X:02 Y:c3 P:a4 SP:f9 CYC:20270
fa97  b0 4d      BCS $fae6   A:d3 X:02 Y:c3 P:a4 SP:f9 CYC:20272
fa99  c9 d3      CMP #$d3    A:d3 X:02 Y:c3 P:a4 SP:f9 CYC:20274
fa9b  d0 49      BNE $fae6   A:d3 X:02 Y:c3 P:27 SP:f9 CYC:20276
fa9d  60         RTS         A:d3 X:02 Y:c3 P:27 SP:f9 CYC:20278
ee80  a5 47      LDA $47     A:d3 X:02 Y:c3 P:27 SP:fb CYC:20284
ee82  c9 52      CMP #$52    A:52 X:02 Y:c3 P:25 SP:fb CYC:20287
ee84  f0 02      BEQ $ee88   A:52 X:02 Y:c3 P:27 SP:fb CYC:20289
ee88  c8         INY         A:52 X:02 Y:c3 P:27 SP:fb CYC:20292
ee89  a9 37      LDA #$37    A:52 X:02 Y:c4 P:a5 SP:fb CYC:20294
ee8b  85 47      STA $47     A:37 X:02 Y:c4 P:25 SP:fb CYC:20296
ee8d  20 9e fa   JSR $fa9e   A:37 X:02 Y:c4 P:25 SP:fb CYC:20299
fa9e  24 01      BIT $01     A:37 X:02 Y:c4 P:25 SP:f9 CYC:20305
faa0  38         SEC         A:37 X:02 Y:c4 P:e5 SP:f9 CYC:20308
faa1  a9 10      LDA #$10    A:37 X:02 Y:c4 P:e5 SP:f9 CYC:20310
faa3  60         RTS         A:10 X:02 Y:c4 P:65 SP:f9 CYC:20312
ee90  07 47      SLO $47     A:10 X:02 Y:c4 P:65 SP:fb CYC:20318
ee92  ea         NOP         A:7e X:02 Y:c4 P:64 SP:fb CYC:20323
ee93  ea         NOP         A:7e X:02 Y:c4 P:64 SP:fb CYC:20325
ee94  ea         NOP         A:7e X:02 Y:c4 P:64 SP:fb CYC:20327
ee95  ea         NOP         A:7e X:02 Y:c4 P:64 SP:fb CYC:20329
ee96  20 a4 fa   JSR $faa4   A:7e X:02 Y:c4 P:64 SP:fb CYC:20331
faa4  50 40      BVC $fae6   A:7e X:02 Y:c4 P:64 SP:f9 CYC:20337
faa6  f0 3e      BEQ $fae6   A:7e X:02 Y:c4 P:64 SP:f9 CYC:20339
faa8  30 3c      BMI $fae6   A:7e X:02 Y:c4 P:64 SP:f9 CYC:20341
faaa  b0 3a      BCS $fae6   A:7e X:02 Y:c4 P:64 SP:f9 CYC:20343
faac  c9 7e      CMP #$7e    A:7e X:02 Y:c4 P:64 SP:f9 CYC:20345
faae  d0 36      BNE $fae6   A:7e X:02 Y:c4 P:67 SP:f9 CYC:20347
fab0  60         RTS         A:7e X:02 Y:c4 P:67 SP:f9 CYC:20349
ee99  a5 47      LDA $47     A:7e X:02 Y:c4 P:67 SP:fb CYC:20355
ee9b  c9 6e      CMP #$6e    A:6e X:02 Y:c4 P:65 SP:fb CYC:20358
ee9d  f0 02      BEQ $eea1   A:6e X:02 Y:c4 P:67 SP:fb CYC:20360
eea1  c8         INY         A:6e X:02 Y:c4 P:67 SP:fb CYC:20363
eea2  a9 a5      LDA #$a5    A:6e X:02 Y:c5 P:e5 SP:fb CYC:20365
eea4  8d 47 06   STA $0647   A:a5 X:02 Y:c5 P:e5 SP:fb CYC:20367
eea7  20 7b fa   JSR $fa7b   A:a5 X:02 Y:c5 P:e5 SP:fb CYC:20371
fa7b  24 01      BIT $01     A:a5 X:02 Y:c5 P:e5 SP:f9 CYC:20377
fa7d  18         CLC         A:a5 X:02 Y:c5 P:e5 SP:f9 CYC:20380
fa7e  a9 b3      LDA #$b3    A:a5 X:02 Y:c5 P:e4 SP:f9 CYC:20382
fa80  60         RTS         A:b3 X:02 Y:c5 P:e4 SP:f9 CYC:20384
eeaa  0f 47 06   SLO $0647   A:b3 X:02 Y:c5 P:e4 SP:fb CYC:20390
eead  ea         NOP         A:fb X:02 Y:c5 P:e5 SP:fb CYC:20396
eeae  ea         NOP         A:fb X:02 Y:c5 P:e5 SP:fb CYC:20398
eeaf  ea         NOP         A:fb X:02 Y:c5 P:e5 SP:fb CYC:20400
eeb0  ea         NOP         A:fb X:02 Y:c5 P:e5 SP:fb CYC:20402
eeb1  20 81 fa   JSR $fa81   A:fb X:02 Y:c5 P:e5 SP:fb CYC:20404
fa81  50 63      BVC $fae6   A:fb X:02 Y:c5 P:e5 SP:f9 CYC:20410
fa83  90 61      BCC $fae6   A:fb X:02 Y:c5 P:e5 SP:f9 CYC:20412
fa85  10 5f      BPL $fae6   A:fb X:02 Y:c5 P:e5 SP:f9 CYC:20414
fa87  c9 fb      CMP #$fb    A:fb X:02 Y:c5 P:e5 SP:f9 CYC:20416
fa89  d0 5b      BNE $fae6   A:fb X:02 Y:c5 P:67 SP:f9 CYC:20418
fa8b  60         RTS         A:fb X:02 Y:c5 P:67 SP:f9 CYC:20420
eeb4  ad 47 06   LDA $0647   A:fb X:02 Y:c5 P:67 SP:fb CYC:20426
eeb7  c9 4a      CMP #$4a    A:4a X:02 Y:c5 P:65 SP:fb CYC:20430
eeb9  f0 02      BEQ $eebd   A:4a X:02 Y:c5 P:67 SP:fb CYC:20432
eebd  c8         INY         A:4a X:02 Y:c5 P:67 SP:fb CYC:20435
eebe  a9 29      LDA #$29    A:4a X:02 Y:c6 P:e5 SP:fb CYC:20437
eec0  8d 47 06   STA $0647   A:29 X:02 Y:c6 P:65 SP:fb CYC:20439
eec3  20 8c fa   JSR $fa8c   A:29 X:02 Y:c6 P:65 SP:fb CYC:20443
fa8c  b8         CLV         A:29 X:02 Y:c6 P:65 SP:f9 CYC:20449
fa8d  18         CLC         A:29 X:02 Y:c6 P:25 SP:f9 CYC:20451
fa8e  a9 c3      LDA #$c3    A:29 X:02 Y:c6 P:24 SP:f9 CYC:20453
fa90  60         RTS         A:c3 X:02 Y:c6 P:a4 SP:f9 CYC:20455
eec6  0f 47 06   SLO $0647   A:c3 X:02 Y:c6 P:a4 SP:fb CYC:20461
eec9  ea         NOP         A:d3 X:02 Y:c6 P:a4 SP:fb CYC:20467
eeca  ea         NOP         A:d3 X:02 Y:c6 P:a4 SP:fb CYC:20469
eecb  ea         NOP         A:d3 X:02 Y:c6 P:a4 SP:fb CYC:20471
eecc  ea         NOP         A:d3 X:02 Y:c6 P:a4 SP:fb CYC:20473
eecd  20 91 fa   JSR $fa91   A:d3 X:02 Y:c6 P:a4 SP:fb CYC:20475
fa91  70 53      BVS $fae6   A:d3 X:02 Y:c6 P:a4 SP:f9 CYC:20481
fa93  f0 51      BEQ $fae6   A:d3 X:02 Y:c6 P:a4 SP:f9 CYC:20483
fa95  10 4f      BPL $fae6   A:d3 X:02 Y:c6 P:a4 SP:f9 CYC:20485
fa97  b0 4d      BCS $fae6   A:d3 X:02 Y:c6 P:a4 SP:f9 CYC:20487
fa99  c9 d3      CMP #$d3    A:d3 X:02 Y:c6 P:a4 SP:f9 CYC:20489
fa9b  d0 49      BNE $fae6   A:d3 X:02 Y:c6 P:27 SP:f9 CYC:20491
fa9d  60         RTS         A:d3 X:02 Y:c6 P:27 SP:f9 CYC:20493
eed0  ad 47 06   LDA $0647   A:d3 X:02 Y:c6 P:27 SP:fb CYC:20499
eed3  c9 52      CMP #$52    A:52 X:02 Y:c6 P:25 SP:fb CYC:20503
eed5  f0 02      BEQ $eed9   A:52 X:02 Y:c6 P:27 SP:fb CYC:20505
eed9  c8         INY         A:52 X:02 Y:c6 P:27 SP:fb CYC:20508
eeda  a9 37      LDA #$37    A:52 X:02 Y:c7 P:a5 SP:fb CYC:20510
eedc  8d 47 06   STA $0647   A:37 X:02 Y:c7 P:25 SP:fb CYC:20512
eedf  20 9e fa   JSR $fa9e   A:37 X:02 Y:c7 P:25 SP:fb CYC:20516
fa9e  24 01      BIT $01     A:37 X:02 Y:c7 P:25 SP:f9 CYC:20522
faa0  38         SEC         A:37 X:02 Y:c7 P:e5 SP:f9 CYC:20525
faa1  a9 10      LDA #$10    A:37 X:02 Y:c7 P:e5 SP:f9 CYC:20527
faa3  60         RTS         A:10 X:02 Y:c7 P:65 SP:f9 CYC:20529
eee2  0f 47 06   SLO $0647   A:10 X:02 Y:c7 P:65 SP:fb CYC:20535
eee5  ea         NOP         A:7e X:02 Y:c7 P:64 SP:fb CYC:20541
eee6  ea         NOP         A:7e X:02 Y:c7 P:64 SP:fb CYC:20543
eee7  ea         NOP         A:7e X:02 Y:c7 P:64 SP:fb CYC:20545
eee8  ea         NOP         A:7e X:02 Y:c7 P:64 SP:fb CYC:20547
eee9  20 a4 fa   JSR $faa4   A:7e X:02 Y:c7 P:64 SP:fb CYC:20549
faa4  50 40      BVC $fae6   A:7e X:02 Y:c7 P:64 SP:f9 CYC:20555
faa6  f0 3e      BEQ $fae6   A:7e X:02 Y:c7 P:64 SP:f9 CYC:20557
faa8  30 3c      BMI $fae6   A:7e X:02 Y:c7 P:64 SP:f9 CYC:20559
faaa  b0 3a      BCS $fae6   A:7e X:02 Y:c7 P:64 SP:f9 CYC:20561
faac  c9 7e      CMP #$7e    A:7e X:02 Y:c7 P:64 SP:f9 CYC:20563
faae  d0 36      BNE $fae6   A:7e X:02 Y:c7 P:67 SP:f9 CYC:20565
fab0  60         RTS         A:7e X:02 Y:c7 P:67 SP:f9 CYC:20567
eeec  ad 47 06   LDA $0647   A:7e X:02 Y:c7 P:67 SP:fb CYC:20573
eeef  c9 6e      CMP #$6e    A:6e X:02 Y:c7 P:65 SP:fb CYC:20577
eef1  f0 02      BEQ $eef5   A:6e X:02 Y:c7 P:67 SP:fb CYC:20579
eef5  a9 a5      LDA #$a5    A:6e X:02 Y:c7 P:67 SP:fb CYC:20582
eef7  8d 47 06   STA $0647   A:a5 X:02 Y:c7 P:e5 SP:fb CYC:20584
eefa  a9 48      LDA #$48    A:a5 X:02 Y:c7 P:e5 SP:fb CYC:20588
eefc  85 45      STA $45     A:48 X:02 Y:c7 P:65 SP:fb CYC:20590
eefe  a9 05      LDA #$05    A:48 X:02 Y:c7 P:65 SP:fb CYC:20593
ef00  85 46      STA $46     A:05 X:02 Y:c7 P:65 SP:fb CYC:20595
ef02  a0 ff      LDY #$ff    A:05 X:02 Y:c7 P:65 SP:fb CYC:20598
ef04  20 7b fa   JSR $fa7b   A:05 X:02 Y:ff P:e5 SP:fb CYC:20600
fa7b  24 01      BIT $01     A:05 X:02 Y:ff P:e5 SP:f9 CYC:20606
fa7d  18         CLC         A:05 X:02 Y:ff P:e5 SP:f9 CYC:20609
fa7e  a9 b3      LDA #$b3    A:05 X:02 Y:ff P:e4 SP:f9 CYC:20611
fa80  60         RTS         A:b3 X:02 Y:ff P:e4 SP:f9 CYC:20613
ef07  13 45      SLO ($45),Y A:b3 X:02 Y:ff P:e4 SP:fb CYC:20619
ef09  ea         NOP         A:fb X:02 Y:ff P:e5 SP:fb CYC:20627
ef0a  ea         NOP         A:fb X:02 Y:ff P:e5 SP:fb CYC:20629
ef0b  08         PHP         A:fb X:02 Y:ff P:e5 SP:fb CYC:20631
ef0c  48         PHA         A:fb X:02 Y:ff P:e5 SP:fa CYC:20634
ef0d  a0 c8      LDY #$c8    A:fb X:02 Y:ff P:e5 SP:f9 CYC:20637
ef0f  68         PLA         A:fb X:02 Y:c8 P:e5 SP:f9 CYC:20639
ef10  28         PLP         A:fb X:02 Y:c8 P:e5 SP:fa CYC:20643
ef11  20 81 fa   JSR $fa81   A:fb X:02 Y:c8 P:e5 SP:fb CYC:20647
fa81  50 63      BVC $fae6   A:fb X:02 Y:c8 P:e5 SP:f9 CYC:20653
fa83  90 61      BCC $fae6   A:fb X:02 Y:c8 P:e5 SP:f9 CYC:20655
fa85  10 5f      BPL $fae6   A:fb X:02 Y:c8 P:e5 SP:f9 CYC:20657
fa87  c9 fb      CMP #$fb    A:fb X:02 Y:c8 P:e5 SP:f9 CYC:20659
fa89  d0 5b      BNE $fae6   A:fb X:02 Y:c8 P:67 SP:f9 CYC:20661
fa8b  60         RTS         A:fb X:02 Y:c8 P:67 SP:f9 CYC:20663
ef14  ad 47 06   LDA $0647   A:fb X:02 Y:c8 P:67 SP:fb CYC:20669
ef17  c9 4a      CMP #$4a    A:4a X:02 Y:c8 P:65 SP:fb CYC:20673
ef19  f0 02      BEQ $ef1d   A:4a X:02 Y:c8 P:67 SP:fb CYC:20675
ef1d  a0 ff      LDY #$ff    A:4a X:02 Y:c8 P:67 SP:fb CYC:20678
ef1f  a9 29      LDA #$29    A:4a X:02 Y:ff P:e5 SP:fb CYC:20680
ef21  8d 47 06   STA $0647   A:29 X:02 Y:ff P:65 SP:fb CYC:20682
ef24  20 8c fa   JSR $fa8c   A:29 X:02 Y:ff P:65 SP:fb CYC:20686
fa8c  b8         CLV         A:29 X:02 Y:ff P:65 SP:f9 CYC:20692
fa8d  18         CLC         A:29 X:02 Y:ff P:25 SP:f9 CYC:20694
fa8e  a9 c3      LDA #$c3    A:29 X:02 Y:ff P:24 SP:f9 CYC:20696
fa90  60         RTS         A:c3 X:02 Y:ff P:a4 SP:f9 CYC:20698
ef27  13 45      SLO ($45),Y A:c3 X:02 Y:ff P:a4 SP:fb CYC:20704
ef29  ea         NOP         A:d3 X:02 Y:ff P:a4 SP:fb CYC:20712
ef2a  ea         NOP         A:d3 X:02 Y:ff P:a4 SP:fb CYC:20714
ef2b  08         PHP         A:d3 X:02 Y:ff P:a4 SP:fb CYC:20716
ef2c  48         PHA         A:d3 X:02 Y:ff P:a4 SP:fa CYC:20719
ef2d  a0 c9      LDY #$c9    A:d3 X:02 Y:ff P:a4 SP:f9 CYC:20722
ef2f  68         PLA         A:d3 X:02 Y:c9 P:a4 SP:f9 CYC:20724
ef30  28         PLP         A:d3 X:02 Y:c9 P:a4 SP:fa CYC:20728
ef31  20 91 fa   JSR $fa91   A:d3 X:02 Y:c9 P:a4 SP:fb CYC:20732
fa91  70 53      BVS $fae6   A:d3 X:02 Y:c9 P:a4 SP:f9 CYC:20738
fa93  f0 51      BEQ $fae6   A:d3 X:02 Y:c9 P:a4 SP:f9 CYC:20740
fa95  10 4f      BPL $fae6   A:d3 X:02 Y:c9 P:a4 SP:f9 CYC:20742
fa97  b0 4d      BCS $fae6   A:d3 X:02 Y:c9 P:a4 SP:f9 CYC:20744
fa99  c9 d3      CMP #$d3    A:d3 X:02 Y:c9 P:a4 SP:f9 CYC:20746
fa9b  d0 49      BNE $fae6   A:d3 X:02 Y:c9 P:27 SP:f9 CYC:20748
fa9d  60         RTS         A:d3 X:02 Y:c9 P:27 SP:f9 CYC:20750
ef34  ad 47 06   LDA $0647   A:d3 X:02 Y:c9 P:27 SP:fb CYC:20756
ef37  c9 52      CMP #$52    A:52 X:02 Y:c9 P:25 SP:fb CYC:20760
ef39  f0 02      BEQ $ef3d   A:52 X:02 Y:c9 P:27 SP:fb CYC:20762
ef3d  a0 ff      LDY #$ff    A:52 X:02 Y:c9 P:27 SP:fb CYC:20765
ef3f  a9 37      LDA #$37    A:52 X:02 Y:ff P:a5 SP:fb CYC:20767
ef41  8d 47 06   STA $0647   A:37 X:02 Y:ff P:25 SP:fb CYC:20769
ef44  20 9e fa   JSR $fa9e   A:37 X:02 Y:ff P:25 SP:fb CYC:20773
fa9e  24 01      BIT $01     A:37 X:02 Y:ff P:25 SP:f9 CYC:20779
faa0  38         SEC         A:37 X:02 Y:ff P:e5 SP:f9 CYC:20782
faa1  a9 10      LDA #$10    A:37 X:02 Y:ff P:e5 SP:f9 CYC:20784
faa3  60         RTS         A:10 X:02 Y:ff P:65 SP:f9 CYC:20786
ef47  13 45      SLO ($45),Y A:10 X:02 Y:ff P:65 SP:fb CYC:20792
ef49  ea         NOP         A:7e X:02 Y:ff P:64 SP:fb CYC:20800
ef4a  ea         NOP         A:7e X:02 Y:ff P:64 SP:fb CYC:20802
ef4b  08         PHP         A:7e X:02 Y:ff P:64 SP:fb CYC:20804
ef4c  48         PHA         A:7e X:02 Y:ff P:64 SP:fa CYC:20807
ef4d  a0 ca      LDY #$ca    A:7e X:02 Y:ff P:64 SP:f9 CYC:20810
ef4f  68         PLA         A:7e X:02 Y:ca P:e4 SP:f9 CYC:20812
ef50  28         PLP         A:7e X:02 Y:ca P:64 SP:fa CYC:20816
ef51  20 a4 fa   JSR $faa4   A:7e X:02 Y:ca P:64 SP:fb CYC:20820
faa4  50 40      BVC $fae6   A:7e X:02 Y:ca P:64 SP:f9 CYC:20826
faa6  f0 3e      BEQ $fae6   A:7e X:02 Y:ca P:64 SP:f9 CYC:20828
faa8  30 3c      BMI $fae6   A:7e X:02 Y:ca P:64 SP:f9 CYC:20830
faaa  b0 3a      BCS $fae6   A:7e X:02 Y:ca P:64 SP:f9 CYC:20832
faac  c9 7e      CMP #$7e    A:7e X:02 Y:ca P:64 SP:f9 CYC:20834
faae  d0 36      BNE $fae6   A:7e X:02 Y:ca P:67 SP:f9 CYC:20836
fab0  60         RTS         A:7e X:02 Y:ca P:67 SP:f9 CYC:20838
ef54  ad 47 06   LDA $0647   A:7e X:02 Y:ca P:67 SP:fb CYC:20844
ef57  c9 6e      CMP #$6e    A:6e X:02 Y:ca P:65 SP:fb CYC:20848
ef59  f0 02      BEQ $ef5d   A:6e X:02 Y:ca P:67 SP:fb CYC:20850
ef5d  a0 cb      LDY #$cb    A:6e X:02 Y:ca P:67 SP:fb CYC:20853
ef5f  a2 ff      LDX #$ff    A:6e X:02 Y:cb P:e5 SP:fb CYC:20855
ef61  a9 a5      LDA #$a5    A:6e X:ff Y:cb P:e5 SP:fb CYC:20857
ef63  85 47      STA $47     A:a5 X:ff Y:cb P:e5 SP:fb CYC:20859
ef65  20 7b fa   JSR $fa7b   A:a5 X:ff Y:cb P:e5 SP:fb CYC:20862
fa7b  24 01      BIT $01     A:a5 X:ff Y:cb P:e5 SP:f9 CYC:20868
fa7d  18         CLC         A:a5 X:ff Y:cb P:e5 SP:f9 CYC:20871
fa7e  a9 b3      LDA #$b3    A:a5 X:ff Y:cb P:e4 SP:f9 CYC:20873
fa80  60         RTS         A:b3 X:ff Y:cb P:e4 SP:f9 CYC:20875
ef68  17 48      SLO $48,X   A:b3 X:ff Y:cb P:e4 SP:fb CYC:20881
ef6a  ea         NOP         A:fb X:ff Y:cb P:e5 SP:fb CYC:20887
ef6b  ea         NOP         A:fb X:ff Y:cb P:e5 SP:fb CYC:20889
ef6c  ea         NOP         A:fb X:ff Y:cb P:e5 SP:fb CYC:20891
ef6d  ea         NOP         A:fb X:ff Y:cb P:e5 SP:fb CYC:20893
ef6e  20 81 fa   JSR $fa81   A:fb X:ff Y:cb P:e5 SP:fb CYC:20895
fa81  50 63      BVC $fae6   A:fb X:ff Y:cb P:e5 SP:f9 CYC:20901
fa83  90 61      BCC $fae6   A:fb X:ff Y:cb P:e5 SP:f9 CYC:20903
fa85  10 5f      BPL $fae6   A:fb X:ff Y:cb P:e5 SP:f9 CYC:20905
fa87  c9 fb      CMP #$fb    A:fb X:ff Y:cb P:e5 SP:f9 CYC:20907
fa89  d0 5b      BNE $fae6   A:fb X:ff Y:cb P:67 SP:f9 CYC:20909
fa8b  60         RTS         A:fb X:ff Y:cb P:67 SP:f9 CYC:20911
ef71  a5 47      LDA $47     A:fb X:ff Y:cb P:67 SP:fb CYC:20917
ef73  c9 4a      CMP #$4a    A:4a X:ff Y:cb P:65 SP:fb CYC:20920
ef75  f0 02      BEQ $ef79   A:4a X:ff Y:cb P:67 SP:fb CYC:20922
ef79  c8         INY         A:4a X:ff Y:cb P:67 SP:fb CYC:20925
ef7a  a9 29      LDA #$29    A:4a X:ff Y:cc P:e5 SP:fb CYC:20927
ef7c  85 47      STA $47     A:29 X:ff Y:cc P:65 SP:fb CYC:20929
ef7e  20 8c fa   JSR $fa8c   A:29 X:ff Y:cc P:65 SP:fb CYC:20932
fa8c  b8         CLV         A:29 X:ff Y:cc P:65 SP:f9 CYC:20938
fa8d  18         CLC         A:29 X:ff Y:cc P:25 SP:f9 CYC:20940
fa8e  a9 c3      LDA #$c3    A:29 X:ff Y:cc P:24 SP:f9 CYC:20942
fa90  60         RTS         A:c3 X:ff Y:cc P:a4 SP:f9 CYC:20944
ef81  17 48      SLO $48,X   A:c3 X:ff Y:cc P:a4 SP:fb CYC:20950
ef83  ea         NOP         A:d3 X:ff Y:cc P:a4 SP:fb CYC:20956
ef84  ea         NOP         A:d3 X:ff Y:cc P:a4 SP:fb CYC:20958
ef85  ea         NOP         A:d3 X:ff Y:cc P:a4 SP:fb CYC:20960
ef86  ea         NOP         A:d3 X:ff Y:cc P:a4 SP:fb CYC:20962
ef87  20 91 fa   JSR $fa91   A:d3 X:ff Y:cc P:a4 SP:fb CYC:20964
fa91  70 53      BVS $fae6   A:d3 X:ff Y:cc P:a4 SP:f9 CYC:20970
fa93  f0 51      BEQ $fae6   A:d3 X:ff Y:cc P:a4 SP:f9 CYC:20972
fa95  10 4f      BPL $fae6   A:d3 X:ff Y:cc P:a4 SP:f9 CYC:20974
fa97  b0 4d      BCS $fae6   A:d3 X:ff Y:cc P:a4 SP:f9 CYC:20976
fa99  c9 d3      CMP #$d3    A:d3 X:ff Y:cc P:a4 SP:f9 CYC:20978
fa9b  d0 49      BNE $fae6   A:d3 X:ff Y:cc P:27 SP:f9 CYC:20980
fa9d  60         RTS         A:d3 X:ff Y:cc P:27 SP:f9 CYC:20982
ef8a  a5 47      LDA $47     A:d3 X:ff Y:cc P:27 SP:fb CYC:20988
ef8c  c9 52      CMP #$52    A:52 X:ff Y:cc P:25 SP:fb CYC:20991
ef8e  f0 02      BEQ $ef92   A:52 X:ff Y:cc P:27 SP:fb CYC:20993
ef92  c8         INY         A:52 X:ff Y:cc P:27 SP:fb CYC:20996
ef93  a9 37      LDA #$37    A:52 X:ff Y:cd P:a5 SP:fb CYC:20998
ef95  85 47      STA $47     A:37 X:ff Y:cd P:25 SP:fb CYC:21000
ef97  20 9e fa   JSR $fa9e   A:37 X:ff Y:cd P:25 SP:fb CYC:21003
fa9e  24 01      BIT $01     A:37 X:ff Y:cd P:25 SP:f9 CYC:21009
faa0  38         SEC         A:37 X:ff Y:cd P:e5 SP:f9 CYC:21012
faa1  a9 10      LDA #$10    A:37 X:ff Y:cd P:e5 SP:f9 CYC:21014
faa3  60         RTS         A:10 X:ff Y:cd P:65 SP:f9 CYC:21016
ef9a  17 48      SLO $48,X   A:10 X:ff Y:cd P:65 SP:fb CYC:21022
ef9c  ea         NOP         A:7e X:ff Y:cd P:64 SP:fb CYC:21028
ef9d  ea         NOP         A:7e X:ff Y:cd P:64 SP:fb CYC:21030
ef9e  ea         NOP         A:7e X:ff Y:cd P:64 SP:fb CYC:21032
ef9f  ea         NOP         A:7e X:ff Y:cd P:64 SP:fb CYC:21034
efa0  20 a4 fa   JSR $faa4   A:7e X:ff Y:cd P:64 SP:fb CYC:21036
faa4  50 40      BVC $fae6   A:7e X:ff Y:cd P:64 SP:f9 CYC:21042
faa6  f0 3e      BEQ $fae6   A:7e X:ff Y:cd P:64 SP:f9 CYC:21044
faa8  30 3c      BMI $fae6   A:7e X:ff Y:cd P:64 SP:f9 CYC:21046
faaa  b0 3a      BCS $fae6   A:7e X:ff Y:cd P:64 SP:f9 CYC:21048
faac  c9 7e      CMP #$7e    A:7e X:ff Y:cd P:64 SP:f9 CYC:21050
faae  d0 36      BNE $fae6   A:7e X:ff Y:cd P:67 SP:f9 CYC:21052
fab0  60         RTS         A:7e X:ff Y:cd P:67 SP:f9 CYC:21054
efa3  a5 47      LDA $47     A:7e X:ff Y:cd P:67 SP:fb CYC:21060
efa5  c9 6e      CMP #$6e    A:6e X:ff Y:cd P:65 SP:fb CYC:21063
efa7  f0 02      BEQ $efab   A:6e X:ff Y:cd P:67 SP:fb CYC:21065
efab  a9 a5      LDA #$a5    A:6e X:ff Y:cd P:67 SP:fb CYC:21068
efad  8d 47 06   STA $0647   A:a5 X:ff Y:cd P:e5 SP:fb CYC:21070
efb0  a0 ff      LDY #$ff    A:a5 X:ff Y:cd P:e5 SP:fb CYC:21074
efb2  20 7b fa   JSR $fa7b   A:a5 X:ff Y:ff P:e5 SP:fb CYC:21076
fa7b  24 01      BIT $01     A:a5 X:ff Y:ff P:e5 SP:f9 CYC:21082
fa7d  18         CLC         A:a5 X:ff Y:ff P:e5 SP:f9 CYC:21085
fa7e  a9 b3      LDA #$b3    A:a5 X:ff Y:ff P:e4 SP:f9 CYC:21087
fa80  60         RTS         A:b3 X:ff Y:ff P:e4 SP:f9 CYC:21089
efb5  1b 48 05   SLO $0548,Y A:b3 X:ff Y:ff P:e4 SP:fb CYC:21095
efb8  ea         NOP         A:fb X:ff Y:ff P:e5 SP:fb CYC:21102
efb9  ea         NOP         A:fb X:ff Y:ff P:e5 SP:fb CYC:21104
efba  08         PHP         A:fb X:ff Y:ff P:e5 SP:fb CYC:21106
efbb  48         PHA         A:fb X:ff Y:ff P:e5 SP:fa CYC:21109
efbc  a0 ce      LDY #$ce    A:fb X:ff Y:ff P:e5 SP:f9 CYC:21112
efbe  68         PLA         A:fb X:ff Y:ce P:e5 SP:f9 CYC:21114
efbf  28         PLP         A:fb X:ff Y:ce P:e5 SP:fa CYC:21118
efc0  20 81 fa   JSR $fa81   A:fb X:ff Y:ce P:e5 SP:fb CYC:21122
fa81  50 63      BVC $fae6   A:fb X:ff Y:ce P:e5 SP:f9 CYC:21128
fa83  90 61      BCC $fae6   A:fb X:ff Y:ce P:e5 SP:f9 CYC:21130
fa85  10 5f      BPL $fae6   A:fb X:ff Y:ce P:e5 SP:f9 CYC:21132
fa87  c9 fb      CMP #$fb    A:fb X:ff Y:ce P:e5 SP:f9 CYC:21134
fa89  d0 5b      BNE $fae6   A:fb X:ff Y:ce P:67 SP:f9 CYC:21136
fa8b  60         RTS         A:fb X:ff Y:ce P:67 SP:f9 CYC:21138
efc3  ad 47 06   LDA $0647   A:fb X:ff Y:ce P:67 SP:fb CYC:21144
efc6  c9 4a      CMP #$4a    A:4a X:ff Y:ce P:65 SP:fb CYC:21148
efc8  f0 02      BEQ $efcc   A:4a X:ff Y:ce P:67 SP:fb CYC:21150
efcc  a0 ff      LDY #$ff    A:4a X:ff Y:ce P:67 SP:fb CYC:21153
efce  a9 29      LDA #$29    A:4a X:ff Y:ff P:e5 SP:fb CYC:21155
efd0  8d 47 06   STA $0647   A:29 X:ff Y:ff P:65 SP:fb CYC:21157
efd3  20 8c fa   JSR $fa8c   A:29 X:ff Y:ff P:65 SP:fb CYC:21161
fa8c  b8         CLV         A:29 X:ff Y:ff P:65 SP:f9 CYC:21167
fa8d  18         CLC         A:29 X:ff Y:ff P:25 SP:f9 CYC:21169
fa8e  a9 c3      LDA #$c3    A:29 X:ff Y:ff P:24 SP:f9 CYC:21171
fa90  60         RTS         A:c3 X:ff Y:ff P:a4 SP:f9 CYC:21173
efd6  1b 48 05   SLO $0548,Y A:c3 X:ff Y:ff P:a4 SP:fb CYC:21179
efd9  ea         NOP         A:d3 X:ff Y:ff P:a4 SP:fb CYC:21186
efda  ea         NOP         A:d3 X:ff Y:ff P:a4 SP:fb CYC:21188
efdb  08         PHP         A:d3 X:ff Y:ff P:a4 SP:fb CYC:21190
efdc  48         PHA         A:d3 X:ff Y:ff P:a4 SP:fa CYC:21193
efdd  a0 cf      LDY #$cf    A:d3 X:ff Y:ff P:a4 SP:f9 CYC:21196
efdf  68         PLA         A:d3 X:ff Y:cf P:a4 SP:f9 CYC:21198
efe0  28         PLP         A:d3 X:ff Y:cf P:a4 SP:fa CYC:21202
efe1  20 91 fa   JSR $fa91   A:d3 X:ff Y:cf P:a4 SP:fb CYC:21206
fa91  70 53      BVS $fae6   A:d3 X:ff Y:cf P:a4 SP:f9 CYC:21212
fa93  f0 51      BEQ $fae6   A:d3 X:ff Y:cf P:a4 SP:f9 CYC:21214
fa95  10 4f      BPL $fae6   A:d3 X:ff Y:cf P:a4 SP:f9 CYC:21216
fa97  b0 4d      BCS $fae6   A:d3 X:ff Y:cf P:a4 SP:f9 CYC:21218
fa99  c9 d3      CMP #$d3    A:d3 X:ff Y:cf P:a4 SP:f9 CYC:21220
fa9b  d0 49      BNE $fae6   A:d3 X:ff Y:cf P:27 SP:f9 CYC:21222
fa9d  60         RTS         A:d3 X:ff Y:cf P:27 SP:f9 CYC:21224
efe4  ad 47 06   LDA $0647   A:d3 X:ff Y:cf P:27 SP:fb CYC:21230
efe7  c9 52      CMP #$52    A:52 X:ff Y:cf P:25 SP:fb CYC:21234
efe9  f0 02      BEQ $efed   A:52 X:ff Y:cf P:27 SP:fb CYC:21236
efed  a0 ff      LDY #$ff    A:52 X:ff Y:cf P:27 SP:fb CYC:21239
efef  a9 37      LDA #$37    A:52 X:ff Y:ff P:a5 SP:fb CYC:21241
eff1  8d 47 06   STA $0647   A:37 X:ff Y:ff P:25 SP:fb CYC:21243
eff4  20 9e fa   JSR $fa9e   A:37 X:ff Y:ff P:25 SP:fb CYC:21247
fa9e  24 01      BIT $01     A:37 X:ff Y:ff P:25 SP:f9 CYC:21253
faa0  38         SEC         A:37 X:ff Y:ff P:e5 SP:f9 CYC:21256
faa1  a9 10      LDA #$10    A:37 X:ff Y:ff P:e5 SP:f9 CYC:21258
faa3  60         RTS         A:10 X:ff Y:ff P:65 SP:f9 CYC:21260
eff7  1b 48 05   SLO $0548,Y A:10 X:ff Y:ff P:65 SP:fb CYC:21266
effa  ea         NOP         A:7e X:ff Y:ff P:64 SP:fb CYC:21273
effb  ea         NOP         A:7e X:ff Y:ff P:64 SP:fb CYC:21275
effc  08         PHP         A:7e X:ff Y:ff P:64 SP:fb CYC:21277
effd  48         PHA         A:7e X:ff Y:ff P:64 SP:fa CYC:21280
effe  a0 d0      LDY #$d0    A:7e X:ff Y:ff P:64 SP:f9 CYC:21283
f000  68         PLA         A:7e X:ff Y:d0 P:e4 SP:f9 CYC:21285
f001  28         PLP         A:7e X:ff Y:d0 P:64 SP:fa CYC:21289
f002  20 a4 fa   JSR $faa4   A:7e X:ff Y:d0 P:64 SP:fb CYC:21293
faa4  50 40      BVC $fae6   A:7e X:ff Y:d0 P:64 SP:f9 CYC:21299
faa6  f0 3e      BEQ $fae6   A:7e X:ff Y:d0 P:64 SP:f9 CYC:21301
faa8  30 3c      BMI $fae6   A:7e X:ff Y:d0 P:64 SP:f9 CYC:21303
faaa  b0 3a      BCS $fae6   A:7e X:ff Y:d0 P:64 SP:f9 CYC:21305
faac  c9 7e      CMP #$7e    A:7e X:ff Y:d0 P:64 SP:f9 CYC:21307
faae  d0 36      BNE $fae6   A:7e X:ff Y:d0 P:67 SP:f9 CYC:21309
fab0  60         RTS         A:7e X:ff Y:d0 P:67 SP:f9 CYC:21311
f005  ad 47 06   LDA $0647   A:7e X:ff Y:d0 P:67 SP:fb CYC:21317
f008  c9 6e      CMP #$6e    A:6e X:ff Y:d0 P:65 SP:fb CYC:21321
f00a  f0 02      BEQ $f00e   A:6e X:ff Y:d0 P:67 SP:fb CYC:21323
f00e  a0 d1      LDY #$d1    A:6e X:ff Y:d0 P:67 SP:fb CYC:21326
f010  a2 ff      LDX #$ff    A:6e X:ff Y:d1 P:e5 SP:fb CYC:21328
f012  a9 a5      LDA #$a5    A:6e X:ff Y:d1 P:e5 SP:fb CYC:21330
f014  8d 47 06   STA $0647   A:a5 X:ff Y:d1 P:e5 SP:fb CYC:21332
f017  20 7b fa   JSR $fa7b   A:a5 X:ff Y:d1 P:e5 SP:fb CYC:21336
fa7b  24 01      BIT $01     A:a5 X:ff Y:d1 P:e5 SP:f9 CYC:21342
fa7d  18         CLC         A:a5 X:ff Y:d1 P:e5 SP:f9 CYC:21345
fa7e  a9 b3      LDA #$b3    A:a5 X:ff Y:d1 P:e4 SP:f9 CYC:21347
fa80  60         RTS         A:b3 X:ff Y:d1 P:e4 SP:f9 CYC:21349
f01a  1f 48 05   SLO $0548,X A:b3 X:ff Y:d1 P:e4 SP:fb CYC:21355
f01d  ea         NOP         A:fb X:ff Y:d1 P:e5 SP:fb CYC:21362
f01e  ea         NOP         A:fb X:ff Y:d1 P:e5 SP:fb CYC:21364
f01f  ea         NOP         A:fb X:ff Y:d1 P:e5 SP:fb CYC:21366
f020  ea         NOP         A:fb X:ff Y:d1 P:e5 SP:fb CYC:21368
f021  20 81 fa   JSR $fa81   A:fb X:ff Y:d1 P:e5 SP:fb CYC:21370
fa81  50 63      BVC $fae6   A:fb X:ff Y:d1 P:e5 SP:f9 CYC:21376
fa83  90 61      BCC $fae6   A:fb X:ff Y:d1 P:e5 SP:f9 CYC:21378
fa85  10 5f      BPL $fae6   A:fb X:ff Y:d1 P:e5 SP:f9 CYC:21380
fa87  c9 fb      CMP #$fb    A:fb X:ff Y:d1 P:e5 SP:f9 CYC:21382
fa89  d0 5b      BNE $fae6   A:fb X:ff Y:d1 P:67 SP:f9 CYC:21384
fa8b  60         RTS         A:fb X:ff Y:d1 P:67 SP:f9 CYC:21386
f024  ad 47 06   LDA $0647   A:fb X:ff Y:d1 P:67 SP:fb CYC:21392
f027  c9 4a      CMP #$4a    A:4a X:ff Y:d1 P:65 SP:fb CYC:21396
f029  f0 02      BEQ $f02d   A:4a X:ff Y:d1 P:67 SP:fb CYC:21398
f02d  c8         INY         A:4a X:ff Y:d1 P:67 SP:fb CYC:21401
f02e  a9 29      LDA #$29    A:4a X:ff Y:d2 P:e5 SP:fb CYC:21403
f030  8d 47 06   STA $0647   A:29 X:ff Y:d2 P:65 SP:fb CYC:21405
f033  20 8c fa   JSR $fa8c   A:29 X:ff Y:d2 P:65 SP:fb CYC:21409
fa8c  b8         CLV         A:29 X:ff Y:d2 P:65 SP:f9 CYC:21415
fa8d  18         CLC         A:29 X:ff Y:d2 P:25 SP:f9 CYC:21417
fa8e  a9 c3      LDA #$c3    A:29 X:ff Y:d2 P:24 SP:f9 CYC:21419
fa90  60         RTS         A:c3 X:ff Y:d2 P:a4 SP:f9 CYC:21421
f036  1f 48 05   SLO $0548,X A:c3 X:ff Y:d2 P:a4 SP:fb CYC:21427
f039  ea         NOP         A:d3 X:ff Y:d2 P:a4 SP:fb CYC:21434
f03a  ea         NOP         A:d3 X:ff Y:d2 P:a4 SP:fb CYC:21436
f03b  ea         NOP         A:d3 X:ff Y:d2 P:a4 SP:fb CYC:21438
f03c  ea         NOP         A:d3 X:ff Y:d2 P:a4 SP:fb CYC:21440
f03d  20 91 fa   JSR $fa91   A:d3 X:ff Y:d2 P:a4 SP:fb CYC:21442
fa91  70 53      BVS $fae6   A:d3 X:ff Y:d2 P:a4 SP:f9 CYC:21448
fa93  f0 51      BEQ $fae6   A:d3 X:ff Y:d2 P:a4 SP:f9 CYC:21450
fa95  10 4f      BPL $fae6   A:d3 X:ff Y:d2 P:a4 SP:f9 CYC:21452
fa97  b0 4d      BCS $fae6   A:d3 X:ff Y:d2 P:a4 SP:f9 CYC:21454
fa99  c9 d3      CMP #$d3    A:d3 X:ff Y:d2 P:a4 SP:f9 CYC:21456
fa9b  d0 49      BNE $fae6   A:d3 X:ff Y:d2 P:27 SP:f9 CYC:21458
fa9d  60         RTS         A:d3 X:ff Y:d2 P:27 SP:f9 CYC:21460
f040  ad 47 06   LDA $0647   A:d3 X:ff Y:d2 P:27 SP:fb CYC:21466
f043  c9 52      CMP #$52    A:52 X:ff Y:d2 P:25 SP:fb CYC:21470
f045  f0 02      BEQ $f049   A:52 X:ff Y:d2 P:27 SP:fb CYC:21472
f049  c8         INY         A:52 X:ff Y:d2 P:27 SP:fb CYC:21475
f04a  a9 37      LDA #$37    A:52 X:ff Y:d3 P:a5 SP:fb CYC:21477
f04c  8d 47 06   STA $0647   A:37 X:ff Y:d3 P:25 SP:fb CYC:21479
f04f  20 9e fa   JSR $fa9e   A:37 X:ff Y:d3 P:25 SP:fb CYC:21483
fa9e  24 01      BIT $01     A:37 X:ff Y:d3 P:25 SP:f9 CYC:21489
faa0  38         SEC         A:37 X:ff Y:d3 P:e5 SP:f9 CYC:21492
faa1  a9 10      LDA #$10    A:37 X:ff Y:d3 P:e5 SP:f9 CYC:21494
faa3  60         RTS         A:10 X:ff Y:d3 P:65 SP:f9 CYC:21496
f052  1f 48 05   SLO $0548,X A:10 X:ff Y:d3 P:65 SP:fb CYC:21502
f055  ea         NOP         A:7e X:ff Y:d3 P:64 SP:fb CYC:21509
f056  ea         NOP         A:7e X:ff Y:d3 P:64 SP:fb CYC:21511
f057  ea         NOP         A:7e X:ff Y:d3 P:64 SP:fb CYC:21513
f058  ea         NOP         A:7e X:ff Y:d3 P:64 SP:fb CYC:21515
f059  20 a4 fa   JSR $faa4   A:7e X:ff Y:d3 P:64 SP:fb CYC:21517
faa4  50 40      BVC $fae6   A:7e X:ff Y:d3 P:64 SP:f9 CYC:21523
faa6  f0 3e      BEQ $fae6   A:7e X:ff Y:d3 P:64 SP:f9 CYC:21525
faa8  30 3c      BMI $fae6   A:7e X:ff Y:d3 P:64 SP:f9 CYC:21527
faaa  b0 3a      BCS $fae6   A:7e X:ff Y:d3 P:64 SP:f9 CYC:21529
faac  c9 7e      CMP #$7e    A:7e X:ff Y:d3 P:64 SP:f9 CYC:21531
faae  d0 36      BNE $fae6   A:7e X:ff Y:d3 P:67 SP:f9 CYC:21533
fab0  60         RTS         A:7e X:ff Y:d3 P:67 SP:f9 CYC:21535
f05c  ad 47 06   LDA $0647   A:7e X:ff Y:d3 P:67 SP:fb CYC:21541
f05f  c9 6e      CMP #$6e    A:6e X:ff Y:d3 P:65 SP:fb CYC:21545
f061  f0 02      BEQ $f065   A:6e X:ff Y:d3 P:67 SP:fb CYC:21547
f065  60         RTS         A:6e X:ff Y:d3 P:67 SP:fb CYC:21550
c644  20 66 f0   JSR $f066   A:6e X:ff Y:d3 P:67 SP:fd CYC:21556
f066  a9 ff      LDA #$ff    A:6e X:ff Y:d3 P:67 SP:fb CYC:21562
f068  85 01      STA $01     A:ff X:ff Y:d3 P:e5 SP:fb CYC:21564
f06a  a0 d4      LDY #$d4    A:ff X:ff Y:d3 P:e5 SP:fb CYC:21567
f06c  a2 02      LDX #$02    A:ff X:ff Y:d4 P:e5 SP:fb CYC:21569
f06e  a9 47      LDA #$47    A:ff X:02 Y:d4 P:65 SP:fb CYC:21571
f070  85 47      STA $47     A:47 X:02 Y:d4 P:65 SP:fb CYC:21573
f072  a9 06      LDA #$06    A:47 X:02 Y:d4 P:65 SP:fb CYC:21576
f074  85 48      STA $48     A:06 X:02 Y:d4 P:65 SP:fb CYC:21578
f076  a9 a5      LDA #$a5    A:06 X:02 Y:d4 P:65 SP:fb CYC:21581
f078  8d 47 06   STA $0647   A:a5 X:02 Y:d4 P:e5 SP:fb CYC:21583
f07b  20 53 fb   JSR $fb53   A:a5 X:02 Y:d4 P:e5 SP:fb CYC:21587
fb53  24 01      BIT $01     A:a5 X:02 Y:d4 P:e5 SP:f9 CYC:21593
fb55  18         CLC         A:a5 X:02 Y:d4 P:e5 SP:f9 CYC:21596
fb56  a9 b3      LDA #$b3    A:a5 X:02 Y:d4 P:e4 SP:f9 CYC:21598
fb58  60         RTS         A:b3 X:02 Y:d4 P:e4 SP:f9 CYC:21600
f07e  23 45      RLA ($45,X) A:b3 X:02 Y:d4 P:e4 SP:fb CYC:21606
f080  ea         NOP         A:02 X:02 Y:d4 P:65 SP:fb CYC:21614
f081  ea         NOP         A:02 X:02 Y:d4 P:65 SP:fb CYC:21616
f082  ea         NOP         A:02 X:02 Y:d4 P:65 SP:fb CYC:21618
f083  ea         NOP         A:02 X:02 Y:d4 P:65 SP:fb CYC:21620
f084  20 59 fb   JSR $fb59   A:02 X:02 Y:d4 P:65 SP:fb CYC:21622
fb59  50 1a      BVC $fb75   A:02 X:02 Y:d4 P:65 SP:f9 CYC:21628
fb5b  90 18      BCC $fb75   A:02 X:02 Y:d4 P:65 SP:f9 CYC:21630
fb5d  30 16      BMI $fb75   A:02 X:02 Y:d4 P:65 SP:f9 CYC:21632
fb5f  c9 02      CMP #$02    A:02 X:02 Y:d4 P:65 SP:f9 CYC:21634
fb61  d0 12      BNE $fb75   A:02 X:02 Y:d4 P:67 SP:f9 CYC:21636
fb63  60         RTS         A:02 X:02 Y:d4 P:67 SP:f9 CYC:21638
f087  ad 47 06   LDA $0647   A:02 X:02 Y:d4 P:67 SP:fb CYC:21644
f08a  c9 4a      CMP #$4a    A:4a X:02 Y:d4 P:65 SP:fb CYC:21648
f08c  f0 02      BEQ $f090   A:4a X:02 Y:d4 P:67 SP:fb CYC:21650
f090  c8         INY         A:4a X:02 Y:d4 P:67 SP:fb CYC:21653
f091  a9 29      LDA #$29    A:4a X:02 Y:d5 P:e5 SP:fb CYC:21655
f093  8d 47 06   STA $0647   A:29 X:02 Y:d5 P:65 SP:fb CYC:21657
f096  20 64 fb   JSR $fb64   A:29 X:02 Y:d5 P:65 SP:fb CYC:21661
fb64  b8         CLV         A:29 X:02 Y:d5 P:65 SP:f9 CYC:21667
fb65  18         CLC         A:29 X:02 Y:d5 P:25 SP:f9 CYC:21669
fb66  a9 42      LDA #$42    A:29 X:02 Y:d5 P:24 SP:f9 CYC:21671
fb68  60         RTS         A:42 X:02 Y:d5 P:24 SP:f9 CYC:21673
f099  23 45      RLA ($45,X) A:42 X:02 Y:d5 P:24 SP:fb CYC:21679
f09b  ea         NOP         A:42 X:02 Y:d5 P:24 SP:fb CYC:21687
f09c  ea         NOP         A:42 X:02 Y:d5 P:24 SP:fb CYC:21689
f09d  ea         NOP         A:42 X:02 Y:d5 P:24 SP:fb CYC:21691
f09e  ea         NOP         A:42 X:02 Y:d5 P:24 SP:fb CYC:21693
f09f  20 69 fb   JSR $fb69   A:42 X:02 Y:d5 P:24 SP:fb CYC:21695
fb69  70 0a      BVS $fb75   A:42 X:02 Y:d5 P:24 SP:f9 CYC:21701
fb6b  f0 08      BEQ $fb75   A:42 X:02 Y:d5 P:24 SP:f9 CYC:21703
fb6d  30 06      BMI $fb75   A:42 X:02 Y:d5 P:24 SP:f9 CYC:21705
fb6f  b0 04      BCS $fb75   A:42 X:02 Y:d5 P:24 SP:f9 CYC:21707
fb71  c9 42      CMP #$42    A:42 X:02 Y:d5 P:24 SP:f9 CYC:21709
fb73  f0 02      BEQ $fb77   A:42 X:02 Y:d5 P:27 SP:f9 CYC:21711
fb77  60         RTS         A:42 X:02 Y:d5 P:27 SP:f9 CYC:21714
f0a2  ad 47 06   LDA $0647   A:42 X:02 Y:d5 P:27 SP:fb CYC:21720
f0a5  c9 52      CMP #$52    A:52 X:02 Y:d5 P:25 SP:fb CYC:21724
f0a7  f0 02      BEQ $f0ab   A:52 X:02 Y:d5 P:27 SP:fb CYC:21726
f0ab  c8         INY         A:52 X:02 Y:d5 P:27 SP:fb CYC:21729
f0ac  a9 37      LDA #$37    A:52 X:02 Y:d6 P:a5 SP:fb CYC:21731
f0ae  8d 47 06   STA $0647   A:37 X:02 Y:d6 P:25 SP:fb CYC:21733
f0b1  20 68 fa   JSR $fa68   A:37 X:02 Y:d6 P:25 SP:fb CYC:21737
fa68  24 01      BIT $01     A:37 X:02 Y:d6 P:25 SP:f9 CYC:21743
fa6a  38         SEC         A:37 X:02 Y:d6 P:e5 SP:f9 CYC:21746
fa6b  a9 75      LDA #$75    A:37 X:02 Y:d6 P:e5 SP:f9 CYC:21748
fa6d  60         RTS         A:75 X:02 Y:d6 P:65 SP:f9 CYC:21750
f0b4  23 45      RLA ($45,X) A:75 X:02 Y:d6 P:65 SP:fb CYC:21756
f0b6  ea         NOP         A:65 X:02 Y:d6 P:64 SP:fb CYC:21764
f0b7  ea         NOP         A:65 X:02 Y:d6 P:64 SP:fb CYC:21766
f0b8  ea         NOP         A:65 X:02 Y:d6 P:64 SP:fb CYC:21768
f0b9  ea         NOP         A:65 X:02 Y:d6 P:64 SP:fb CYC:21770
f0ba  20 6e fa   JSR $fa6e   A:65 X:02 Y:d6 P:64 SP:fb CYC:21772
fa6e  50 76      BVC $fae6   A:65 X:02 Y:d6 P:64 SP:f9 CYC:21778
fa70  f0 74      BEQ $fae6   A:65 X:02 Y:d6 P:64 SP:f9 CYC:21780
fa72  30 72      BMI $fae6   A:65 X:02 Y:d6 P:64 SP:f9 CYC:21782
fa74  b0 70      BCS $fae6   A:65 X:02 Y:d6 P:64 SP:f9 CYC:21784
fa76  c9 65      CMP #$65    A:65 X:02 Y:d6 P:64 SP:f9 CYC:21786
fa78  d0 6c      BNE $fae6   A:65 X:02 Y:d6 P:67 SP:f9 CYC:21788
fa7a  60         RTS         A:65 X:02 Y:d6 P:67 SP:f9 CYC:21790
f0bd  ad 47 06   LDA $0647   A:65 X:02 Y:d6 P:67 SP:fb CYC:21796
f0c0  c9 6f      CMP #$6f    A:6f X:02 Y:d6 P:65 SP:fb CYC:21800
f0c2  f0 02      BEQ $f0c6   A:6f X:02 Y:d6 P:67 SP:fb CYC:21802
f0c6  c8         INY         A:6f X:02 Y:d6 P:67 SP:fb CYC:21805
f0c7  a9 a5      LDA #$a5    A:6f X:02 Y:d7 P:e5 SP:fb CYC:21807
f0c9  85 47      STA $47     A:a5 X:02 Y:d7 P:e5 SP:fb CYC:21809
f0cb  20 53 fb   JSR $fb53   A:a5 X:02 Y:d7 P:e5 SP:fb CYC:21812
fb53  24 01      BIT $01     A:a5 X:02 Y:d7 P:e5 SP:f9 CYC:21818
fb55  18         CLC         A:a5 X:02 Y:d7 P:e5 SP:f9 CYC:21821
fb56  a9 b3      LDA #$b3    A:a5 X:02 Y:d7 P:e4 SP:f9 CYC:21823
fb58  60         RTS         A:b3 X:02 Y:d7 P:e4 SP:f9 CYC:21825
f0ce  27 47      RLA $47     A:b3 X:02 Y:d7 P:e4 SP:fb CYC:21831
f0d0  ea         NOP         A:02 X:02 Y:d7 P:65 SP:fb CYC:21836
f0d1  ea         NOP         A:02 X:02 Y:d7 P:65 SP:fb CYC:21838
f0d2  ea         NOP         A:02 X:02 Y:d7 P:65 SP:fb CYC:21840
f0d3  ea         NOP         A:02 X:02 Y:d7 P:65 SP:fb CYC:21842
f0d4  20 59 fb   JSR $fb59   A:02 X:02 Y:d7 P:65 SP:fb CYC:21844
fb59  50 1a      BVC $fb75   A:02 X:02 Y:d7 P:65 SP:f9 CYC:21850
fb5b  90 18      BCC $fb75   A:02 X:02 Y:d7 P:65 SP:f9 CYC:21852
fb5d  30 16      BMI $fb75   A:02 X:02 Y:d7 P:65 SP:f9 CYC:21854
fb5f  c9 02      CMP #$02    A:02 X:02 Y:d7 P:65 SP:f9 CYC:21856
fb61  d0 12      BNE $fb75   A:02 X:02 Y:d7 P:67 SP:f9 CYC:21858
fb63  60         RTS         A:02 X:02 Y:d7 P:67 SP:f9 CYC:21860
f0d7  a5 47      LDA $47     A:02 X:02 Y:d7 P:67 SP:fb CYC:21866
f0d9  c9 4a      CMP #$4a    A:4a X:02 Y:d7 P:65 SP:fb CYC:21869
f0db  f0 02      BEQ $f0df   A:4a X:02 Y:d7 P:67 SP:fb CYC:21871
f0df  c8         INY         A:4a X:02 Y:d7 P:67 SP:fb CYC:21874
f0e0  a9 29      LDA #$29    A:4a X:02 Y:d8 P:e5 SP:fb CYC:21876
f0e2  85 47      STA $47     A:29 X:02 Y:d8 P:65 SP:fb CYC:21878
f0e4  20 64 fb   JSR $fb64   A:29 X:02 Y:d8 P:65 SP:fb CYC:21881
fb64  b8         CLV         A:29 X:02 Y:d8 P:65 SP:f9 CYC:21887
fb65  18         CLC         A:29 X:02 Y:d8 P:25 SP:f9 CYC:21889
fb66  a9 42      LDA #$42    A:29 X:02 Y:d8 P:24 SP:f9 CYC:21891
fb68  60         RTS         A:42 X:02 Y:d8 P:24 SP:f9 CYC:21893
f0e7  27 47      RLA $47     A:42 X:02 Y:d8 P:24 SP:fb CYC:21899
f0e9  ea         NOP         A:42 X:02 Y:d8 P:24 SP:fb CYC:21904
f0ea  ea         NOP         A:42 X:02 Y:d8 P:24 SP:fb CYC:21906
f0eb  ea         NOP         A:42 X:02 Y:d8 P:24 SP:fb CYC:21908
f0ec  ea         NOP         A:42 X:02 Y:d8 P:24 SP:fb CYC:21910
f0ed  20 69 fb   JSR $fb69   A:42 X:02 Y:d8 P:24 SP:fb CYC:21912
fb69  70 0a      BVS $fb75   A:42 X:02 Y:d8 P:24 SP:f9 CYC:21918
fb6b  f0 08      BEQ $fb75   A:42 X:02 Y:d8 P:24 SP:f9 CYC:21920
fb6d  30 06      BMI $fb75   A:42 X:02 Y:d8 P:24 SP:f9 CYC:21922
fb6f  b0 04      BCS $fb75   A:42 X:02 Y:d8 P:24 SP:f9 CYC:21924
fb71  c9 42      CMP #$42    A:42 X:02 Y:d8 P:24 SP:f9 CYC:21926
fb73  f0 02      BEQ $fb77   A:42 X:02 Y:d8 P:27 SP:f9 CYC:21928
fb77  60         RTS         A:42 X:02 Y:d8 P:27 SP:f9 CYC:21931
f0f0  a5 47      LDA $47     A:42 X:02 Y:d8 P:27 SP:fb CYC:21937
f0f2  c9 52      CMP #$52    A:52 X:02 Y:d8 P:25 SP:fb CYC:21940
f0f4  f0 02      BEQ $f0f8   A:52 X:02 Y:d8 P:27 SP:fb CYC:21942
f0f8  c8         INY         A:52 X:02 Y:d8 P:27 SP:fb CYC:21945
f0f9  a9 37      LDA #$37    A:52 X:02 Y:d9 P:a5 SP:fb CYC:21947
f0fb  85 47      STA $47     A:37 X:02 Y:d9 P:25 SP:fb CYC:21949
f0fd  20 68 fa   JSR $fa68   A:37 X:02 Y:d9 P:25 SP:fb CYC:21952
fa68  24 01      BIT $01     A:37 X:02 Y:d9 P:25 SP:f9 CYC:21958
fa6a  38         SEC         A:37 X:02 Y:d9 P:e5 SP:f9 CYC:21961
fa6b  a9 75      LDA #$75    A:37 X:02 Y:d9 P:e5 SP:f9 CYC:21963
fa6d  60         RTS         A:75 X:02 Y:d9 P:65 SP:f9 CYC:21965
f100  27 47      RLA $47     A:75 X:02 Y:d9 P:65 SP:fb CYC:21971
f102  ea         NOP         A:65 X:02 Y:d9 P:64 SP:fb CYC:21976
f103  ea         NOP         A:65 X:02 Y:d9 P:64 SP:fb CYC:21978
f104  ea         NOP         A:65 X:02 Y:d9 P:64 SP:fb CYC:21980
f105  ea         NOP         A:65 X:02 Y:d9 P:64 SP:fb CYC:21982
f106  20 6e fa   JSR $fa6e   A:65 X:02 Y:d9 P:64 SP:fb CYC:21984
fa6e  50 76      BVC $fae6   A:65 X:02 Y:d9 P:64 SP:f9 CYC:21990
fa70  f0 74      BEQ $fae6   A:65 X:02 Y:d9 P:64 SP:f9 CYC:21992
fa72  30 72      BMI $fae6   A:65 X:02 Y:d9 P:64 SP:f9 CYC:21994
fa74  b0 70      BCS $fae6   A:65 X:02 Y:d9 P:64 SP:f9 CYC:21996
fa76  c9 65      CMP #$65    A:65 X:02 Y:d9 P:64 SP:f9 CYC:21998
fa78  d0 6c      BNE $fae6   A:65 X:02 Y:d9 P:67 SP:f9 CYC:22000
fa7a  60         RTS         A:65 X:02 Y:d9 P:67 SP:f9 CYC:22002
f109  a5 47      LDA $47     A:65 X:02 Y:d9 P:67 SP:fb CYC:22008
f10b  c9 6f      CMP #$6f    A:6f X:02 Y:d9 P:65 SP:fb CYC:22011
f10d  f0 02      BEQ $f111   A:6f X:02 Y:d9 P:67 SP:fb CYC:22013
f111  c8         INY         A:6f X:02 Y:d9 P:67 SP:fb CYC:22016
f112  a9 a5      LDA #$a5    A:6f X:02 Y:da P:e5 SP:fb CYC:22018
f114  8d 47 06   STA $0647   A:a5 X:02 Y:da P:e5 SP:fb CYC:22020
f117  20 53 fb   JSR $fb53   A:a5 X:02 Y:da P:e5 SP:fb CYC:22024
fb53  24 01      BIT $01     A:a5 X:02 Y:da P:e5 SP:f9 CYC:22030
fb55  18         CLC         A:a5 X:02 Y:da P:e5 SP:f9 CYC:22033
fb56  a9 b3      LDA #$b3    A:a5 X:02 Y:da P:e4 SP:f9 CYC:22035
fb58  60         RTS         A:b3 X:02 Y:da P:e4 SP:f9 CYC:22037
f11a  2f 47 06   RLA $0647   A:b3 X:02 Y:da P:e4 SP:fb CYC:22043
f11d  ea         NOP         A:02 X:02 Y:da P:65 SP:fb CYC:22049
f11e  ea         NOP         A:02 X:02 Y:da P:65 SP:fb CYC:22051
f11f  ea         NOP         A:02 X:02 Y:da P:65 SP:fb CYC:22053
f120  ea         NOP         A:02 X:02 Y:da P:65 SP:fb CYC:22055
f121  20 59 fb   JSR $fb59   A:02 X:02 Y:da P:65 SP:fb CYC:22057
fb59  50 1a      BVC $fb75   A:02 X:02 Y:da P:65 SP:f9 CYC:22063
fb5b  90 18      BCC $fb75   A:02 X:02 Y:da P:65 SP:f9 CYC:22065
fb5d  30 16      BMI $fb75   A:02 X:02 Y:da P:65 SP:f9 CYC:22067
fb5f  c9 02      CMP #$02    A:02 X:02 Y:da P:65 SP:f9 CYC:22069
fb61  d0 12      BNE $fb75   A:02 X:02 Y:da P:67 SP:f9 CYC:22071
fb63  60         RTS         A:02 X:02 Y:da P:67 SP:f9 CYC:22073
f124  ad 47 06   LDA $0647   A:02 X:02 Y:da P:67 SP:fb CYC:22079
f127  c9 4a      CMP #$4a    A:4a X:02 Y:da P:65 SP:fb CYC:22083
f129  f0 02      BEQ $f12d   A:4a X:02 Y:da P:67 SP:fb CYC:22085
f12d  c8         INY         A:4a X:02 Y:da P:67 SP:fb CYC:22088
f12e  a9 29      LDA #$29    A:4a X:02 Y:db P:e5 SP:fb CYC:22090
f130  8d 47 06   STA $0647   A:29 X:02 Y:db P:65 SP:fb CYC:22092
f133  20 64 fb   JSR $fb64   A:29 X:02 Y:db P:65 SP:fb CYC:22096
fb64  b8         CLV         A:29 X:02 Y:db P:65 SP:f9 CYC:22102
fb65  18         CLC         A:29 X:02 Y:db P:25 SP:f9 CYC:22104
fb66  a9 42      LDA #$42    A:29 X:02 Y:db P:24 SP:f9 CYC:22106
fb68  60         RTS         A:42 X:02 Y:db P:24 SP:f9 CYC:22108
f136  2f 47 06   RLA $0647   A:42 X:02 Y:db P:24 SP:fb CYC:22114
f139  ea         NOP         A:42 X:02 Y:db P:24 SP:fb CYC:22120
f13a  ea         NOP         A:42 X:02 Y:db P:24 SP:fb CYC:22122
f13b  ea         NOP         A:42 X:02 Y:db P:24 SP:fb CYC:22124
f13c  ea         NOP         A:42 X:02 Y:db P:24 SP:fb CYC:22126
f13d  20 69 fb   JSR $fb69   A:42 X:02 Y:db P:24 SP:fb CYC:22128
fb69  70 0a      BVS $fb75   A:42 X:02 Y:db P:24 SP:f9 CYC:22134
fb6b  f0 08      BEQ $fb75   A:42 X:02 Y:db P:24 SP:f9 CYC:22136
fb6d  30 06      BMI $fb75   A:42 X:02 Y:db P:24 SP:f9 CYC:22138
fb6f  b0 04      BCS $fb75   A:42 X:02 Y:db P:24 SP:f9 CYC:22140
fb71  c9 42      CMP #$42    A:42 X:02 Y:db P:24 SP:f9 CYC:22142
fb73  f0 02      BEQ $fb77   A:42 X:02 Y:db P:27 SP:f9 CYC:22144
fb77  60         RTS         A:42 X:02 Y:db P:27 SP:f9 CYC:22147
f140  ad 47 06   LDA $0647   A:42 X:02 Y:db P:27 SP:fb CYC:22153
f143  c9 52      CMP #$52    A:52 X:02 Y:db P:25 SP:fb CYC:22157
f145  f0 02      BEQ $f149   A:52 X:02 Y:db P:27 SP:fb CYC:22159
f149  c8         INY         A:52 X:02 Y:db P:27 SP:fb CYC:22162
f14a  a9 37      LDA #$37    A:52 X:02 Y:dc P:a5 SP:fb CYC:22164
f14c  8d 47 06   STA $0647   A:37 X:02 Y:dc P:25 SP:fb CYC:22166
f14f  20 68 fa   JSR $fa68   A:37 X:02 Y:dc P:25 SP:fb CYC:22170
fa68  24 01      BIT $01     A:37 X:02 Y:dc P:25 SP:f9 CYC:22176
fa6a  38         SEC         A:37 X:02 Y:dc P:e5 SP:f9 CYC:22179
fa6b  a9 75      LDA #$75    A:37 X:02 Y:dc P:e5 SP:f9 CYC:22181
fa6d  60         RTS         A:75 X:02 Y:dc P:65 SP:f9 CYC:22183
f152  2f 47 06   RLA $0647   A:75 X:02 Y:dc P:65 SP:fb CYC:22189
f155  ea         NOP         A:65 X:02 Y:dc P:64 SP:fb CYC:22195
f156  ea         NOP         A:65 X:02 Y:dc P:64 SP:fb CYC:22197
f157  ea         NOP         A:65 X:02 Y:dc P:64 SP:fb CYC:22199
f158  ea         NOP         A:65 X:02 Y:dc P:64 SP:fb CYC:22201
f159  20 6e fa   JSR $fa6e   A:65 X:02 Y:dc P:64 SP:fb CYC:22203
fa6e  50 76      BVC $fae6   A:65 X:02 Y:dc P:64 SP:f9 CYC:22209
fa70  f0 74      BEQ $fae6   A:65 X:02 Y:dc P:64 SP:f9 CYC:22211
fa72  30 72      BMI $fae6   A:65 X:02 Y:dc P:64 SP:f9 CYC:22213
fa74  b0 70      BCS $fae6   A:65 X:02 Y:dc P:64 SP:f9 CYC:22215
fa76  c9 65      CMP #$65    A:65 X:02 Y:dc P:64 SP:f9 CYC:22217
fa78  d0 6c      BNE $fae6   A:65 X:02 Y:dc P:67 SP:f9 CYC:22219
fa7a  60         RTS         A:65 X:02 Y:dc P:67 SP:f9 CYC:22221
f15c  ad 47 06   LDA $0647   A:65 X:02 Y:dc P:67 SP:fb CYC:22227
f15f  c9 6f      CMP #$6f    A:6f X:02 Y:dc P:65 SP:fb CYC:22231
f161  f0 02      BEQ $f165   A:6f X:02 Y:dc P:67 SP:fb CYC:22233
f165  a9 a5      LDA #$a5    A:6f X:02 Y:dc P:67 SP:fb CYC:22236
f167  8d 47 06   STA $0647   A:a5 X:02 Y:dc P:e5 SP:fb CYC:22238
f16a  a9 48      LDA #$48    A:a5 X:02 Y:dc P:e5 SP:fb CYC:22242
f16c  85 45      STA $45     A:48 X:02 Y:dc P:65 SP:fb CYC:22244
f16e  a9 05      LDA #$05    A:48 X:02 Y:dc P:65 SP:fb CYC:22247
f170  85 46      STA $46     A:05 X:02 Y:dc P:65 SP:fb CYC:22249
f172  a0 ff      LDY #$ff    A:05 X:02 Y:dc P:65 SP:fb CYC:22252
f174  20 53 fb   JSR $fb53   A:05 X:02 Y:ff P:e5 SP:fb CYC:22254
fb53  24 01      BIT $01     A:05 X:02 Y:ff P:e5 SP:f9 CYC:22260
fb55  18         CLC         A:05 X:02 Y:ff P:e5 SP:f9 CYC:22263
fb56  a9 b3      LDA #$b3    A:05 X:02 Y:ff P:e4 SP:f9 CYC:22265
fb58  60         RTS         A:b3 X:02 Y:ff P:e4 SP:f9 CYC:22267
f177  33 45      RLA ($45),Y A:b3 X:02 Y:ff P:e4 SP:fb CYC:22273
f179  ea         NOP         A:02 X:02 Y:ff P:65 SP:fb CYC:22281
f17a  ea         NOP         A:02 X:02 Y:ff P:65 SP:fb CYC:22283
f17b  08         PHP         A:02 X:02 Y:ff P:65 SP:fb CYC:22285
f17c  48         PHA         A:02 X:02 Y:ff P:65 SP:fa CYC:22288
f17d  a0 dd      LDY #$dd    A:02 X:02 Y:ff P:65 SP:f9 CYC:22291
f17f  68         PLA         A:02 X:02 Y:dd P:e5 SP:f9 CYC:22293
f180  28         PLP         A:02 X:02 Y:dd P:65 SP:fa CYC:22297
f181  20 59 fb   JSR $fb59   A:02 X:02 Y:dd P:65 SP:fb CYC:22301
fb59  50 1a      BVC $fb75   A:02 X:02 Y:dd P:65 SP:f9 CYC:22307
fb5b  90 18      BCC $fb75   A:02 X:02 Y:dd P:65 SP:f9 CYC:22309
fb5d  30 16      BMI $fb75   A:02 X:02 Y:dd P:65 SP:f9 CYC:22311
fb5f  c9 02      CMP #$02    A:02 X:02 Y:dd P:65 SP:f9 CYC:22313
fb61  d0 12      BNE $fb75   A:02 X:02 Y:dd P:67 SP:f9 CYC:22315
fb63  60         RTS         A:02 X:02 Y:dd P:67 SP:f9 CYC:22317
f184  ad 47 06   LDA $0647   A:02 X:02 Y:dd P:67 SP:fb CYC:22323
f187  c9 4a      CMP #$4a    A:4a X:02 Y:dd P:65 SP:fb CYC:22327
f189  f0 02      BEQ $f18d   A:4a X:02 Y:dd P:67 SP:fb CYC:22329
f18d  a0 ff      LDY #$ff    A:4a X:02 Y:dd P:67 SP:fb CYC:22332
f18f  a9 29      LDA #$29    A:4a X:02 Y:ff P:e5 SP:fb CYC:22334
f191  8d 47 06   STA $0647   A:29 X:02 Y:ff P:65 SP:fb CYC:22336
f194  20 64 fb   JSR $fb64   A:29 X:02 Y:ff P:65 SP:fb CYC:22340
fb64  b8         CLV         A:29 X:02 Y:ff P:65 SP:f9 CYC:22346
fb65  18         CLC         A:29 X:02 Y:ff P:25 SP:f9 CYC:22348
fb66  a9 42      LDA #$42    A:29 X:02 Y:ff P:24 SP:f9 CYC:22350
fb68  60         RTS         A:42 X:02 Y:ff P:24 SP:f9 CYC:22352
f197  33 45      RLA ($45),Y A:42 X:02 Y:ff P:24 SP:fb CYC:22358
f199  ea         NOP         A:42 X:02 Y:ff P:24 SP:fb CYC:22366
f19a  ea         NOP         A:42 X:02 Y:ff P:24 SP:fb CYC:22368
f19b  08         PHP         A:42 X:02 Y:ff P:24 SP:fb CYC:22370
f19c  48         PHA         A:42 X:02 Y:ff P:24 SP:fa CYC:22373
f19d  a0 de      LDY #$de    A:42 X:02 Y:ff P:24 SP:f9 CYC:22376
f19f  68         PLA         A:42 X:02 Y:de P:a4 SP:f9 CYC:22378
f1a0  28         PLP         A:42 X:02 Y:de P:24 SP:fa CYC:22382
f1a1  20 69 fb   JSR $fb69   A:42 X:02 Y:de P:24 SP:fb CYC:22386
fb69  70 0a      BVS $fb75   A:42 X:02 Y:de P:24 SP:f9 CYC:22392
fb6b  f0 08      BEQ $fb75   A:42 X:02 Y:de P:24 SP:f9 CYC:22394
fb6d  30 06      BMI $fb75   A:42 X:02 Y:de P:24 SP:f9 CYC:22396
fb6f  b0 04      BCS $fb75   A:42 X:02 Y:de P:24 SP:f9 CYC:22398
fb71  c9 42      CMP #$42    A:42 X:02 Y:de P:24 SP:f9 CYC:22400
fb73  f0 02      BEQ $fb77   A:42 X:02 Y:de P:27 SP:f9 CYC:22402
fb77  60         RTS         A:42 X:02 Y:de P:27 SP:f9 CYC:22405
f1a4  ad 47 06   LDA $0647   A:42 X:02 Y:de P:27 SP:fb CYC:22411
f1a7  c9 52      CMP #$52    A:52 X:02 Y:de P:25 SP:fb CYC:22415
f1a9  f0 02      BEQ $f1ad   A:52 X:02 Y:de P:27 SP:fb CYC:22417
f1ad  a0 ff      LDY #$ff    A:52 X:02 Y:de P:27 SP:fb CYC:22420
f1af  a9 37      LDA #$37    A:52 X:02 Y:ff P:a5 SP:fb CYC:22422
f1b1  8d 47 06   STA $0647   A:37 X:02 Y:ff P:25 SP:fb CYC:22424
f1b4  20 68 fa   JSR $fa68   A:37 X:02 Y:ff P:25 SP:fb CYC:22428
fa68  24 01      BIT $01     A:37 X:02 Y:ff P:25 SP:f9 CYC:22434
fa6a  38         SEC         A:37 X:02 Y:ff P:e5 SP:f9 CYC:22437
fa6b  a9 75      LDA #$75    A:37 X:02 Y:ff P:e5 SP:f9 CYC:22439
fa6d  60         RTS         A:75 X:02 Y:ff P:65 SP:f9 CYC:22441
f1b7  33 45      RLA ($45),Y A:75 X:02 Y:ff P:65 SP:fb CYC:22447
f1b9  ea         NOP         A:65 X:02 Y:ff P:64 SP:fb CYC:22455
f1ba  ea         NOP         A:65 X:02 Y:ff P:64 SP:fb CYC:22457
f1bb  08         PHP         A:65 X:02 Y:ff P:64 SP:fb CYC:22459
f1bc  48         PHA         A:65 X:02 Y:ff P:64 SP:fa CYC:22462
f1bd  a0 df      LDY #$df    A:65 X:02 Y:ff P:64 SP:f9 CYC:22465
f1bf  68         PLA         A:65 X:02 Y:df P:e4 SP:f9 CYC:22467
f1c0  28         PLP         A:65 X:02 Y:df P:64 SP:fa CYC:22471
f1c1  20 6e fa   JSR $fa6e   A:65 X:02 Y:df P:64 SP:fb CYC:22475
fa6e  50 76      BVC $fae6   A:65 X:02 Y:df P:64 SP:f9 CYC:22481
fa70  f0 74      BEQ $fae6   A:65 X:02 Y:df P:64 SP:f9 CYC:22483
fa72  30 72      BMI $fae6   A:65 X:02 Y:df P:64 SP:f9 CYC:22485
fa74  b0 70      BCS $fae6   A:65 X:02 Y:df P:64 SP:f9 CYC:22487
fa76  c9 65      CMP #$65    A:65 X:02 Y:df P:64 SP:f9 CYC:22489
fa78  d0 6c      BNE $fae6   A:65 X:02 Y:df P:67 SP:f9 CYC:22491
fa7a  60         RTS         A:65 X:02 Y:df P:67 SP:f9 CYC:22493
f1c4  ad 47 06   LDA $0647   A:65 X:02 Y:df P:67 SP:fb CYC:22499
f1c7  c9 6f      CMP #$6f    A:6f X:02 Y:df P:65 SP:fb CYC:22503
f1c9  f0 02      BEQ $f1cd   A:6f X:02 Y:df P:67 SP:fb CYC:22505
f1cd  a0 e0      LDY #$e0    A:6f X:02 Y:df P:67 SP:fb CYC:22508
f1cf  a2 ff      LDX #$ff    A:6f X:02 Y:e0 P:e5 SP:fb CYC:22510
f1d1  a9 a5      LDA #$a5    A:6f X:ff Y:e0 P:e5 SP:fb CYC:22512
f1d3  85 47      STA $47     A:a5 X:ff Y:e0 P:e5 SP:fb CYC:22514
f1d5  20 53 fb   JSR $fb53   A:a5 X:ff Y:e0 P:e5 SP:fb CYC:22517
fb53  24 01      BIT $01     A:a5 X:ff Y:e0 P:e5 SP:f9 CYC:22523
fb55  18         CLC         A:a5 X:ff Y:e0 P:e5 SP:f9 CYC:22526
fb56  a9 b3      LDA #$b3    A:a5 X:ff Y:e0 P:e4 SP:f9 CYC:22528
fb58  60         RTS         A:b3 X:ff Y:e0 P:e4 SP:f9 CYC:22530
f1d8  37 48      RLA $48,X   A:b3 X:ff Y:e0 P:e4 SP:fb CYC:22536
f1da  ea         NOP         A:02 X:ff Y:e0 P:65 SP:fb CYC:22542
f1db  ea         NOP         A:02 X:ff Y:e0 P:65 SP:fb CYC:22544
f1dc  ea         NOP         A:02 X:ff Y:e0 P:65 SP:fb CYC:22546
f1dd  ea         NOP         A:02 X:ff Y:e0 P:65 SP:fb CYC:22548
f1de  20 59 fb   JSR $fb59   A:02 X:ff Y:e0 P:65 SP:fb CYC:22550
fb59  50 1a      BVC $fb75   A:02 X:ff Y:e0 P:65 SP:f9 CYC:22556
fb5b  90 18      BCC $fb75   A:02 X:ff Y:e0 P:65 SP:f9 CYC:22558
fb5d  30 16      BMI $fb75   A:02 X:ff Y:e0 P:65 SP:f9 CYC:22560
fb5f  c9 02      CMP #$02    A:02 X:ff Y:e0 P:65 SP:f9 CYC:22562
fb61  d0 12      BNE $fb75   A:02 X:ff Y:e0 P:67 SP:f9 CYC:22564
fb63  60         RTS         A:02 X:ff Y:e0 P:67 SP:f9 CYC:22566
f1e1  a5 47      LDA $47     A:02 X:ff Y:e0 P:67 SP:fb CYC:22572
f1e3  c9 4a      CMP #$4a    A:4a X:ff Y:e0 P:65 SP:fb CYC:22575
f1e5  f0 02      BEQ $f1e9   A:4a X:ff Y:e0 P:67 SP:fb CYC:22577
f1e9  c8         INY         A:4a X:ff Y:e0 P:67 SP:fb CYC:22580
f1ea  a9 29      LDA #$29    A:4a X:ff Y:e1 P:e5 SP:fb CYC:22582
f1ec  85 47      STA $47     A:29 X:ff Y:e1 P:65 SP:fb CYC:22584
f1ee  20 64 fb   JSR $fb64   A:29 X:ff Y:e1 P:65 SP:fb CYC:22587
fb64  b8         CLV         A:29 X:ff Y:e1 P:65 SP:f9 CYC:22593
fb65  18         CLC         A:29 X:ff Y:e1 P:25 SP:f9 CYC:22595
fb66  a9 42      LDA #$42    A:29 X:ff Y:e1 P:24 SP:f9 CYC:22597
fb68  60         RTS         A:42 X:ff Y:e1 P:24 SP:f9 CYC:22599
f1f1  37 48      RLA $48,X   A:42 X:ff Y:e1 P:24 SP:fb CYC:22605
f1f3  ea         NOP         A:42 X:ff Y:e1 P:24 SP:fb CYC:22611
f1f4  ea         NOP         A:42 X:ff Y:e1 P:24 SP:fb CYC:22613
f1f5  ea         NOP         A:42 X:ff Y:e1 P:24 SP:fb CYC:22615
f1f6  ea         NOP         A:42 X:ff Y:e1 P:24 SP:fb CYC:22617
f1f7  20 69 fb   JSR $fb69   A:42 X:ff Y:e1 P:24 SP:fb CYC:22619
fb69  70 0a      BVS $fb75   A:42 X:ff Y:e1 P:24 SP:f9 CYC:22625
fb6b  f0 08      BEQ $fb75   A:42 X:ff Y:e1 P:24 SP:f9 CYC:22627
fb6d  30 06      BMI $fb75   A:42 X:ff Y:e1 P:24 SP:f9 CYC:22629
fb6f  b0 04      BCS $fb75   A:42 X:ff Y:e1 P:24 SP:f9 CYC:22631
fb71  c9 42      CMP #$42    A:42 X:ff Y:e1 P:24 SP:f9 CYC:22633
fb73  f0 02      BEQ $fb77   A:42 X:ff Y:e1 P:27 SP:f9 CYC:22635
fb77  60         RTS         A:42 X:ff Y:e1 P:27 SP:f9 CYC:22638
f1fa  a5 47      LDA $47     A:42 X:ff Y:e1 P:27 SP:fb CYC:22644
f1fc  c9 52      CMP #$52    A:52 X:ff Y:e1 P:25 SP:fb CYC:22647
f1fe  f0 02      BEQ $f202   A:52 X:ff Y:e1 P:27 SP:fb CYC:22649
f202  c8         INY         A:52 X:ff Y:e1 P:27 SP:fb CYC:22652
f203  a9 37      LDA #$37    A:52 X:ff Y:e2 P:a5 SP:fb CYC:22654
f205  85 47      STA $47     A:37 X:ff Y:e2 P:25 SP:fb CYC:22656
f207  20 68 fa   JSR $fa68   A:37 X:ff Y:e2 P:25 SP:fb CYC:22659
fa68  24 01      BIT $01     A:37 X:ff Y:e2 P:25 SP:f9 CYC:22665
fa6a  38         SEC         A:37 X:ff Y:e2 P:e5 SP:f9 CYC:22668
fa6b  a9 75      LDA #$75    A:37 X:ff Y:e2 P:e5 SP:f9 CYC:22670
fa6d  60         RTS         A:75 X:ff Y:e2 P:65 SP:f9 CYC:22672
f20a  37 48      RLA $48,X   A:75 X:ff Y:e2 P:65 SP:fb CYC:22678
f20c  ea         NOP         A:65 X:ff Y:e2 P:64 SP:fb CYC:22684
f20d  ea         NOP         A:65 X:ff Y:e2 P:64 SP:fb CYC:22686
f20e  ea         NOP         A:65 X:ff Y:e2 P:64 SP:fb CYC:22688
f20f  ea         NOP         A:65 X:ff Y:e2 P:64 SP:fb CYC:22690
f210  20 6e fa   JSR $fa6e   A:65 X:ff Y:e2 P:64 SP:fb CYC:22692
fa6e  50 76      BVC $fae6   A:65 X:ff Y:e2 P:64 SP:f9 CYC:22698
fa70  f0 74      BEQ $fae6   A:65 X:ff Y:e2 P:64 SP:f9 CYC:22700
fa72  30 72      BMI $fae6   A:65 X:ff Y:e2 P:64 SP:f9 CYC:22702
fa74  b0 70      BCS $fae6   A:65 X:ff Y:e2 P:64 SP:f9 CYC:22704
fa76  c9 65      CMP #$65    A:65 X:ff Y:e2 P:64 SP:f9 CYC:22706
fa78  d0 6c      BNE $fae6   A:65 X:ff Y:e2 P:67 SP:f9 CYC:22708
fa7a  60         RTS         A:65 X:ff Y:e2 P:67 SP:f9 CYC:22710
f213  a5 47      LDA $47     A:65 X:ff Y:e2 P:67 SP:fb CYC:22716
f215  c9 6f      CMP #$6f    A:6f X:ff Y:e2 P:65 SP:fb CYC:22719
f217  f0 02      BEQ $f21b   A:6f X:ff Y:e2 P:67 SP:fb CYC:22721
f21b  a9 a5      LDA #$a5    A:6f X:ff Y:e2 P:67 SP:fb CYC:22724
f21d  8d 47 06   STA $0647   A:a5 X:ff Y:e2 P:e5 SP:fb CYC:22726
f220  a0 ff      LDY #$ff    A:a5 X:ff Y:e2 P:e5 SP:fb CYC:22730
f222  20 53 fb   JSR $fb53   A:a5 X:ff Y:ff P:e5 SP:fb CYC:22732
fb53  24 01      BIT $01     A:a5 X:ff Y:ff P:e5 SP:f9 CYC:22738
fb55  18         CLC         A:a5 X:ff Y:ff P:e5 SP:f9 CYC:22741
fb56  a9 b3      LDA #$b3    A:a5 X:ff Y:ff P:e4 SP:f9 CYC:22743
fb58  60         RTS         A:b3 X:ff Y:ff P:e4 SP:f9 CYC:22745
f225  3b 48 05   RLA $0548,Y A:b3 X:ff Y:ff P:e4 SP:fb CYC:22751
f228  ea         NOP         A:02 X:ff Y:ff P:65 SP:fb CYC:22758
f229  ea         NOP         A:02 X:ff Y:ff P:65 SP:fb CYC:22760
f22a  08         PHP         A:02 X:ff Y:ff P:65 SP:fb CYC:22762
f22b  48         PHA         A:02 X:ff Y:ff P:65 SP:fa CYC:22765
f22c  a0 e3      LDY #$e3    A:02 X:ff Y:ff P:65 SP:f9 CYC:22768
f22e  68         PLA         A:02 X:ff Y:e3 P:e5 SP:f9 CYC:22770
f22f  28         PLP         A:02 X:ff Y:e3 P:65 SP:fa CYC:22774
f230  20 59 fb   JSR $fb59   A:02 X:ff Y:e3 P:65 SP:fb CYC:22778
fb59  50 1a      BVC $fb75   A:02 X:ff Y:e3 P:65 SP:f9 CYC:22784
fb5b  90 18      BCC $fb75   A:02 X:ff Y:e3 P:65 SP:f9 CYC:22786
fb5d  30 16      BMI $fb75   A:02 X:ff Y:e3 P:65 SP:f9 CYC:22788
fb5f  c9 02      CMP #$02    A:02 X:ff Y:e3 P:65 SP:f9 CYC:22790
fb61  d0 12      BNE $fb75   A:02 X:ff Y:e3 P:67 SP:f9 CYC:22792
fb63  60         RTS         A:02 X:ff Y:e3 P:67 SP:f9 CYC:22794
f233  ad 47 06   LDA $0647   A:02 X:ff Y:e3 P:67 SP:fb CYC:22800
f236  c9 4a      CMP #$4a    A:4a X:ff Y:e3 P:65 SP:fb CYC:22804
f238  f0 02      BEQ $f23c   A:4a X:ff Y:e3 P:67 SP:fb CYC:22806
f23c  a0 ff      LDY #$ff    A:4a X:ff Y:e3 P:67 SP:fb CYC:22809
f23e  a9 29      LDA #$29    A:4a X:ff Y:ff P:e5 SP:fb CYC:22811
f240  8d 47 06   STA $0647   A:29 X:ff Y:ff P:65 SP:fb CYC:22813
f243  20 64 fb   JSR $fb64   A:29 X:ff Y:ff P:65 SP:fb CYC:22817
fb64  b8         CLV         A:29 X:ff Y:ff P:65 SP:f9 CYC:22823
fb65  18         CLC         A:29 X:ff Y:ff P:25 SP:f9 CYC:22825
fb66  a9 42      LDA #$42    A:29 X:ff Y:ff P:24 SP:f9 CYC:22827
fb68  60         RTS         A:42 X:ff Y:ff P:24 SP:f9 CYC:22829
f246  3b 48 05   RLA $0548,Y A:42 X:ff Y:ff P:24 SP:fb CYC:22835
f249  ea         NOP         A:42 X:ff Y:ff P:24 SP:fb CYC:22842
f24a  ea         NOP         A:42 X:ff Y:ff P:24 SP:fb CYC:22844
f24b  08         PHP         A:42 X:ff Y:ff P:24 SP:fb CYC:22846
f24c  48         PHA         A:42 X:ff Y:ff P:24 SP:fa CYC:22849
f24d  a0 e4      LDY #$e4    A:42 X:ff Y:ff P:24 SP:f9 CYC:22852
f24f  68         PLA         A:42 X:ff Y:e4 P:a4 SP:f9 CYC:22854
f250  28         PLP         A:42 X:ff Y:e4 P:24 SP:fa CYC:22858
f251  20 69 fb   JSR $fb69   A:42 X:ff Y:e4 P:24 SP:fb CYC:22862
fb69  70 0a      BVS $fb75   A:42 X:ff Y:e4 P:24 SP:f9 CYC:22868
fb6b  f0 08      BEQ $fb75   A:42 X:ff Y:e4 P:24 SP:f9 CYC:22870
fb6d  30 06      BMI $fb75   A:42 X:ff Y:e4 P:24 SP:f9 CYC:22872
fb6f  b0 04      BCS $fb75   A:42 X:ff Y:e4 P:24 SP:f9 CYC:22874
fb71  c9 42      CMP #$42    A:42 X:ff Y:e4 P:24 SP:f9 CYC:22876
fb73  f0 02      BEQ $fb77   A:42 X:ff Y:e4 P:27 SP:f9 CYC:22878
fb77  60         RTS         A:42 X:ff Y:e4 P:27 SP:f9 CYC:22881
f254  ad 47 06   LDA $0647   A:42 X:ff Y:e4 P:27 SP:fb CYC:22887
f257  c9 52      CMP #$52    A:52 X:ff Y:e4 P:25 SP:fb CYC:22891
f259  f0 02      BEQ $f25d   A:52 X:ff Y:e4 P:27 SP:fb CYC:22893
f25d  a0 ff      LDY #$ff    A:52 X:ff Y:e4 P:27 SP:fb CYC:22896
f25f  a9 37      LDA #$37    A:52 X:ff Y:ff P:a5 SP:fb CYC:22898
f261  8d 47 06   STA $0647   A:37 X:ff Y:ff P:25 SP:fb CYC:22900
f264  20 68 fa   JSR $fa68   A:37 X:ff Y:ff P:25 SP:fb CYC:22904
fa68  24 01      BIT $01     A:37 X:ff Y:ff P:25 SP:f9 CYC:22910
fa6a  38         SEC         A:37 X:ff Y:ff P:e5 SP:f9 CYC:22913
fa6b  a9 75      LDA #$75    A:37 X:ff Y:ff P:e5 SP:f9 CYC:22915
fa6d  60         RTS         A:75 X:ff Y:ff P:65 SP:f9 CYC:22917
f267  3b 48 05   RLA $0548,Y A:75 X:ff Y:ff P:65 SP:fb CYC:22923
f26a  ea         NOP         A:65 X:ff Y:ff P:64 SP:fb CYC:22930
f26b  ea         NOP         A:65 X:ff Y:ff P:64 SP:fb CYC:22932
f26c  08         PHP         A:65 X:ff Y:ff P:64 SP:fb CYC:22934
f26d  48         PHA         A:65 X:ff Y:ff P:64 SP:fa CYC:22937
f26e  a0 e5      LDY #$e5    A:65 X:ff Y:ff P:64 SP:f9 CYC:22940
f270  68         PLA         A:65 X:ff Y:e5 P:e4 SP:f9 CYC:22942
f271  28         PLP         A:65 X:ff Y:e5 P:64 SP:fa CYC:22946
f272  20 6e fa   JSR $fa6e   A:65 X:ff Y:e5 P:64 SP:fb CYC:22950
fa6e  50 76      BVC $fae6   A:65 X:ff Y:e5 P:64 SP:f9 CYC:22956
fa70  f0 74      BEQ $fae6   A:65 X:ff Y:e5 P:64 SP:f9 CYC:22958
fa72  30 72      BMI $fae6   A:65 X:ff Y:e5 P:64 SP:f9 CYC:22960
fa74  b0 70      BCS $fae6   A:65 X:ff Y:e5 P:64 SP:f9 CYC:22962
fa76  c9 65      CMP #$65    A:65 X:ff Y:e5 P:64 SP:f9 CYC:22964
fa78  d0 6c      BNE $fae6   A:65 X:ff Y:e5 P:67 SP:f9 CYC:22966
fa7a  60         RTS         A:65 X:ff Y:e5 P:67 SP:f9 CYC:22968
f275  ad 47 06   LDA $0647   A:65 X:ff Y:e5 P:67 SP:fb CYC:22974
f278  c9 6f      CMP #$6f    A:6f X:ff Y:e5 P:65 SP:fb CYC:22978
f27a  f0 02      BEQ $f27e   A:6f X:ff Y:e5 P:67 SP:fb CYC:22980
f27e  a0 e6      LDY #$e6    A:6f X:ff Y:e5 P:67 SP:fb CYC:22983
f280  a2 ff      LDX #$ff    A:6f X:ff Y:e6 P:e5 SP:fb CYC:22985
f282  a9 a5      LDA #$a5    A:6f X:ff Y:e6 P:e5 SP:fb CYC:22987
f284  8d 47 06   STA $0647   A:a5 X:ff Y:e6 P:e5 SP:fb CYC:22989
f287  20 53 fb   JSR $fb53   A:a5 X:ff Y:e6 P:e5 SP:fb CYC:22993
fb53  24 01      BIT $01     A:a5 X:ff Y:e6 P:e5 SP:f9 CYC:22999
fb55  18         CLC         A:a5 X:ff Y:e6 P:e5 SP:f9 CYC:23002
fb56  a9 b3      LDA #$b3    A:a5 X:ff Y:e6 P:e4 SP:f9 CYC:23004
fb58  60         RTS         A:b3 X:ff Y:e6 P:e4 SP:f9 CYC:23006
f28a  3f 48 05   RLA $0548,X A:b3 X:ff Y:e6 P:e4 SP:fb CYC:23012
f28d  ea         NOP         A:02 X:ff Y:e6 P:65 SP:fb CYC:23019
f28e  ea         NOP         A:02 X:ff Y:e6 P:65 SP:fb CYC:23021
f28f  ea         NOP         A:02 X:ff Y:e6 P:65 SP:fb CYC:23023
f290  ea         NOP         A:02 X:ff Y:e6 P:65 SP:fb CYC:23025
f291  20 59 fb   JSR $fb59   A:02 X:ff Y:e6 P:65 SP:fb CYC:23027
fb59  50 1a      BVC $fb75   A:02 X:ff Y:e6 P:65 SP:f9 CYC:23033
fb5b  90 18      BCC $fb75   A:02 X:ff Y:e6 P:65 SP:f9 CYC:23035
fb5d  30 16      BMI $fb75   A:02 X:ff Y:e6 P:65 SP:f9 CYC:23037
fb5f  c9 02      CMP #$02    A:02 X:ff Y:e6 P:65 SP:f9 CYC:23039
fb61  d0 12      BNE $fb75   A:02 X:ff Y:e6 P:67 SP:f9 CYC:23041
fb63  60         RTS         A:02 X:ff Y:e6 P:67 SP:f9 CYC:23043
f294  ad 47 06   LDA $0647   A:02 X:ff Y:e6 P:67 SP:fb CYC:23049
f297  c9 4a      CMP #$4a    A:4a X:ff Y:e6 P:65 SP:fb CYC:23053
f299  f0 02      BEQ $f29d   A:4a X:ff Y:e6 P:67 SP:fb CYC:23055
f29d  c8         INY         A:4a X:ff Y:e6 P:67 SP:fb CYC:23058
f29e  a9 29      LDA #$29    A:4a X:ff Y:e7 P:e5 SP:fb CYC:23060
f2a0  8d 47 06   STA $0647   A:29 X:ff Y:e7 P:65 SP:fb CYC:23062
f2a3  20 64 fb   JSR $fb64   A:29 X:ff Y:e7 P:65 SP:fb CYC:23066
fb64  b8         CLV         A:29 X:ff Y:e7 P:65 SP:f9 CYC:23072
fb65  18         CLC         A:29 X:ff Y:e7 P:25 SP:f9 CYC:23074
fb66  a9 42      LDA #$42    A:29 X:ff Y:e7 P:24 SP:f9 CYC:23076
fb68  60         RTS         A:42 X:ff Y:e7 P:24 SP:f9 CYC:23078
f2a6  3f 48 05   RLA $0548,X A:42 X:ff Y:e7 P:24 SP:fb CYC:23084
f2a9  ea         NOP         A:42 X:ff Y:e7 P:24 SP:fb CYC:23091
f2aa  ea         NOP         A:42 X:ff Y:e7 P:24 SP:fb CYC:23093
f2ab  ea         NOP         A:42 X:ff Y:e7 P:24 SP:fb CYC:23095
f2ac  ea         NOP         A:42 X:ff Y:e7 P:24 SP:fb CYC:23097
f2ad  20 69 fb   JSR $fb69   A:42 X:ff Y:e7 P:24 SP:fb CYC:23099
fb69  70 0a      BVS $fb75   A:42 X:ff Y:e7 P:24 SP:f9 CYC:23105
fb6b  f0 08      BEQ $fb75   A:42 X:ff Y:e7 P:24 SP:f9 CYC:23107
fb6d  30 06      BMI $fb75   A:42 X:ff Y:e7 P:24 SP:f9 CYC:23109
fb6f  b0 04      BCS $fb75   A:42 X:ff Y:e7 P:24 SP:f9 CYC:23111
fb71  c9 42      CMP #$42    A:42 X:ff Y:e7 P:24 SP:f9 CYC:23113
fb73  f0 02      BEQ $fb77   A:42 X:ff Y:e7 P:27 SP:f9 CYC:23115
fb77  60         RTS         A:42 X:ff Y:e7 P:27 SP:f9 CYC:23118
f2b0  ad 47 06   LDA $0647   A:42 X:ff Y:e7 P:27 SP:fb CYC:23124
f2b3  c9 52      CMP #$52    A:52 X:ff Y:e7 P:25 SP:fb CYC:23128
f2b5  f0 02      BEQ $f2b9   A:52 X:ff Y:e7 P:27 SP:fb CYC:23130
f2b9  c8         INY         A:52 X:ff Y:e7 P:27 SP:fb CYC:23133
f2ba  a9 37      LDA #$37    A:52 X:ff Y:e8 P:a5 SP:fb CYC:23135
f2bc  8d 47 06   STA $0647   A:37 X:ff Y:e8 P:25 SP:fb CYC:23137
f2bf  20 68 fa   JSR $fa68   A:37 X:ff Y:e8 P:25 SP:fb CYC:23141
fa68  24 01      BIT $01     A:37 X:ff Y:e8 P:25 SP:f9 CYC:23147
fa6a  38         SEC         A:37 X:ff Y:e8 P:e5 SP:f9 CYC:23150
fa6b  a9 75      LDA #$75    A:37 X:ff Y:e8 P:e5 SP:f9 CYC:23152
fa6d  60         RTS         A:75 X:ff Y:e8 P:65 SP:f9 CYC:23154
f2c2  3f 48 05   RLA $0548,X A:75 X:ff Y:e8 P:65 SP:fb CYC:23160
f2c5  ea         NOP         A:65 X:ff Y:e8 P:64 SP:fb CYC:23167
f2c6  ea         NOP         A:65 X:ff Y:e8 P:64 SP:fb CYC:23169
f2c7  ea         NOP         A:65 X:ff Y:e8 P:64 SP:fb CYC:23171
f2c8  ea         NOP         A:65 X:ff Y:e8 P:64 SP:fb CYC:23173
f2c9  20 6e fa   JSR $fa6e   A:65 X:ff Y:e8 P:64 SP:fb CYC:23175
fa6e  50 76      BVC $fae6   A:65 X:ff Y:e8 P:64 SP:f9 CYC:23181
fa70  f0 74      BEQ $fae6   A:65 X:ff Y:e8 P:64 SP:f9 CYC:23183
fa72  30 72      BMI $fae6   A:65 X:ff Y:e8 P:64 SP:f9 CYC:23185
fa74  b0 70      BCS $fae6   A:65 X:ff Y:e8 P:64 SP:f9 CYC:23187
fa76  c9 65      CMP #$65    A:65 X:ff Y:e8 P:64 SP:f9 CYC:23189
fa78  d0 6c      BNE $fae6   A:65 X:ff Y:e8 P:67 SP:f9 CYC:23191
fa7a  60         RTS         A:65 X:ff Y:e8 P:67 SP:f9 CYC:23193
f2cc  ad 47 06   LDA $0647   A:65 X:ff Y:e8 P:67 SP:fb CYC:23199
f2cf  c9 6f      CMP #$6f    A:6f X:ff Y:e8 P:65 SP:fb CYC:23203
f2d1  f0 02      BEQ $f2d5   A:6f X:ff Y:e8 P:67 SP:fb CYC:23205
f2d5  60         RTS         A:6f X:ff Y:e8 P:67 SP:fb CYC:23208
c647  20 d6 f2   JSR $f2d6   A:6f X:ff Y:e8 P:67 SP:fd CYC:23214
f2d6  a9 ff      LDA #$ff    A:6f X:ff Y:e8 P:67 SP:fb CYC:23220
f2d8  85 01      STA $01     A:ff X:ff Y:e8 P:e5 SP:fb CYC:23222
f2da  a0 e9      LDY #$e9    A:ff X:ff Y:e8 P:e5 SP:fb CYC:23225
f2dc  a2 02      LDX #$02    A:ff X:ff Y:e9 P:e5 SP:fb CYC:23227
f2de  a9 47      LDA #$47    A:ff X:02 Y:e9 P:65 SP:fb CYC:23229
f2e0  85 47      STA $47     A:47 X:02 Y:e9 P:65 SP:fb CYC:23231
f2e2  a9 06      LDA #$06    A:47 X:02 Y:e9 P:65 SP:fb CYC:23234
f2e4  85 48      STA $48     A:06 X:02 Y:e9 P:65 SP:fb CYC:23236
f2e6  a9 a5      LDA #$a5    A:06 X:02 Y:e9 P:65 SP:fb CYC:23239
f2e8  8d 47 06   STA $0647   A:a5 X:02 Y:e9 P:e5 SP:fb CYC:23241
f2eb  20 1d fb   JSR $fb1d   A:a5 X:02 Y:e9 P:e5 SP:fb CYC:23245
fb1d  24 01      BIT $01     A:a5 X:02 Y:e9 P:e5 SP:f9 CYC:23251
fb1f  18         CLC         A:a5 X:02 Y:e9 P:e5 SP:f9 CYC:23254
fb20  a9 b3      LDA #$b3    A:a5 X:02 Y:e9 P:e4 SP:f9 CYC:23256
fb22  60         RTS         A:b3 X:02 Y:e9 P:e4 SP:f9 CYC:23258
f2ee  43 45      SRE ($45,X) A:b3 X:02 Y:e9 P:e4 SP:fb CYC:23264
f2f0  ea         NOP         A:e1 X:02 Y:e9 P:e5 SP:fb CYC:23272
f2f1  ea         NOP         A:e1 X:02 Y:e9 P:e5 SP:fb CYC:23274
f2f2  ea         NOP         A:e1 X:02 Y:e9 P:e5 SP:fb CYC:23276
f2f3  ea         NOP         A:e1 X:02 Y:e9 P:e5 SP:fb CYC:23278
f2f4  20 23 fb   JSR $fb23   A:e1 X:02 Y:e9 P:e5 SP:fb CYC:23280
fb23  50 50      BVC $fb75   A:e1 X:02 Y:e9 P:e5 SP:f9 CYC:23286
fb25  90 4e      BCC $fb75   A:e1 X:02 Y:e9 P:e5 SP:f9 CYC:23288
fb27  10 4c      BPL $fb75   A:e1 X:02 Y:e9 P:e5 SP:f9 CYC:23290
fb29  c9 e1      CMP #$e1    A:e1 X:02 Y:e9 P:e5 SP:f9 CYC:23292
fb2b  d0 48      BNE $fb75   A:e1 X:02 Y:e9 P:67 SP:f9 CYC:23294
fb2d  60         RTS         A:e1 X:02 Y:e9 P:67 SP:f9 CYC:23296
f2f7  ad 47 06   LDA $0647   A:e1 X:02 Y:e9 P:67 SP:fb CYC:23302
f2fa  c9 52      CMP #$52    A:52 X:02 Y:e9 P:65 SP:fb CYC:23306
f2fc  f0 02      BEQ $f300   A:52 X:02 Y:e9 P:67 SP:fb CYC:23308
f300  c8         INY         A:52 X:02 Y:e9 P:67 SP:fb CYC:23312
f301  a9 29      LDA #$29    A:52 X:02 Y:ea P:e5 SP:fb CYC:23314
f303  8d 47 06   STA $0647   A:29 X:02 Y:ea P:65 SP:fb CYC:23316
f306  20 2e fb   JSR $fb2e   A:29 X:02 Y:ea P:65 SP:fb CYC:23320
fb2e  b8         CLV         A:29 X:02 Y:ea P:65 SP:f9 CYC:23326
fb2f  18         CLC         A:29 X:02 Y:ea P:25 SP:f9 CYC:23328
fb30  a9 42      LDA #$42    A:29 X:02 Y:ea P:24 SP:f9 CYC:23330
fb32  60         RTS         A:42 X:02 Y:ea P:24 SP:f9 CYC:23332
f309  43 45      SRE ($45,X) A:42 X:02 Y:ea P:24 SP:fb CYC:23338
f30b  ea         NOP         A:56 X:02 Y:ea P:25 SP:fb CYC:23346
f30c  ea         NOP         A:56 X:02 Y:ea P:25 SP:fb CYC:23348
f30d  ea         NOP         A:56 X:02 Y:ea P:25 SP:fb CYC:23350
f30e  ea         NOP         A:56 X:02 Y:ea P:25 SP:fb CYC:23352
f30f  20 33 fb   JSR $fb33   A:56 X:02 Y:ea P:25 SP:fb CYC:23354
fb33  70 40      BVS $fb75   A:56 X:02 Y:ea P:25 SP:f9 CYC:23360
fb35  f0 3e      BEQ $fb75   A:56 X:02 Y:ea P:25 SP:f9 CYC:23362
fb37  30 3c      BMI $fb75   A:56 X:02 Y:ea P:25 SP:f9 CYC:23364
fb39  90 3a      BCC $fb75   A:56 X:02 Y:ea P:25 SP:f9 CYC:23366
fb3b  c9 56      CMP #$56    A:56 X:02 Y:ea P:25 SP:f9 CYC:23368
fb3d  d0 36      BNE $fb75   A:56 X:02 Y:ea P:27 SP:f9 CYC:23370
fb3f  60         RTS         A:56 X:02 Y:ea P:27 SP:f9 CYC:23372
f312  ad 47 06   LDA $0647   A:56 X:02 Y:ea P:27 SP:fb CYC:23378
f315  c9 14      CMP #$14    A:14 X:02 Y:ea P:25 SP:fb CYC:23382
f317  f0 02      BEQ $f31b   A:14 X:02 Y:ea P:27 SP:fb CYC:23384
f31b  c8         INY         A:14 X:02 Y:ea P:27 SP:fb CYC:23387
f31c  a9 37      LDA #$37    A:14 X:02 Y:eb P:a5 SP:fb CYC:23389
f31e  8d 47 06   STA $0647   A:37 X:02 Y:eb P:25 SP:fb CYC:23391
f321  20 40 fb   JSR $fb40   A:37 X:02 Y:eb P:25 SP:fb CYC:23395
fb40  24 01      BIT $01     A:37 X:02 Y:eb P:25 SP:f9 CYC:23401
fb42  38         SEC         A:37 X:02 Y:eb P:e5 SP:f9 CYC:23404
fb43  a9 75      LDA #$75    A:37 X:02 Y:eb P:e5 SP:f9 CYC:23406
fb45  60         RTS         A:75 X:02 Y:eb P:65 SP:f9 CYC:23408
f324  43 45      SRE ($45,X) A:75 X:02 Y:eb P:65 SP:fb CYC:23414
f326  ea         NOP         A:6e X:02 Y:eb P:65 SP:fb CYC:23422
f327  ea         NOP         A:6e X:02 Y:eb P:65 SP:fb CYC:23424
f328  ea         NOP         A:6e X:02 Y:eb P:65 SP:fb CYC:23426
f329  ea         NOP         A:6e X:02 Y:eb P:65 SP:fb CYC:23428
f32a  20 46 fb   JSR $fb46   A:6e X:02 Y:eb P:65 SP:fb CYC:23430
fb46  50 2d      BVC $fb75   A:6e X:02 Y:eb P:65 SP:f9 CYC:23436
fb48  f0 2b      BEQ $fb75   A:6e X:02 Y:eb P:65 SP:f9 CYC:23438
fb4a  30 29      BMI $fb75   A:6e X:02 Y:eb P:65 SP:f9 CYC:23440
fb4c  90 27      BCC $fb75   A:6e X:02 Y:eb P:65 SP:f9 CYC:23442
fb4e  c9 6e      CMP #$6e    A:6e X:02 Y:eb P:65 SP:f9 CYC:23444
fb50  d0 23      BNE $fb75   A:6e X:02 Y:eb P:67 SP:f9 CYC:23446
fb52  60         RTS         A:6e X:02 Y:eb P:67 SP:f9 CYC:23448
f32d  ad 47 06   LDA $0647   A:6e X:02 Y:eb P:67 SP:fb CYC:23454
f330  c9 1b      CMP #$1b    A:1b X:02 Y:eb P:65 SP:fb CYC:23458
f332  f0 02      BEQ $f336   A:1b X:02 Y:eb P:67 SP:fb CYC:23460
f336  c8         INY         A:1b X:02 Y:eb P:67 SP:fb CYC:23463
f337  a9 a5      LDA #$a5    A:1b X:02 Y:ec P:e5 SP:fb CYC:23465
f339  85 47      STA $47     A:a5 X:02 Y:ec P:e5 SP:fb CYC:23467
f33b  20 1d fb   JSR $fb1d   A:a5 X:02 Y:ec P:e5 SP:fb CYC:23470
fb1d  24 01      BIT $01     A:a5 X:02 Y:ec P:e5 SP:f9 CYC:23476
fb1f  18         CLC         A:a5 X:02 Y:ec P:e5 SP:f9 CYC:23479
fb20  a9 b3      LDA #$b3    A:a5 X:02 Y:ec P:e4 SP:f9 CYC:23481
fb22  60         RTS         A:b3 X:02 Y:ec P:e4 SP:f9 CYC:23483
f33e  47 47      SRE $47     A:b3 X:02 Y:ec P:e4 SP:fb CYC:23489
f340  ea         NOP         A:e1 X:02 Y:ec P:e5 SP:fb CYC:23494
f341  ea         NOP         A:e1 X:02 Y:ec P:e5 SP:fb CYC:23496
f342  ea         NOP         A:e1 X:02 Y:ec P:e5 SP:fb CYC:23498
f343  ea         NOP         A:e1 X:02 Y:ec P:e5 SP:fb CYC:23500
f344  20 23 fb   JSR $fb23   A:e1 X:02 Y:ec P:e5 SP:fb CYC:23502
fb23  50 50      BVC $fb75   A:e1 X:02 Y:ec P:e5 SP:f9 CYC:23508
fb25  90 4e      BCC $fb75   A:e1 X:02 Y:ec P:e5 SP:f9 CYC:23510
fb27  10 4c      BPL $fb75   A:e1 X:02 Y:ec P:e5 SP:f9 CYC:23512
fb29  c9 e1      CMP #$e1    A:e1 X:02 Y:ec P:e5 SP:f9 CYC:23514
fb2b  d0 48      BNE $fb75   A:e1 X:02 Y:ec P:67 SP:f9 CYC:23516
fb2d  60         RTS         A:e1 X:02 Y:ec P:67 SP:f9 CYC:23518
f347  a5 47      LDA $47     A:e1 X:02 Y:ec P:67 SP:fb CYC:23524
f349  c9 52      CMP #$52    A:52 X:02 Y:ec P:65 SP:fb CYC:23527
f34b  f0 02      BEQ $f34f   A:52 X:02 Y:ec P:67 SP:fb CYC:23529
f34f  c8         INY         A:52 X:02 Y:ec P:67 SP:fb CYC:23532
f350  a9 29      LDA #$29    A:52 X:02 Y:ed P:e5 SP:fb CYC:23534
f352  85 47      STA $47     A:29 X:02 Y:ed P:65 SP:fb CYC:23536
f354  20 2e fb   JSR $fb2e   A:29 X:02 Y:ed P:65 SP:fb CYC:23539
fb2e  b8         CLV         A:29 X:02 Y:ed P:65 SP:f9 CYC:23545
fb2f  18         CLC         A:29 X:02 Y:ed P:25 SP:f9 CYC:23547
fb30  a9 42      LDA #$42    A:29 X:02 Y:ed P:24 SP:f9 CYC:23549
fb32  60         RTS         A:42 X:02 Y:ed P:24 SP:f9 CYC:23551
f357  47 47      SRE $47     A:42 X:02 Y:ed P:24 SP:fb CYC:23557
f359  ea         NOP         A:56 X:02 Y:ed P:25 SP:fb CYC:23562
f35a  ea         NOP         A:56 X:02 Y:ed P:25 SP:fb CYC:23564
f35b  ea         NOP         A:56 X:02 Y:ed P:25 SP:fb CYC:23566
f35c  ea         NOP         A:56 X:02 Y:ed P:25 SP:fb CYC:23568
f35d  20 33 fb   JSR $fb33   A:56 X:02 Y:ed P:25 SP:fb CYC:23570
fb33  70 40      BVS $fb75   A:56 X:02 Y:ed P:25 SP:f9 CYC:23576
fb35  f0 3e      BEQ $fb75   A:56 X:02 Y:ed P:25 SP:f9 CYC:23578
fb37  30 3c      BMI $fb75   A:56 X:02 Y:ed P:25 SP:f9 CYC:23580
fb39  90 3a      BCC $fb75   A:56 X:02 Y:ed P:25 SP:f9 CYC:23582
fb3b  c9 56      CMP #$56    A:56 X:02 Y:ed P:25 SP:f9 CYC:23584
fb3d  d0 36      BNE $fb75   A:56 X:02 Y:ed P:27 SP:f9 CYC:23586
fb3f  60         RTS         A:56 X:02 Y:ed P:27 SP:f9 CYC:23588
f360  a5 47      LDA $47     A:56 X:02 Y:ed P:27 SP:fb CYC:23594
f362  c9 14      CMP #$14    A:14 X:02 Y:ed P:25 SP:fb CYC:23597
f364  f0 02      BEQ $f368   A:14 X:02 Y:ed P:27 SP:fb CYC:23599
f368  c8         INY         A:14 X:02 Y:ed P:27 SP:fb CYC:23602
f369  a9 37      LDA #$37    A:14 X:02 Y:ee P:a5 SP:fb CYC:23604
f36b  85 47      STA $47     A:37 X:02 Y:ee P:25 SP:fb CYC:23606
f36d  20 40 fb   JSR $fb40   A:37 X:02 Y:ee P:25 SP:fb CYC:23609
fb40  24 01      BIT $01     A:37 X:02 Y:ee P:25 SP:f9 CYC:23615
fb42  38         SEC         A:37 X:02 Y:ee P:e5 SP:f9 CYC:23618
fb43  a9 75      LDA #$75    A:37 X:02 Y:ee P:e5 SP:f9 CYC:23620
fb45  60         RTS         A:75 X:02 Y:ee P:65 SP:f9 CYC:23622
f370  47 47      SRE $47     A:75 X:02 Y:ee P:65 SP:fb CYC:23628
f372  ea         NOP         A:6e X:02 Y:ee P:65 SP:fb CYC:23633
f373  ea         NOP         A:6e X:02 Y:ee P:65 SP:fb CYC:23635
f374  ea         NOP         A:6e X:02 Y:ee P:65 SP:fb CYC:23637
f375  ea         NOP         A:6e X:02 Y:ee P:65 SP:fb CYC:23639
f376  20 46 fb   JSR $fb46   A:6e X:02 Y:ee P:65 SP:fb CYC:23641
fb46  50 2d      BVC $fb75   A:6e X:02 Y:ee P:65 SP:f9 CYC:23647
fb48  f0 2b      BEQ $fb75   A:6e X:02 Y:ee P:65 SP:f9 CYC:23649
fb4a  30 29      BMI $fb75   A:6e X:02 Y:ee P:65 SP:f9 CYC:23651
fb4c  90 27      BCC $fb75   A:6e X:02 Y:ee P:65 SP:f9 CYC:23653
fb4e  c9 6e      CMP #$6e    A:6e X:02 Y:ee P:65 SP:f9 CYC:23655
fb50  d0 23      BNE $fb75   A:6e X:02 Y:ee P:67 SP:f9 CYC:23657
fb52  60         RTS         A:6e X:02 Y:ee P:67 SP:f9 CYC:23659
f379  a5 47      LDA $47     A:6e X:02 Y:ee P:67 SP:fb CYC:23665
f37b  c9 1b      CMP #$1b    A:1b X:02 Y:ee P:65 SP:fb CYC:23668
f37d  f0 02      BEQ $f381   A:1b X:02 Y:ee P:67 SP:fb CYC:23670
f381  c8         INY         A:1b X:02 Y:ee P:67 SP:fb CYC:23673
f382  a9 a5      LDA #$a5    A:1b X:02 Y:ef P:e5 SP:fb CYC:23675
f384  8d 47 06   STA $0647   A:a5 X:02 Y:ef P:e5 SP:fb CYC:23677
f387  20 1d fb   JSR $fb1d   A:a5 X:02 Y:ef P:e5 SP:fb CYC:23681
fb1d  24 01      BIT $01     A:a5 X:02 Y:ef P:e5 SP:f9 CYC:23687
fb1f  18         CLC         A:a5 X:02 Y:ef P:e5 SP:f9 CYC:23690
fb20  a9 b3      LDA #$b3    A:a5 X:02 Y:ef P:e4 SP:f9 CYC:23692
fb22  60         RTS         A:b3 X:02 Y:ef P:e4 SP:f9 CYC:23694
f38a  4f 47 06   SRE $0647   A:b3 X:02 Y:ef P:e4 SP:fb CYC:23700
f38d  ea         NOP         A:e1 X:02 Y:ef P:e5 SP:fb CYC:23706
f38e  ea         NOP         A:e1 X:02 Y:ef P:e5 SP:fb CYC:23708
f38f  ea         NOP         A:e1 X:02 Y:ef P:e5 SP:fb CYC:23710
f390  ea         NOP         A:e1 X:02 Y:ef P:e5 SP:fb CYC:23712
f391  20 23 fb   JSR $fb23   A:e1 X:02 Y:ef P:e5 SP:fb CYC:23714
fb23  50 50      BVC $fb75   A:e1 X:02 Y:ef P:e5 SP:f9 CYC:23720
fb25  90 4e      BCC $fb75   A:e1 X:02 Y:ef P:e5 SP:f9 CYC:23722
fb27  10 4c      BPL $fb75   A:e1 X:02 Y:ef P:e5 SP:f9 CYC:23724
fb29  c9 e1      CMP #$e1    A:e1 X:02 Y:ef P:e5 SP:f9 CYC:23726
fb2b  d0 48      BNE $fb75   A:e1 X:02 Y:ef P:67 SP:f9 CYC:23728
fb2d  60         RTS         A:e1 X:02 Y:ef P:67 SP:f9 CYC:23730
f394  ad 47 06   LDA $0647   A:e1 X:02 Y:ef P:67 SP:fb CYC:23736
f397  c9 52      CMP #$52    A:52 X:02 Y:ef P:65 SP:fb CYC:23740
f399  f0 02      BEQ $f39d   A:52 X:02 Y:ef P:67 SP:fb CYC:23742
f39d  c8         INY         A:52 X:02 Y:ef P:67 SP:fb CYC:23745
f39e  a9 29      LDA #$29    A:52 X:02 Y:f0 P:e5 SP:fb CYC:23747
f3a0  8d 47 06   STA $0647   A:29 X:02 Y:f0 P:65 SP:fb CYC:23749
f3a3  20 2e fb   JSR $fb2e   A:29 X:02 Y:f0 P:65 SP:fb CYC:23753
fb2e  b8         CLV         A:29 X:02 Y:f0 P:65 SP:f9 CYC:23759
fb2f  18         CLC         A:29 X:02 Y:f0 P:25 SP:f9 CYC:23761
fb30  a9 42      LDA #$42    A:29 X:02 Y:f0 P:24 SP:f9 CYC:23763
fb32  60         RTS         A:42 X:02 Y:f0 P:24 SP:f9 CYC:23765
f3a6  4f 47 06   SRE $0647   A:42 X:02 Y:f0 P:24 SP:fb CYC:23771
f3a9  ea         NOP         A:56 X:02 Y:f0 P:25 SP:fb CYC:23777
f3aa  ea         NOP         A:56 X:02 Y:f0 P:25 SP:fb CYC:23779
f3ab  ea         NOP         A:56 X:02 Y:f0 P:25 SP:fb CYC:23781
f3ac  ea         NOP         A:56 X:02 Y:f0 P:25 SP:fb CYC:23783
f3ad  20 33 fb   JSR $fb33   A:56 X:02 Y:f0 P:25 SP:fb CYC:23785
fb33  70 40      BVS $fb75   A:56 X:02 Y:f0 P:25 SP:f9 CYC:23791
fb35  f0 3e      BEQ $fb75   A:56 X:02 Y:f0 P:25 SP:f9 CYC:23793
fb37  30 3c      BMI $fb75   A:56 X:02 Y:f0 P:25 SP:f9 CYC:23795
fb39  90 3a      BCC $fb75   A:56 X:02 Y:f0 P:25 SP:f9 CYC:23797
fb3b  c9 56      CMP #$56    A:56 X:02 Y:f0 P:25 SP:f9 CYC:23799
fb3d  d0 36      BNE $fb75   A:56 X:02 Y:f0 P:27 SP:f9 CYC:23801
fb3f  60         RTS         A:56 X:02 Y:f0 P:27 SP:f9 CYC:23803
f3b0  ad 47 06   LDA $0647   A:56 X:02 Y:f0 P:27 SP:fb CYC:23809
f3b3  c9 14      CMP #$14    A:14 X:02 Y:f0 P:25 SP:fb CYC:23813
f3b5  f0 02      BEQ $f3b9   A:14 X:02 Y:f0 P:27 SP:fb CYC:23815
f3b9  c8         INY         A:14 X:02 Y:f0 P:27 SP:fb CYC:23818
f3ba  a9 37      LDA #$37    A:14 X:02 Y:f1 P:a5 SP:fb CYC:23820
f3bc  8d 47 06   STA $0647   A:37 X:02 Y:f1 P:25 SP:fb CYC:23822
f3bf  20 40 fb   JSR $fb40   A:37 X:02 Y:f1 P:25 SP:fb CYC:23826
fb40  24 01      BIT $01     A:37 X:02 Y:f1 P:25 SP:f9 CYC:23832
fb42  38         SEC         A:37 X:02 Y:f1 P:e5 SP:f9 CYC:23835
fb43  a9 75      LDA #$75    A:37 X:02 Y:f1 P:e5 SP:f9 CYC:23837
fb45  60         RTS         A:75 X:02 Y:f1 P:65 SP:f9 CYC:23839
f3c2  4f 47 06   SRE $0647   A:75 X:02 Y:f1 P:65 SP:fb CYC:23845
f3c5  ea         NOP         A:6e X:02 Y:f1 P:65 SP:fb CYC:23851
f3c6  ea         NOP         A:6e X:02 Y:f1 P:65 SP:fb CYC:23853
f3c7  ea         NOP         A:6e X:02 Y:f1 P:65 SP:fb CYC:23855
f3c8  ea         NOP         A:6e X:02 Y:f1 P:65 SP:fb CYC:23857
f3c9  20 46 fb   JSR $fb46   A:6e X:02 Y:f1 P:65 SP:fb CYC:23859
fb46  50 2d      BVC $fb75   A:6e X:02 Y:f1 P:65 SP:f9 CYC:23865
fb48  f0 2b      BEQ $fb75   A:6e X:02 Y:f1 P:65 SP:f9 CYC:23867
fb4a  30 29      BMI $fb75   A:6e X:02 Y:f1 P:65 SP:f9 CYC:23869
fb4c  90 27      BCC $fb75   A:6e X:02 Y:f1 P:65 SP:f9 CYC:23871
fb4e  c9 6e      CMP #$6e    A:6e X:02 Y:f1 P:65 SP:f9 CYC:23873
fb50  d0 23      BNE $fb75   A:6e X:02 Y:f1 P:67 SP:f9 CYC:23875
fb52  60         RTS         A:6e X:02 Y:f1 P:67 SP:f9 CYC:23877
f3cc  ad 47 06   LDA $0647   A:6e X:02 Y:f1 P:67 SP:fb CYC:23883
f3cf  c9 1b      CMP #$1b    A:1b X:02 Y:f1 P:65 SP:fb CYC:23887
f3d1  f0 02      BEQ $f3d5   A:1b X:02 Y:f1 P:67 SP:fb CYC:23889
f3d5  a9 a5      LDA #$a5    A:1b X:02 Y:f1 P:67 SP:fb CYC:23892
f3d7  8d 47 06   STA $0647   A:a5 X:02 Y:f1 P:e5 SP:fb CYC:23894
f3da  a9 48      LDA #$48    A:a5 X:02 Y:f1 P:e5 SP:fb CYC:23898
f3dc  85 45      STA $45     A:48 X:02 Y:f1 P:65 SP:fb CYC:23900
f3de  a9 05      LDA #$05    A:48 X:02 Y:f1 P:65 SP:fb CYC:23903
f3e0  85 46      STA $46     A:05 X:02 Y:f1 P:65 SP:fb CYC:23905
f3e2  a0 ff      LDY #$ff    A:05 X:02 Y:f1 P:65 SP:fb CYC:23908
f3e4  20 1d fb   JSR $fb1d   A:05 X:02 Y:ff P:e5 SP:fb CYC:23910
fb1d  24 01      BIT $01     A:05 X:02 Y:ff P:e5 SP:f9 CYC:23916
fb1f  18         CLC         A:05 X:02 Y:ff P:e5 SP:f9 CYC:23919
fb20  a9 b3      LDA #$b3    A:05 X:02 Y:ff P:e4 SP:f9 CYC:23921
fb22  60         RTS         A:b3 X:02 Y:ff P:e4 SP:f9 CYC:23923
f3e7  53 45      SRE ($45),Y A:b3 X:02 Y:ff P:e4 SP:fb CYC:23929
f3e9  ea         NOP         A:e1 X:02 Y:ff P:e5 SP:fb CYC:23937
f3ea  ea         NOP         A:e1 X:02 Y:ff P:e5 SP:fb CYC:23939
f3eb  08         PHP         A:e1 X:02 Y:ff P:e5 SP:fb CYC:23941
f3ec  48         PHA         A:e1 X:02 Y:ff P:e5 SP:fa CYC:23944
f3ed  a0 f2      LDY #$f2    A:e1 X:02 Y:ff P:e5 SP:f9 CYC:23947
f3ef  68         PLA         A:e1 X:02 Y:f2 P:e5 SP:f9 CYC:23949
f3f0  28         PLP         A:e1 X:02 Y:f2 P:e5 SP:fa CYC:23953
f3f1  20 23 fb   JSR $fb23   A:e1 X:02 Y:f2 P:e5 SP:fb CYC:23957
fb23  50 50      BVC $fb75   A:e1 X:02 Y:f2 P:e5 SP:f9 CYC:23963
fb25  90 4e      BCC $fb75   A:e1 X:02 Y:f2 P:e5 SP:f9 CYC:23965
fb27  10 4c      BPL $fb75   A:e1 X:02 Y:f2 P:e5 SP:f9 CYC:23967
fb29  c9 e1      CMP #$e1    A:e1 X:02 Y:f2 P:e5 SP:f9 CYC:23969
fb2b  d0 48      BNE $fb75   A:e1 X:02 Y:f2 P:67 SP:f9 CYC:23971
fb2d  60         RTS         A:e1 X:02 Y:f2 P:67 SP:f9 CYC:23973
f3f4  ad 47 06   LDA $0647   A:e1 X:02 Y:f2 P:67 SP:fb CYC:23979
f3f7  c9 52      CMP #$52    A:52 X:02 Y:f2 P:65 SP:fb CYC:23983
f3f9  f0 02      BEQ $f3fd   A:52 X:02 Y:f2 P:67 SP:fb CYC:23985
f3fd  a0 ff      LDY #$ff    A:52 X:02 Y:f2 P:67 SP:fb CYC:23988
f3ff  a9 29      LDA #$29    A:52 X:02 Y:ff P:e5 SP:fb CYC:23990
f401  8d 47 06   STA $0647   A:29 X:02 Y:ff P:65 SP:fb CYC:23992
f404  20 2e fb   JSR $fb2e   A:29 X:02 Y:ff P:65 SP:fb CYC:23996
fb2e  b8         CLV         A:29 X:02 Y:ff P:65 SP:f9 CYC:24002
fb2f  18         CLC         A:29 X:02 Y:ff P:25 SP:f9 CYC:24004
fb30  a9 42      LDA #$42    A:29 X:02 Y:ff P:24 SP:f9 CYC:24006
fb32  60         RTS         A:42 X:02 Y:ff P:24 SP:f9 CYC:24008
f407  53 45      SRE ($45),Y A:42 X:02 Y:ff P:24 SP:fb CYC:24014
f409  ea         NOP         A:56 X:02 Y:ff P:25 SP:fb CYC:24022
f40a  ea         NOP         A:56 X:02 Y:ff P:25 SP:fb CYC:24024
f40b  08         PHP         A:56 X:02 Y:ff P:25 SP:fb CYC:24026
f40c  48         PHA         A:56 X:02 Y:ff P:25 SP:fa CYC:24029
f40d  a0 f3      LDY #$f3    A:56 X:02 Y:ff P:25 SP:f9 CYC:24032
f40f  68         PLA         A:56 X:02 Y:f3 P:a5 SP:f9 CYC:24034
f410  28         PLP         A:56 X:02 Y:f3 P:25 SP:fa CYC:24038
f411  20 33 fb   JSR $fb33   A:56 X:02 Y:f3 P:25 SP:fb CYC:24042
fb33  70 40      BVS $fb75   A:56 X:02 Y:f3 P:25 SP:f9 CYC:24048
fb35  f0 3e      BEQ $fb75   A:56 X:02 Y:f3 P:25 SP:f9 CYC:24050
fb37  30 3c      BMI $fb75   A:56 X:02 Y:f3 P:25 SP:f9 CYC:24052
fb39  90 3a      BCC $fb75   A:56 X:02 Y:f3 P:25 SP:f9 CYC:24054
fb3b  c9 56      CMP #$56    A:56 X:02 Y:f3 P:25 SP:f9 CYC:24056
fb3d  d0 36      BNE $fb75   A:56 X:02 Y:f3 P:27 SP:f9 CYC:24058
fb3f  60         RTS         A:56 X:02 Y:f3 P:27 SP:f9 CYC:24060
f414  ad 47 06   LDA $0647   A:56 X:02 Y:f3 P:27 SP:fb CYC:24066
f417  c9 14      CMP #$14    A:14 X:02 Y:f3 P:25 SP:fb CYC:24070
f419  f0 02      BEQ $f41d   A:14 X:02 Y:f3 P:27 SP:fb CYC:24072
f41d  a0 ff      LDY #$ff    A:14 X:02 Y:f3 P:27 SP:fb CYC:24075
f41f  a9 37      LDA #$37    A:14 X:02 Y:ff P:a5 SP:fb CYC:24077
f421  8d 47 06   STA $0647   A:37 X:02 Y:ff P:25 SP:fb CYC:24079
f424  20 40 fb   JSR $fb40   A:37 X:02 Y:ff P:25 SP:fb CYC:24083
fb40  24 01      BIT $01     A:37 X:02 Y:ff P:25 SP:f9 CYC:24089
fb42  38         SEC         A:37 X:02 Y:ff P:e5 SP:f9 CYC:24092
fb43  a9 75      LDA #$75    A:37 X:02 Y:ff P:e5 SP:f9 CYC:24094
fb45  60         RTS         A:75 X:02 Y:ff P:65 SP:f9 CYC:24096
f427  53 45      SRE ($45),Y A:75 X:02 Y:ff P:65 SP:fb CYC:24102
f429  ea         NOP         A:6e X:02 Y:ff P:65 SP:fb CYC:24110
f42a  ea         NOP         A:6e X:02 Y:ff P:65 SP:fb CYC:24112
f42b  08         PHP         A:6e X:02 Y:ff P:65 SP:fb CYC:24114
f42c  48         PHA         A:6e X:02 Y:ff P:65 SP:fa CYC:24117
f42d  a0 f4      LDY #$f4    A:6e X:02 Y:ff P:65 SP:f9 CYC:24120
f42f  68         PLA         A:6e X:02 Y:f4 P:e5 SP:f9 CYC:24122
f430  28         PLP         A:6e X:02 Y:f4 P:65 SP:fa CYC:24126
f431  20 46 fb   JSR $fb46   A:6e X:02 Y:f4 P:65 SP:fb CYC:24130
fb46  50 2d      BVC $fb75   A:6e X:02 Y:f4 P:65 SP:f9 CYC:24136
fb48  f0 2b      BEQ $fb75   A:6e X:02 Y:f4 P:65 SP:f9 CYC:24138
fb4a  30 29      BMI $fb75   A:6e X:02 Y:f4 P:65 SP:f9 CYC:24140
fb4c  90 27      BCC $fb75   A:6e X:02 Y:f4 P:65 SP:f9 CYC:24142
fb4e  c9 6e      CMP #$6e    A:6e X:02 Y:f4 P:65 SP:f9 CYC:24144
fb50  d0 23      BNE $fb75   A:6e X:02 Y:f4 P:67 SP:f9 CYC:24146
fb52  60         RTS         A:6e X:02 Y:f4 P:67 SP:f9 CYC:24148
f434  ad 47 06   LDA $0647   A:6e X:02 Y:f4 P:67 SP:fb CYC:24154
f437  c9 1b      CMP #$1b    A:1b X:02 Y:f4 P:65 SP:fb CYC:24158
f439  f0 02      BEQ $f43d   A:1b X:02 Y:f4 P:67 SP:fb CYC:24160
f43d  a0 f5      LDY #$f5    A:1b X:02 Y:f4 P:67 SP:fb CYC:24163
f43f  a2 ff      LDX #$ff    A:1b X:02 Y:f5 P:e5 SP:fb CYC:24165
f441  a9 a5      LDA #$a5    A:1b X:ff Y:f5 P:e5 SP:fb CYC:24167
f443  85 47      STA $47     A:a5 X:ff Y:f5 P:e5 SP:fb CYC:24169
f445  20 1d fb   JSR $fb1d   A:a5 X:ff Y:f5 P:e5 SP:fb CYC:24172
fb1d  24 01      BIT $01     A:a5 X:ff Y:f5 P:e5 SP:f9 CYC:24178
fb1f  18         CLC         A:a5 X:ff Y:f5 P:e5 SP:f9 CYC:24181
fb20  a9 b3      LDA #$b3    A:a5 X:ff Y:f5 P:e4 SP:f9 CYC:24183
fb22  60         RTS         A:b3 X:ff Y:f5 P:e4 SP:f9 CYC:24185
f448  57 48      SRE $48,X   A:b3 X:ff Y:f5 P:e4 SP:fb CYC:24191
f44a  ea         NOP         A:e1 X:ff Y:f5 P:e5 SP:fb CYC:24197
f44b  ea         NOP         A:e1 X:ff Y:f5 P:e5 SP:fb CYC:24199
f44c  ea         NOP         A:e1 X:ff Y:f5 P:e5 SP:fb CYC:24201
f44d  ea         NOP         A:e1 X:ff Y:f5 P:e5 SP:fb CYC:24203
f44e  20 23 fb   JSR $fb23   A:e1 X:ff Y:f5 P:e5 SP:fb CYC:24205
fb23  50 50      BVC $fb75   A:e1 X:ff Y:f5 P:e5 SP:f9 CYC:24211
fb25  90 4e      BCC $fb75   A:e1 X:ff Y:f5 P:e5 SP:f9 CYC:24213
fb27  10 4c      BPL $fb75   A:e1 X:ff Y:f5 P:e5 SP:f9 CYC:24215
fb29  c9 e1      CMP #$e1    A:e1 X:ff Y:f5 P:e5 SP:f9 CYC:24217
fb2b  d0 48      BNE $fb75   A:e1 X:ff Y:f5 P:67 SP:f9 CYC:24219
fb2d  60         RTS         A:e1 X:ff Y:f5 P:67 SP:f9 CYC:24221
f451  a5 47      LDA $47     A:e1 X:ff Y:f5 P:67 SP:fb CYC:24227
f453  c9 52      CMP #$52    A:52 X:ff Y:f5 P:65 SP:fb CYC:24230
f455  f0 02      BEQ $f459   A:52 X:ff Y:f5 P:67 SP:fb CYC:24232
f459  c8         INY         A:52 X:ff Y:f5 P:67 SP:fb CYC:24235
f45a  a9 29      LDA #$29    A:52 X:ff Y:f6 P:e5 SP:fb CYC:24237
f45c  85 47      STA $47     A:29 X:ff Y:f6 P:65 SP:fb CYC:24239
f45e  20 2e fb   JSR $fb2e   A:29 X:ff Y:f6 P:65 SP:fb CYC:24242
fb2e  b8         CLV         A:29 X:ff Y:f6 P:65 SP:f9 CYC:24248
fb2f  18         CLC         A:29 X:ff Y:f6 P:25 SP:f9 CYC:24250
fb30  a9 42      LDA #$42    A:29 X:ff Y:f6 P:24 SP:f9 CYC:24252
fb32  60         RTS         A:42 X:ff Y:f6 P:24 SP:f9 CYC:24254
f461  57 48      SRE $48,X   A:42 X:ff Y:f6 P:24 SP:fb CYC:24260
f463  ea         NOP         A:56 X:ff Y:f6 P:25 SP:fb CYC:24266
f464  ea         NOP         A:56 X:ff Y:f6 P:25 SP:fb CYC:24268
f465  ea         NOP         A:56 X:ff Y:f6 P:25 SP:fb CYC:24270
f466  ea         NOP         A:56 X:ff Y:f6 P:25 SP:fb CYC:24272
f467  20 33 fb   JSR $fb33   A:56 X:ff Y:f6 P:25 SP:fb CYC:24274
fb33  70 40      BVS $fb75   A:56 X:ff Y:f6 P:25 SP:f9 CYC:24280
fb35  f0 3e      BEQ $fb75   A:56 X:ff Y:f6 P:25 SP:f9 CYC:24282
fb37  30 3c      BMI $fb75   A:56 X:ff Y:f6 P:25 SP:f9 CYC:24284
fb39  90 3a      BCC $fb75   A:56 X:ff Y:f6 P:25 SP:f9 CYC:24286
fb3b  c9 56      CMP #$56    A:56 X:ff Y:f6 P:25 SP:f9 CYC:24288
fb3d  d0 36      BNE $fb75   A:56 X:ff Y:f6 P:27 SP:f9 CYC:24290
fb3f  60         RTS         A:56 X:ff Y:f6 P:27 SP:f9 CYC:24292
f46a  a5 47      LDA $47     A:56 X:ff Y:f6 P:27 SP:fb CYC:24298
f46c  c9 14      CMP #$14    A:14 X:ff Y:f6 P:25 SP:fb CYC:24301
f46e  f0 02      BEQ $f472   A:14 X:ff Y:f6 P:27 SP:fb CYC:24303
f472  c8         INY         A:14 X:ff Y:f6 P:27 SP:fb CYC:24306
f473  a9 37      LDA #$37    A:14 X:ff Y:f7 P:a5 SP:fb CYC:24308
f475  85 47      STA $47     A:37 X:ff Y:f7 P:25 SP:fb CYC:24310
f477  20 40 fb   JSR $fb40   A:37 X:ff Y:f7 P:25 SP:fb CYC:24313
fb40  24 01      BIT $01     A:37 X:ff Y:f7 P:25 SP:f9 CYC:24319
fb42  38         SEC         A:37 X:ff Y:f7 P:e5 SP:f9 CYC:24322
fb43  a9 75      LDA #$75    A:37 X:ff Y:f7 P:e5 SP:f9 CYC:24324
fb45  60         RTS         A:75 X:ff Y:f7 P:65 SP:f9 CYC:24326
f47a  57 48      SRE $48,X   A:75 X:ff Y:f7 P:65 SP:fb CYC:24332
f47c  ea         NOP         A:6e X:ff Y:f7 P:65 SP:fb CYC:24338
f47d  ea         NOP         A:6e X:ff Y:f7 P:65 SP:fb CYC:24340
f47e  ea         NOP         A:6e X:ff Y:f7 P:65 SP:fb CYC:24342
f47f  ea         NOP         A:6e X:ff Y:f7 P:65 SP:fb CYC:24344
f480  20 46 fb   JSR $fb46   A:6e X:ff Y:f7 P:65 SP:fb CYC:24346
fb46  50 2d      BVC $fb75   A:6e X:ff Y:f7 P:65 SP:f9 CYC:24352
fb48  f0 2b      BEQ $fb75   A:6e X:ff Y:f7 P:65 SP:f9 CYC:24354
fb4a  30 29      BMI $fb75   A:6e X:ff Y:f7 P:65 SP:f9 CYC:24356
fb4c  90 27      BCC $fb75   A:6e X:ff Y:f7 P:65 SP:f9 CYC:24358
fb4e  c9 6e      CMP #$6e    A:6e X:ff Y:f7 P:65 SP:f9 CYC:24360
fb50  d0 23      BNE $fb75   A:6e X:ff Y:f7 P:67 SP:f9 CYC:24362
fb52  60         RTS         A:6e X:ff Y:f7 P:67 SP:f9 CYC:24364
f483  a5 47      LDA $47     A:6e X:ff Y:f7 P:67 SP:fb CYC:24370
f485  c9 1b      CMP #$1b    A:1b X:ff Y:f7 P:65 SP:fb CYC:24373
f487  f0 02      BEQ $f48b   A:1b X:ff Y:f7 P:67 SP:fb CYC:24375
f48b  a9 a5      LDA #$a5    A:1b X:ff Y:f7 P:67 SP:fb CYC:24378
f48d  8d 47 06   STA $0647   A:a5 X:ff Y:f7 P:e5 SP:fb CYC:24380
f490  a0 ff      LDY #$ff    A:a5 X:ff Y:f7 P:e5 SP:fb CYC:24384
f492  20 1d fb   JSR $fb1d   A:a5 X:ff Y:ff P:e5 SP:fb CYC:24386
fb1d  24 01      BIT $01     A:a5 X:ff Y:ff P:e5 SP:f9 CYC:24392
fb1f  18         CLC         A:a5 X:ff Y:ff P:e5 SP:f9 CYC:24395
fb20  a9 b3      LDA #$b3    A:a5 X:ff Y:ff P:e4 SP:f9 CYC:24397
fb22  60         RTS         A:b3 X:ff Y:ff P:e4 SP:f9 CYC:24399
f495  5b 48 05   SRE $0548,Y A:b3 X:ff Y:ff P:e4 SP:fb CYC:24405
f498  ea         NOP         A:e1 X:ff Y:ff P:e5 SP:fb CYC:24412
f499  ea         NOP         A:e1 X:ff Y:ff P:e5 SP:fb CYC:24414
f49a  08         PHP         A:e1 X:ff Y:ff P:e5 SP:fb CYC:24416
f49b  48         PHA         A:e1 X:ff Y:ff P:e5 SP:fa CYC:24419
f49c  a0 f8      LDY #$f8    A:e1 X:ff Y:ff P:e5 SP:f9 CYC:24422
f49e  68         PLA         A:e1 X:ff Y:f8 P:e5 SP:f9 CYC:24424
f49f  28         PLP         A:e1 X:ff Y:f8 P:e5 SP:fa CYC:24428
f4a0  20 23 fb   JSR $fb23   A:e1 X:ff Y:f8 P:e5 SP:fb CYC:24432
fb23  50 50      BVC $fb75   A:e1 X:ff Y:f8 P:e5 SP:f9 CYC:24438
fb25  90 4e      BCC $fb75   A:e1 X:ff Y:f8 P:e5 SP:f9 CYC:24440
fb27  10 4c      BPL $fb75   A:e1 X:ff Y:f8 P:e5 SP:f9 CYC:24442
fb29  c9 e1      CMP #$e1    A:e1 X:ff Y:f8 P:e5 SP:f9 CYC:24444
fb2b  d0 48      BNE $fb75   A:e1 X:ff Y:f8 P:67 SP:f9 CYC:24446
fb2d  60         RTS         A:e1 X:ff Y:f8 P:67 SP:f9 CYC:24448
f4a3  ad 47 06   LDA $0647   A:e1 X:ff Y:f8 P:67 SP:fb CYC:24454
f4a6  c9 52      CMP #$52    A:52 X:ff Y:f8 P:65 SP:fb CYC:24458
f4a8  f0 02      BEQ $f4ac   A:52 X:ff Y:f8 P:67 SP:fb CYC:24460
f4ac  a0 ff      LDY #$ff    A:52 X:ff Y:f8 P:67 SP:fb CYC:24463
f4ae  a9 29      LDA #$29    A:52 X:ff Y:ff P:e5 SP:fb CYC:24465
f4b0  8d 47 06   STA $0647   A:29 X:ff Y:ff P:65 SP:fb CYC:24467
f4b3  20 2e fb   JSR $fb2e   A:29 X:ff Y:ff P:65 SP:fb CYC:24471
fb2e  b8         CLV         A:29 X:ff Y:ff P:65 SP:f9 CYC:24477
fb2f  18         CLC         A:29 X:ff Y:ff P:25 SP:f9 CYC:24479
fb30  a9 42      LDA #$42    A:29 X:ff Y:ff P:24 SP:f9 CYC:24481
fb32  60         RTS         A:42 X:ff Y:ff P:24 SP:f9 CYC:24483
f4b6  5b 48 05   SRE $0548,Y A:42 X:ff Y:ff P:24 SP:fb CYC:24489
f4b9  ea         NOP         A:56 X:ff Y:ff P:25 SP:fb CYC:24496
f4ba  ea         NOP         A:56 X:ff Y:ff P:25 SP:fb CYC:24498
f4bb  08         PHP         A:56 X:ff Y:ff P:25 SP:fb CYC:24500
f4bc  48         PHA         A:56 X:ff Y:ff P:25 SP:fa CYC:24503
f4bd  a0 f9      LDY #$f9    A:56 X:ff Y:ff P:25 SP:f9 CYC:24506
f4bf  68         PLA         A:56 X:ff Y:f9 P:a5 SP:f9 CYC:24508
f4c0  28         PLP         A:56 X:ff Y:f9 P:25 SP:fa CYC:24512
f4c1  20 33 fb   JSR $fb33   A:56 X:ff Y:f9 P:25 SP:fb CYC:24516
fb33  70 40      BVS $fb75   A:56 X:ff Y:f9 P:25 SP:f9 CYC:24522
fb35  f0 3e      BEQ $fb75   A:56 X:ff Y:f9 P:25 SP:f9 CYC:24524
fb37  30 3c      BMI $fb75   A:56 X:ff Y:f9 P:25 SP:f9 CYC:24526
fb39  90 3a      BCC $fb75   A:56 X:ff Y:f9 P:25 SP:f9 CYC:24528
fb3b  c9 56      CMP #$56    A:56 X:ff Y:f9 P:25 SP:f9 CYC:24530
fb3d  d0 36      BNE $fb75   A:56 X:ff Y:f9 P:27 SP:f9 CYC:24532
fb3f  60         RTS         A:56 X:ff Y:f9 P:27 SP:f9 CYC:24534
f4c4  ad 47 06   LDA $0647   A:56 X:ff Y:f9 P:27 SP:fb CYC:24540
f4c7  c9 14      CMP #$14    A:14 X:ff Y:f9 P:25 SP:fb CYC:24544
f4c9  f0 02      BEQ $f4cd   A:14 X:ff Y:f9 P:27 SP:fb CYC:24546
f4cd  a0 ff      LDY #$ff    A:14 X:ff Y:f9 P:27 SP:fb CYC:24549
f4cf  a9 37      LDA #$37    A:14 X:ff Y:ff P:a5 SP:fb CYC:24551
f4d1  8d 47 06   STA $0647   A:37 X:ff Y:ff P:25 SP:fb CYC:24553
f4d4  20 40 fb   JSR $fb40   A:37 X:ff Y:ff P:25 SP:fb CYC:24557
fb40  24 01      BIT $01     A:37 X:ff Y:ff P:25 SP:f9 CYC:24563
fb42  38         SEC         A:37 X:ff Y:ff P:e5 SP:f9 CYC:24566
fb43  a9 75      LDA #$75    A:37 X:ff Y:ff P:e5 SP:f9 CYC:24568
fb45  60         RTS         A:75 X:ff Y:ff P:65 SP:f9 CYC:24570
f4d7  5b 48 05   SRE $0548,Y A:75 X:ff Y:ff P:65 SP:fb CYC:24576
f4da  ea         NOP         A:6e X:ff Y:ff P:65 SP:fb CYC:24583
f4db  ea         NOP         A:6e X:ff Y:ff P:65 SP:fb CYC:24585
f4dc  08         PHP         A:6e X:ff Y:ff P:65 SP:fb CYC:24587
f4dd  48         PHA         A:6e X:ff Y:ff P:65 SP:fa CYC:24590
f4de  a0 fa      LDY #$fa    A:6e X:ff Y:ff P:65 SP:f9 CYC:24593
f4e0  68         PLA         A:6e X:ff Y:fa P:e5 SP:f9 CYC:24595
f4e1  28         PLP         A:6e X:ff Y:fa P:65 SP:fa CYC:24599
f4e2  20 46 fb   JSR $fb46   A:6e X:ff Y:fa P:65 SP:fb CYC:24603
fb46  50 2d      BVC $fb75   A:6e X:ff Y:fa P:65 SP:f9 CYC:24609
fb48  f0 2b      BEQ $fb75   A:6e X:ff Y:fa P:65 SP:f9 CYC:24611
fb4a  30 29      BMI $fb75   A:6e X:ff Y:fa P:65 SP:f9 CYC:24613
fb4c  90 27      BCC $fb75   A:6e X:ff Y:fa P:65 SP:f9 CYC:24615
fb4e  c9 6e      CMP #$6e    A:6e X:ff Y:fa P:65 SP:f9 CYC:24617
fb50  d0 23      BNE $fb75   A:6e X:ff Y:fa P:67 SP:f9 CYC:24619
fb52  60         RTS         A:6e X:ff Y:fa P:67 SP:f9 CYC:24621
f4e5  ad 47 06   LDA $0647   A:6e X:ff Y:fa P:67 SP:fb CYC:24627
f4e8  c9 1b      CMP #$1b    A:1b X:ff Y:fa P:65 SP:fb CYC:24631
f4ea  f0 02      BEQ $f4ee   A:1b X:ff Y:fa P:67 SP:fb CYC:24633
f4ee  a0 fb      LDY #$fb    A:1b X:ff Y:fa P:67 SP:fb CYC:24636
f4f0  a2 ff      LDX #$ff    A:1b X:ff Y:fb P:e5 SP:fb CYC:24638
f4f2  a9 a5      LDA #$a5    A:1b X:ff Y:fb P:e5 SP:fb CYC:24640
f4f4  8d 47 06   STA $0647   A:a5 X:ff Y:fb P:e5 SP:fb CYC:24642
f4f7  20 1d fb   JSR $fb1d   A:a5 X:ff Y:fb P:e5 SP:fb CYC:24646
fb1d  24 01      BIT $01     A:a5 X:ff Y:fb P:e5 SP:f9 CYC:24652
fb1f  18         CLC         A:a5 X:ff Y:fb P:e5 SP:f9 CYC:24655
fb20  a9 b3      LDA #$b3    A:a5 X:ff Y:fb P:e4 SP:f9 CYC:24657
fb22  60         RTS         A:b3 X:ff Y:fb P:e4 SP:f9 CYC:24659
f4fa  5f 48 05   SRE $0548,X A:b3 X:ff Y:fb P:e4 SP:fb CYC:24665
f4fd  ea         NOP         A:e1 X:ff Y:fb P:e5 SP:fb CYC:24672
f4fe  ea         NOP         A:e1 X:ff Y:fb P:e5 SP:fb CYC:24674
f4ff  ea         NOP         A:e1 X:ff Y:fb P:e5 SP:fb CYC:24676
f500  ea         NOP         A:e1 X:ff Y:fb P:e5 SP:fb CYC:24678
f501  20 23 fb   JSR $fb23   A:e1 X:ff Y:fb P:e5 SP:fb CYC:24680
fb23  50 50      BVC $fb75   A:e1 X:ff Y:fb P:e5 SP:f9 CYC:24686
fb25  90 4e      BCC $fb75   A:e1 X:ff Y:fb P:e5 SP:f9 CYC:24688
fb27  10 4c      BPL $fb75   A:e1 X:ff Y:fb P:e5 SP:f9 CYC:24690
fb29  c9 e1      CMP #$e1    A:e1 X:ff Y:fb P:e5 SP:f9 CYC:24692
fb2b  d0 48      BNE $fb75   A:e1 X:ff Y:fb P:67 SP:f9 CYC:24694
fb2d  60         RTS         A:e1 X:ff Y:fb P:67 SP:f9 CYC:24696
f504  ad 47 06   LDA $0647   A:e1 X:ff Y:fb P:67 SP:fb CYC:24702
f507  c9 52      CMP #$52    A:52 X:ff Y:fb P:65 SP:fb CYC:24706
f509  f0 02      BEQ $f50d   A:52 X:ff Y:fb P:67 SP:fb CYC:24708
f50d  c8         INY         A:52 X:ff Y:fb P:67 SP:fb CYC:24711
f50e  a9 29      LDA #$29    A:52 X:ff Y:fc P:e5 SP:fb CYC:24713
f510  8d 47 06   STA $0647   A:29 X:ff Y:fc P:65 SP:fb CYC:24715
f513  20 2e fb   JSR $fb2e   A:29 X:ff Y:fc P:65 SP:fb CYC:24719
fb2e  b8         CLV         A:29 X:ff Y:fc P:65 SP:f9 CYC:24725
fb2f  18         CLC         A:29 X:ff Y:fc P:25 SP:f9 CYC:24727
fb30  a9 42      LDA #$42    A:29 X:ff Y:fc P:24 SP:f9 CYC:24729
fb32  60         RTS         A:42 X:ff Y:fc P:24 SP:f9 CYC:24731
f516  5f 48 05   SRE $0548,X A:42 X:ff Y:fc P:24 SP:fb CYC:24737
f519  ea         NOP         A:56 X:ff Y:fc P:25 SP:fb CYC:24744
f51a  ea         NOP         A:56 X:ff Y:fc P:25 SP:fb CYC:24746
f51b  ea         NOP         A:56 X:ff Y:fc P:25 SP:fb CYC:24748
f51c  ea         NOP         A:56 X:ff Y:fc P:25 SP:fb CYC:24750
f51d  20 33 fb   JSR $fb33   A:56 X:ff Y:fc P:25 SP:fb CYC:24752
fb33  70 40      BVS $fb75   A:56 X:ff Y:fc P:25 SP:f9 CYC:24758
fb35  f0 3e      BEQ $fb75   A:56 X:ff Y:fc P:25 SP:f9 CYC:24760
fb37  30 3c      BMI $fb75   A:56 X:ff Y:fc P:25 SP:f9 CYC:24762
fb39  90 3a      BCC $fb75   A:56 X:ff Y:fc P:25 SP:f9 CYC:24764
fb3b  c9 56      CMP #$56    A:56 X:ff Y:fc P:25 SP:f9 CYC:24766
fb3d  d0 36      BNE $fb75   A:56 X:ff Y:fc P:27 SP:f9 CYC:24768
fb3f  60         RTS         A:56 X:ff Y:fc P:27 SP:f9 CYC:24770
f520  ad 47 06   LDA $0647   A:56 X:ff Y:fc P:27 SP:fb CYC:24776
f523  c9 14      CMP #$14    A:14 X:ff Y:fc P:25 SP:fb CYC:24780
f525  f0 02      BEQ $f529   A:14 X:ff Y:fc P:27 SP:fb CYC:24782
f529  c8         INY         A:14 X:ff Y:fc P:27 SP:fb CYC:24785
f52a  a9 37      LDA #$37    A:14 X:ff Y:fd P:a5 SP:fb CYC:24787
f52c  8d 47 06   STA $0647   A:37 X:ff Y:fd P:25 SP:fb CYC:24789
f52f  20 40 fb   JSR $fb40   A:37 X:ff Y:fd P:25 SP:fb CYC:24793
fb40  24 01      BIT $01     A:37 X:ff Y:fd P:25 SP:f9 CYC:24799
fb42  38         SEC         A:37 X:ff Y:fd P:e5 SP:f9 CYC:24802
fb43  a9 75      LDA #$75    A:37 X:ff Y:fd P:e5 SP:f9 CYC:24804
fb45  60         RTS         A:75 X:ff Y:fd P:65 SP:f9 CYC:24806
f532  5f 48 05   SRE $0548,X A:75 X:ff Y:fd P:65 SP:fb CYC:24812
f535  ea         NOP         A:6e X:ff Y:fd P:65 SP:fb CYC:24819
f536  ea         NOP         A:6e X:ff Y:fd P:65 SP:fb CYC:24821
f537  ea         NOP         A:6e X:ff Y:fd P:65 SP:fb CYC:24823
f538  ea         NOP         A:6e X:ff Y:fd P:65 SP:fb CYC:24825
f539  20 46 fb   JSR $fb46   A:6e X:ff Y:fd P:65 SP:fb CYC:24827
fb46  50 2d      BVC $fb75   A:6e X:ff Y:fd P:65 SP:f9 CYC:24833
fb48  f0 2b      BEQ $fb75   A:6e X:ff Y:fd P:65 SP:f9 CYC:24835
fb4a  30 29      BMI $fb75   A:6e X:ff Y:fd P:65 SP:f9 CYC:24837
fb4c  90 27      BCC $fb75   A:6e X:ff Y:fd P:65 SP:f9 CYC:24839
fb4e  c9 6e      CMP #$6e    A:6e X:ff Y:fd P:65 SP:f9 CYC:24841
fb50  d0 23      BNE $fb75   A:6e X:ff Y:fd P:67 SP:f9 CYC:24843
fb52  60         RTS         A:6e X:ff Y:fd P:67 SP:f9 CYC:24845
f53c  ad 47 06   LDA $0647   A:6e X:ff Y:fd P:67 SP:fb CYC:24851
f53f  c9 1b      CMP #$1b    A:1b X:ff Y:fd P:65 SP:fb CYC:24855
f541  f0 02      BEQ $f545   A:1b X:ff Y:fd P:67 SP:fb CYC:24857
f545  60         RTS         A:1b X:ff Y:fd P:67 SP:fb CYC:24860
c64a  a5 00      LDA $00     A:1b X:ff Y:fd P:67 SP:fd CYC:24866
c64c  85 11      STA $11     A:00 X:ff Y:fd P:67 SP:fd CYC:24869
c64e  a9 00      LDA #$00    A:00 X:ff Y:fd P:67 SP:fd CYC:24872
c650  85 00      STA $00     A:00 X:ff Y:fd P:67 SP:fd CYC:24874
c652  20 46 f5   JSR $f546   A:00 X:ff Y:fd P:67 SP:fd CYC:24877
f546  a9 ff      LDA #$ff    A:00 X:ff Y:fd P:67 SP:fb CYC:24883
f548  85 01      STA $01     A:ff X:ff Y:fd P:e5 SP:fb CYC:24885
f54a  a0 01      LDY #$01    A:ff X:ff Y:fd P:e5 SP:fb CYC:24888
f54c  a2 02      LDX #$02    A:ff X:ff Y:01 P:65 SP:fb CYC:24890
f54e  a9 47      LDA #$47    A:ff X:02 Y:01 P:65 SP:fb CYC:24892
f550  85 47      STA $47     A:47 X:02 Y:01 P:65 SP:fb CYC:24894
f552  a9 06      LDA #$06    A:47 X:02 Y:01 P:65 SP:fb CYC:24897
f554  85 48      STA $48     A:06 X:02 Y:01 P:65 SP:fb CYC:24899
f556  a9 a5      LDA #$a5    A:06 X:02 Y:01 P:65 SP:fb CYC:24902
f558  8d 47 06   STA $0647   A:a5 X:02 Y:01 P:e5 SP:fb CYC:24904
f55b  20 e9 fa   JSR $fae9   A:a5 X:02 Y:01 P:e5 SP:fb CYC:24908
fae9  24 01      BIT $01     A:a5 X:02 Y:01 P:e5 SP:f9 CYC:24914
faeb  18         CLC         A:a5 X:02 Y:01 P:e5 SP:f9 CYC:24917
faec  a9 b2      LDA #$b2    A:a5 X:02 Y:01 P:e4 SP:f9 CYC:24919
faee  60         RTS         A:b2 X:02 Y:01 P:e4 SP:f9 CYC:24921
f55e  63 45      RRA ($45,X) A:b2 X:02 Y:01 P:e4 SP:fb CYC:24927
f560  ea         NOP         A:05 X:02 Y:01 P:25 SP:fb CYC:24935
f561  ea         NOP         A:05 X:02 Y:01 P:25 SP:fb CYC:24937
f562  ea         NOP         A:05 X:02 Y:01 P:25 SP:fb CYC:24939
f563  ea         NOP         A:05 X:02 Y:01 P:25 SP:fb CYC:24941
f564  20 ef fa   JSR $faef   A:05 X:02 Y:01 P:25 SP:fb CYC:24943
faef  70 2a      BVS $fb1b   A:05 X:02 Y:01 P:25 SP:f9 CYC:24949
faf1  90 28      BCC $fb1b   A:05 X:02 Y:01 P:25 SP:f9 CYC:24951
faf3  30 26      BMI $fb1b   A:05 X:02 Y:01 P:25 SP:f9 CYC:24953
faf5  c9 05      CMP #$05    A:05 X:02 Y:01 P:25 SP:f9 CYC:24955
faf7  d0 22      BNE $fb1b   A:05 X:02 Y:01 P:27 SP:f9 CYC:24957
faf9  60         RTS         A:05 X:02 Y:01 P:27 SP:f9 CYC:24959
f567  ad 47 06   LDA $0647   A:05 X:02 Y:01 P:27 SP:fb CYC:24965
f56a  c9 52      CMP #$52    A:52 X:02 Y:01 P:25 SP:fb CYC:24969
f56c  f0 02      BEQ $f570   A:52 X:02 Y:01 P:27 SP:fb CYC:24971
f570  c8         INY         A:52 X:02 Y:01 P:27 SP:fb CYC:24974
f571  a9 29      LDA #$29    A:52 X:02 Y:02 P:25 SP:fb CYC:24976
f573  8d 47 06   STA $0647   A:29 X:02 Y:02 P:25 SP:fb CYC:24978
f576  20 fa fa   JSR $fafa   A:29 X:02 Y:02 P:25 SP:fb CYC:24982
fafa  b8         CLV         A:29 X:02 Y:02 P:25 SP:f9 CYC:24988
fafb  18         CLC         A:29 X:02 Y:02 P:25 SP:f9 CYC:24990
fafc  a9 42      LDA #$42    A:29 X:02 Y:02 P:24 SP:f9 CYC:24992
fafe  60         RTS         A:42 X:02 Y:02 P:24 SP:f9 CYC:24994
f579  63 45      RRA ($45,X) A:42 X:02 Y:02 P:24 SP:fb CYC:25000
f57b  ea         NOP         A:57 X:02 Y:02 P:24 SP:fb CYC:25008
f57c  ea         NOP         A:57 X:02 Y:02 P:24 SP:fb CYC:25010
f57d  ea         NOP         A:57 X:02 Y:02 P:24 SP:fb CYC:25012
f57e  ea         NOP         A:57 X:02 Y:02 P:24 SP:fb CYC:25014
f57f  20 ff fa   JSR $faff   A:57 X:02 Y:02 P:24 SP:fb CYC:25016
faff  70 1a      BVS $fb1b   A:57 X:02 Y:02 P:24 SP:f9 CYC:25022
fb01  30 18      BMI $fb1b   A:57 X:02 Y:02 P:24 SP:f9 CYC:25024
fb03  b0 16      BCS $fb1b   A:57 X:02 Y:02 P:24 SP:f9 CYC:25026
fb05  c9 57      CMP #$57    A:57 X:02 Y:02 P:24 SP:f9 CYC:25028
fb07  d0 12      BNE $fb1b   A:57 X:02 Y:02 P:27 SP:f9 CYC:25030
fb09  60         RTS         A:57 X:02 Y:02 P:27 SP:f9 CYC:25032
f582  ad 47 06   LDA $0647   A:57 X:02 Y:02 P:27 SP:fb CYC:25038
f585  c9 14      CMP #$14    A:14 X:02 Y:02 P:25 SP:fb CYC:25042
f587  f0 02      BEQ $f58b   A:14 X:02 Y:02 P:27 SP:fb CYC:25044
f58b  c8         INY         A:14 X:02 Y:02 P:27 SP:fb CYC:25047
f58c  a9 37      LDA #$37    A:14 X:02 Y:03 P:25 SP:fb CYC:25049
f58e  8d 47 06   STA $0647   A:37 X:02 Y:03 P:25 SP:fb CYC:25051
f591  20 0a fb   JSR $fb0a   A:37 X:02 Y:03 P:25 SP:fb CYC:25055
fb0a  24 01      BIT $01     A:37 X:02 Y:03 P:25 SP:f9 CYC:25061
fb0c  38         SEC         A:37 X:02 Y:03 P:e5 SP:f9 CYC:25064
fb0d  a9 75      LDA #$75    A:37 X:02 Y:03 P:e5 SP:f9 CYC:25066
fb0f  60         RTS         A:75 X:02 Y:03 P:65 SP:f9 CYC:25068
f594  63 45      RRA ($45,X) A:75 X:02 Y:03 P:65 SP:fb CYC:25074
f596  ea         NOP         A:11 X:02 Y:03 P:25 SP:fb CYC:25082
f597  ea         NOP         A:11 X:02 Y:03 P:25 SP:fb CYC:25084
f598  ea         NOP         A:11 X:02 Y:03 P:25 SP:fb CYC:25086
f599  ea         NOP         A:11 X:02 Y:03 P:25 SP:fb CYC:25088
f59a  20 10 fb   JSR $fb10   A:11 X:02 Y:03 P:25 SP:fb CYC:25090
fb10  70 09      BVS $fb1b   A:11 X:02 Y:03 P:25 SP:f9 CYC:25096
fb12  30 07      BMI $fb1b   A:11 X:02 Y:03 P:25 SP:f9 CYC:25098
fb14  90 05      BCC $fb1b   A:11 X:02 Y:03 P:25 SP:f9 CYC:25100
fb16  c9 11      CMP #$11    A:11 X:02 Y:03 P:25 SP:f9 CYC:25102
fb18  d0 01      BNE $fb1b   A:11 X:02 Y:03 P:27 SP:f9 CYC:25104
fb1a  60         RTS         A:11 X:02 Y:03 P:27 SP:f9 CYC:25106
f59d  ad 47 06   LDA $0647   A:11 X:02 Y:03 P:27 SP:fb CYC:25112
f5a0  c9 9b      CMP #$9b    A:9b X:02 Y:03 P:a5 SP:fb CYC:25116
f5a2  f0 02      BEQ $f5a6   A:9b X:02 Y:03 P:27 SP:fb CYC:25118
f5a6  c8         INY         A:9b X:02 Y:03 P:27 SP:fb CYC:25121
f5a7  a9 a5      LDA #$a5    A:9b X:02 Y:04 P:25 SP:fb CYC:25123
f5a9  85 47      STA $47     A:a5 X:02 Y:04 P:a5 SP:fb CYC:25125
f5ab  20 e9 fa   JSR $fae9   A:a5 X:02 Y:04 P:a5 SP:fb CYC:25128
fae9  24 01      BIT $01     A:a5 X:02 Y:04 P:a5 SP:f9 CYC:25134
faeb  18         CLC         A:a5 X:02 Y:04 P:e5 SP:f9 CYC:25137
faec  a9 b2      LDA #$b2    A:a5 X:02 Y:04 P:e4 SP:f9 CYC:25139
faee  60         RTS         A:b2 X:02 Y:04 P:e4 SP:f9 CYC:25141
f5ae  67 47      RRA $47     A:b2 X:02 Y:04 P:e4 SP:fb CYC:25147
f5b0  ea         NOP         A:05 X:02 Y:04 P:25 SP:fb CYC:25152
f5b1  ea         NOP         A:05 X:02 Y:04 P:25 SP:fb CYC:25154
f5b2  ea         NOP         A:05 X:02 Y:04 P:25 SP:fb CYC:25156
f5b3  ea         NOP         A:05 X:02 Y:04 P:25 SP:fb CYC:25158
f5b4  20 ef fa   JSR $faef   A:05 X:02 Y:04 P:25 SP:fb CYC:25160
faef  70 2a      BVS $fb1b   A:05 X:02 Y:04 P:25 SP:f9 CYC:25166
faf1  90 28      BCC $fb1b   A:05 X:02 Y:04 P:25 SP:f9 CYC:25168
faf3  30 26      BMI $fb1b   A:05 X:02 Y:04 P:25 SP:f9 CYC:25170
faf5  c9 05      CMP #$05    A:05 X:02 Y:04 P:25 SP:f9 CYC:25172
faf7  d0 22      BNE $fb1b   A:05 X:02 Y:04 P:27 SP:f9 CYC:25174
faf9  60         RTS         A:05 X:02 Y:04 P:27 SP:f9 CYC:25176
f5b7  a5 47      LDA $47     A:05 X:02 Y:04 P:27 SP:fb CYC:25182
f5b9  c9 52      CMP #$52    A:52 X:02 Y:04 P:25 SP:fb CYC:25185
f5bb  f0 02      BEQ $f5bf   A:52 X:02 Y:04 P:27 SP:fb CYC:25187
f5bf  c8         INY         A:52 X:02 Y:04 P:27 SP:fb CYC:25190
f5c0  a9 29      LDA #$29    A:52 X:02 Y:05 P:25 SP:fb CYC:25192
f5c2  85 47      STA $47     A:29 X:02 Y:05 P:25 SP:fb CYC:25194
f5c4  20 fa fa   JSR $fafa   A:29 X:02 Y:05 P:25 SP:fb CYC:25197
fafa  b8         CLV         A:29 X:02 Y:05 P:25 SP:f9 CYC:25203
fafb  18         CLC         A:29 X:02 Y:05 P:25 SP:f9 CYC:25205
fafc  a9 42      LDA #$42    A:29 X:02 Y:05 P:24 SP:f9 CYC:25207
fafe  60         RTS         A:42 X:02 Y:05 P:24 SP:f9 CYC:25209
f5c7  67 47      RRA $47     A:42 X:02 Y:05 P:24 SP:fb CYC:25215
f5c9  ea         NOP         A:57 X:02 Y:05 P:24 SP:fb CYC:25220
f5ca  ea         NOP         A:57 X:02 Y:05 P:24 SP:fb CYC:25222
f5cb  ea         NOP         A:57 X:02 Y:05 P:24 SP:fb CYC:25224
f5cc  ea         NOP         A:57 X:02 Y:05 P:24 SP:fb CYC:25226
f5cd  20 ff fa   JSR $faff   A:57 X:02 Y:05 P:24 SP:fb CYC:25228
faff  70 1a      BVS $fb1b   A:57 X:02 Y:05 P:24 SP:f9 CYC:25234
fb01  30 18      BMI $fb1b   A:57 X:02 Y:05 P:24 SP:f9 CYC:25236
fb03  b0 16      BCS $fb1b   A:57 X:02 Y:05 P:24 SP:f9 CYC:25238
fb05  c9 57      CMP #$57    A:57 X:02 Y:05 P:24 SP:f9 CYC:25240
fb07  d0 12      BNE $fb1b   A:57 X:02 Y:05 P:27 SP:f9 CYC:25242
fb09  60         RTS         A:57 X:02 Y:05 P:27 SP:f9 CYC:25244
f5d0  a5 47      LDA $47     A:57 X:02 Y:05 P:27 SP:fb CYC:25250
f5d2  c9 14      CMP #$14    A:14 X:02 Y:05 P:25 SP:fb CYC:25253
f5d4  f0 02      BEQ $f5d8   A:14 X:02 Y:05 P:27 SP:fb CYC:25255
f5d8  c8         INY         A:14 X:02 Y:05 P:27 SP:fb CYC:25258
f5d9  a9 37      LDA #$37    A:14 X:02 Y:06 P:25 SP:fb CYC:25260
f5db  85 47      STA $47     A:37 X:02 Y:06 P:25 SP:fb CYC:25262
f5dd  20 0a fb   JSR $fb0a   A:37 X:02 Y:06 P:25 SP:fb CYC:25265
fb0a  24 01      BIT $01     A:37 X:02 Y:06 P:25 SP:f9 CYC:25271
fb0c  38         SEC         A:37 X:02 Y:06 P:e5 SP:f9 CYC:25274
fb0d  a9 75      LDA #$75    A:37 X:02 Y:06 P:e5 SP:f9 CYC:25276
fb0f  60         RTS         A:75 X:02 Y:06 P:65 SP:f9 CYC:25278
f5e0  67 47      RRA $47     A:75 X:02 Y:06 P:65 SP:fb CYC:25284
f5e2  ea         NOP         A:11 X:02 Y:06 P:25 SP:fb CYC:25289
f5e3  ea         NOP         A:11 X:02 Y:06 P:25 SP:fb CYC:25291
f5e4  ea         NOP         A:11 X:02 Y:06 P:25 SP:fb CYC:25293
f5e5  ea         NOP         A:11 X:02 Y:06 P:25 SP:fb CYC:25295
f5e6  20 10 fb   JSR $fb10   A:11 X:02 Y:06 P:25 SP:fb CYC:25297
fb10  70 09      BVS $fb1b   A:11 X:02 Y:06 P:25 SP:f9 CYC:25303
fb12  30 07      BMI $fb1b   A:11 X:02 Y:06 P:25 SP:f9 CYC:25305
fb14  90 05      BCC $fb1b   A:11 X:02 Y:06 P:25 SP:f9 CYC:25307
fb16  c9 11      CMP #$11    A:11 X:02 Y:06 P:25 SP:f9 CYC:25309
fb18  d0 01      BNE $fb1b   A:11 X:02 Y:06 P:27 SP:f9 CYC:25311
fb1a  60         RTS         A:11 X:02 Y:06 P:27 SP:f9 CYC:25313
f5e9  a5 47      LDA $47     A:11 X:02 Y:06 P:27 SP:fb CYC:25319
f5eb  c9 9b      CMP #$9b    A:9b X:02 Y:06 P:a5 SP:fb CYC:25322
f5ed  f0 02      BEQ $f5f1   A:9b X:02 Y:06 P:27 SP:fb CYC:25324
f5f1  c8         INY         A:9b X:02 Y:06 P:27 SP:fb CYC:25327
f5f2  a9 a5      LDA #$a5    A:9b X:02 Y:07 P:25 SP:fb CYC:25329
f5f4  8d 47 06   STA $0647   A:a5 X:02 Y:07 P:a5 SP:fb CYC:25331
f5f7  20 e9 fa   JSR $fae9   A:a5 X:02 Y:07 P:a5 SP:fb CYC:25335
fae9  24 01      BIT $01     A:a5 X:02 Y:07 P:a5 SP:f9 CYC:25341
faeb  18         CLC         A:a5 X:02 Y:07 P:e5 SP:f9 CYC:25344
faec  a9 b2      LDA #$b2    A:a5 X:02 Y:07 P:e4 SP:f9 CYC:25346
faee  60         RTS         A:b2 X:02 Y:07 P:e4 SP:f9 CYC:25348
f5fa  6f 47 06   RRA $0647   A:b2 X:02 Y:07 P:e4 SP:fb CYC:25354
f5fd  ea         NOP         A:05 X:02 Y:07 P:25 SP:fb CYC:25360
f5fe  ea         NOP         A:05 X:02 Y:07 P:25 SP:fb CYC:25362
f5ff  ea         NOP         A:05 X:02 Y:07 P:25 SP:fb CYC:25364
f600  ea         NOP         A:05 X:02 Y:07 P:25 SP:fb CYC:25366
f601  20 ef fa   JSR $faef   A:05 X:02 Y:07 P:25 SP:fb CYC:25368
faef  70 2a      BVS $fb1b   A:05 X:02 Y:07 P:25 SP:f9 CYC:25374
faf1  90 28      BCC $fb1b   A:05 X:02 Y:07 P:25 SP:f9 CYC:25376
faf3  30 26      BMI $fb1b   A:05 X:02 Y:07 P:25 SP:f9 CYC:25378
faf5  c9 05      CMP #$05    A:05 X:02 Y:07 P:25 SP:f9 CYC:25380
faf7  d0 22      BNE $fb1b   A:05 X:02 Y:07 P:27 SP:f9 CYC:25382
faf9  60         RTS         A:05 X:02 Y:07 P:27 SP:f9 CYC:25384
f604  ad 47 06   LDA $0647   A:05 X:02 Y:07 P:27 SP:fb CYC:25390
f607  c9 52      CMP #$52    A:52 X:02 Y:07 P:25 SP:fb CYC:25394
f609  f0 02      BEQ $f60d   A:52 X:02 Y:07 P:27 SP:fb CYC:25396
f60d  c8         INY         A:52 X:02 Y:07 P:27 SP:fb CYC:25399
f60e  a9 29      LDA #$29    A:52 X:02 Y:08 P:25 SP:fb CYC:25401
f610  8d 47 06   STA $0647   A:29 X:02 Y:08 P:25 SP:fb CYC:25403
f613  20 fa fa   JSR $fafa   A:29 X:02 Y:08 P:25 SP:fb CYC:25407
fafa  b8         CLV         A:29 X:02 Y:08 P:25 SP:f9 CYC:25413
fafb  18         CLC         A:29 X:02 Y:08 P:25 SP:f9 CYC:25415
fafc  a9 42      LDA #$42    A:29 X:02 Y:08 P:24 SP:f9 CYC:25417
fafe  60         RTS         A:42 X:02 Y:08 P:24 SP:f9 CYC:25419
f616  6f 47 06   RRA $0647   A:42 X:02 Y:08 P:24 SP:fb CYC:25425
f619  ea         NOP         A:57 X:02 Y:08 P:24 SP:fb CYC:25431
f61a  ea         NOP         A:57 X:02 Y:08 P:24 SP:fb CYC:25433
f61b  ea         NOP         A:57 X:02 Y:08 P:24 SP:fb CYC:25435
f61c  ea         NOP         A:57 X:02 Y:08 P:24 SP:fb CYC:25437
f61d  20 ff fa   JSR $faff   A:57 X:02 Y:08 P:24 SP:fb CYC:25439
faff  70 1a      BVS $fb1b   A:57 X:02 Y:08 P:24 SP:f9 CYC:25445
fb01  30 18      BMI $fb1b   A:57 X:02 Y:08 P:24 SP:f9 CYC:25447
fb03  b0 16      BCS $fb1b   A:57 X:02 Y:08 P:24 SP:f9 CYC:25449
fb05  c9 57      CMP #$57    A:57 X:02 Y:08 P:24 SP:f9 CYC:25451
fb07  d0 12      BNE $fb1b   A:57 X:02 Y:08 P:27 SP:f9 CYC:25453
fb09  60         RTS         A:57 X:02 Y:08 P:27 SP:f9 CYC:25455
f620  ad 47 06   LDA $0647   A:57 X:02 Y:08 P:27 SP:fb CYC:25461
f623  c9 14      CMP #$14    A:14 X:02 Y:08 P:25 SP:fb CYC:25465
f625  f0 02      BEQ $f629   A:14 X:02 Y:08 P:27 SP:fb CYC:25467
f629  c8         INY         A:14 X:02 Y:08 P:27 SP:fb CYC:25470
f62a  a9 37      LDA #$37    A:14 X:02 Y:09 P:25 SP:fb CYC:25472
f62c  8d 47 06   STA $0647   A:37 X:02 Y:09 P:25 SP:fb CYC:25474
f62f  20 0a fb   JSR $fb0a   A:37 X:02 Y:09 P:25 SP:fb CYC:25478
fb0a  24 01      BIT $01     A:37 X:02 Y:09 P:25 SP:f9 CYC:25484
fb0c  38         SEC         A:37 X:02 Y:09 P:e5 SP:f9 CYC:25487
fb0d  a9 75      LDA #$75    A:37 X:02 Y:09 P:e5 SP:f9 CYC:25489
fb0f  60         RTS         A:75 X:02 Y:09 P:65 SP:f9 CYC:25491
f632  6f 47 06   RRA $0647   A:75 X:02 Y:09 P:65 SP:fb CYC:25497
f635  ea         NOP         A:11 X:02 Y:09 P:25 SP:fb CYC:25503
f636  ea         NOP         A:11 X:02 Y:09 P:25 SP:fb CYC:25505
f637  ea         NOP         A:11 X:02 Y:09 P:25 SP:fb CYC:25507
f638  ea         NOP         A:11 X:02 Y:09 P:25 SP:fb CYC:25509
f639  20 10 fb   JSR $fb10   A:11 X:02 Y:09 P:25 SP:fb CYC:25511
fb10  70 09      BVS $fb1b   A:11 X:02 Y:09 P:25 SP:f9 CYC:25517
fb12  30 07      BMI $fb1b   A:11 X:02 Y:09 P:25 SP:f9 CYC:25519
fb14  90 05      BCC $fb1b   A:11 X:02 Y:09 P:25 SP:f9 CYC:25521
fb16  c9 11      CMP #$11    A:11 X:02 Y:09 P:25 SP:f9 CYC:25523
fb18  d0 01      BNE $fb1b   A:11 X:02 Y:09 P:27 SP:f9 CYC:25525
fb1a  60         RTS         A:11 X:02 Y:09 P:27 SP:f9 CYC:25527
f63c  ad 47 06   LDA $0647   A:11 X:02 Y:09 P:27 SP:fb CYC:25533
f63f  c9 9b      CMP #$9b    A:9b X:02 Y:09 P:a5 SP:fb CYC:25537
f641  f0 02      BEQ $f645   A:9b X:02 Y:09 P:27 SP:fb CYC:25539
f645  a9 a5      LDA #$a5    A:9b X:02 Y:09 P:27 SP:fb CYC:25542
f647  8d 47 06   STA $0647   A:a5 X:02 Y:09 P:a5 SP:fb CYC:25544
f64a  a9 48      LDA #$48    A:a5 X:02 Y:09 P:a5 SP:fb CYC:25548
f64c  85 45      STA $45     A:48 X:02 Y:09 P:25 SP:fb CYC:25550
f64e  a9 05      LDA #$05    A:48 X:02 Y:09 P:25 SP:fb CYC:25553
f650  85 46      STA $46     A:05 X:02 Y:09 P:25 SP:fb CYC:25555
f652  a0 ff      LDY #$ff    A:05 X:02 Y:09 P:25 SP:fb CYC:25558
f654  20 e9 fa   JSR $fae9   A:05 X:02 Y:ff P:a5 SP:fb CYC:25560
fae9  24 01      BIT $01     A:05 X:02 Y:ff P:a5 SP:f9 CYC:25566
faeb  18         CLC         A:05 X:02 Y:ff P:e5 SP:f9 CYC:25569
faec  a9 b2      LDA #$b2    A:05 X:02 Y:ff P:e4 SP:f9 CYC:25571
faee  60         RTS         A:b2 X:02 Y:ff P:e4 SP:f9 CYC:25573
f657  73 45      RRA ($45),Y A:b2 X:02 Y:ff P:e4 SP:fb CYC:25579
f659  ea         NOP         A:05 X:02 Y:ff P:25 SP:fb CYC:25587
f65a  ea         NOP         A:05 X:02 Y:ff P:25 SP:fb CYC:25589
f65b  08         PHP         A:05 X:02 Y:ff P:25 SP:fb CYC:25591
f65c  48         PHA         A:05 X:02 Y:ff P:25 SP:fa CYC:25594
f65d  a0 0a      LDY #$0a    A:05 X:02 Y:ff P:25 SP:f9 CYC:25597
f65f  68         PLA         A:05 X:02 Y:0a P:25 SP:f9 CYC:25599
f660  28         PLP         A:05 X:02 Y:0a P:25 SP:fa CYC:25603
f661  20 ef fa   JSR $faef   A:05 X:02 Y:0a P:25 SP:fb CYC:25607
faef  70 2a      BVS $fb1b   A:05 X:02 Y:0a P:25 SP:f9 CYC:25613
faf1  90 28      BCC $fb1b   A:05 X:02 Y:0a P:25 SP:f9 CYC:25615
faf3  30 26      BMI $fb1b   A:05 X:02 Y:0a P:25 SP:f9 CYC:25617
faf5  c9 05      CMP #$05    A:05 X:02 Y:0a P:25 SP:f9 CYC:25619
faf7  d0 22      BNE $fb1b   A:05 X:02 Y:0a P:27 SP:f9 CYC:25621
faf9  60         RTS         A:05 X:02 Y:0a P:27 SP:f9 CYC:25623
f664  ad 47 06   LDA $0647   A:05 X:02 Y:0a P:27 SP:fb CYC:25629
f667  c9 52      CMP #$52    A:52 X:02 Y:0a P:25 SP:fb CYC:25633
f669  f0 02      BEQ $f66d   A:52 X:02 Y:0a P:27 SP:fb CYC:25635
f66d  a0 ff      LDY #$ff    A:52 X:02 Y:0a P:27 SP:fb CYC:25638
f66f  a9 29      LDA #$29    A:52 X:02 Y:ff P:a5 SP:fb CYC:25640
f671  8d 47 06   STA $0647   A:29 X:02 Y:ff P:25 SP:fb CYC:25642
f674  20 fa fa   JSR $fafa   A:29 X:02 Y:ff P:25 SP:fb CYC:25646
fafa  b8         CLV         A:29 X:02 Y:ff P:25 SP:f9 CYC:25652
fafb  18         CLC         A:29 X:02 Y:ff P:25 SP:f9 CYC:25654
fafc  a9 42      LDA #$42    A:29 X:02 Y:ff P:24 SP:f9 CYC:25656
fafe  60         RTS         A:42 X:02 Y:ff P:24 SP:f9 CYC:25658
f677  73 45      RRA ($45),Y A:42 X:02 Y:ff P:24 SP:fb CYC:25664
f679  ea         NOP         A:57 X:02 Y:ff P:24 SP:fb CYC:25672
f67a  ea         NOP         A:57 X:02 Y:ff P:24 SP:fb CYC:25674
f67b  08         PHP         A:57 X:02 Y:ff P:24 SP:fb CYC:25676
f67c  48         PHA         A:57 X:02 Y:ff P:24 SP:fa CYC:25679
f67d  a0 0b      LDY #$0b    A:57 X:02 Y:ff P:24 SP:f9 CYC:25682
f67f  68         PLA         A:57 X:02 Y:0b P:24 SP:f9 CYC:25684
f680  28         PLP         A:57 X:02 Y:0b P:24 SP:fa CYC:25688
f681  20 ff fa   JSR $faff   A:57 X:02 Y:0b P:24 SP:fb CYC:25692
faff  70 1a      BVS $fb1b   A:57 X:02 Y:0b P:24 SP:f9 CYC:25698
fb01  30 18      BMI $fb1b   A:57 X:02 Y:0b P:24 SP:f9 CYC:25700
fb03  b0 16      BCS $fb1b   A:57 X:02 Y:0b P:24 SP:f9 CYC:25702
fb05  c9 57      CMP #$57    A:57 X:02 Y:0b P:24 SP:f9 CYC:25704
fb07  d0 12      BNE $fb1b   A:57 X:02 Y:0b P:27 SP:f9 CYC:25706
fb09  60         RTS         A:57 X:02 Y:0b P:27 SP:f9 CYC:25708
f684  ad 47 06   LDA $0647   A:57 X:02 Y:0b P:27 SP:fb CYC:25714
f687  c9 14      CMP #$14    A:14 X:02 Y:0b P:25 SP:fb CYC:25718
f689  f0 02      BEQ $f68d   A:14 X:02 Y:0b P:27 SP:fb CYC:25720
f68d  a0 ff      LDY #$ff    A:14 X:02 Y:0b P:27 SP:fb CYC:25723
f68f  a9 37      LDA #$37    A:14 X:02 Y:ff P:a5 SP:fb CYC:25725
f691  8d 47 06   STA $0647   A:37 X:02 Y:ff P:25 SP:fb CYC:25727
f694  20 0a fb   JSR $fb0a   A:37 X:02 Y:ff P:25 SP:fb CYC:25731
fb0a  24 01      BIT $01     A:37 X:02 Y:ff P:25 SP:f9 CYC:25737
fb0c  38         SEC         A:37 X:02 Y:ff P:e5 SP:f9 CYC:25740
fb0d  a9 75      LDA #$75    A:37 X:02 Y:ff P:e5 SP:f9 CYC:25742
fb0f  60         RTS         A:75 X:02 Y:ff P:65 SP:f9 CYC:25744
f697  73 45      RRA ($45),Y A:75 X:02 Y:ff P:65 SP:fb CYC:25750
f699  ea         NOP         A:11 X:02 Y:ff P:25 SP:fb CYC:25758
f69a  ea         NOP         A:11 X:02 Y:ff P:25 SP:fb CYC:25760
f69b  08         PHP         A:11 X:02 Y:ff P:25 SP:fb CYC:25762
f69c  48         PHA         A:11 X:02 Y:ff P:25 SP:fa CYC:25765
f69d  a0 0c      LDY #$0c    A:11 X:02 Y:ff P:25 SP:f9 CYC:25768
f69f  68         PLA         A:11 X:02 Y:0c P:25 SP:f9 CYC:25770
f6a0  28         PLP         A:11 X:02 Y:0c P:25 SP:fa CYC:25774
f6a1  20 10 fb   JSR $fb10   A:11 X:02 Y:0c P:25 SP:fb CYC:25778
fb10  70 09      BVS $fb1b   A:11 X:02 Y:0c P:25 SP:f9 CYC:25784
fb12  30 07      BMI $fb1b   A:11 X:02 Y:0c P:25 SP:f9 CYC:25786
fb14  90 05      BCC $fb1b   A:11 X:02 Y:0c P:25 SP:f9 CYC:25788
fb16  c9 11      CMP #$11    A:11 X:02 Y:0c P:25 SP:f9 CYC:25790
fb18  d0 01      BNE $fb1b   A:11 X:02 Y:0c P:27 SP:f9 CYC:25792
fb1a  60         RTS         A:11 X:02 Y:0c P:27 SP:f9 CYC:25794
f6a4  ad 47 06   LDA $0647   A:11 X:02 Y:0c P:27 SP:fb CYC:25800
f6a7  c9 9b      CMP #$9b    A:9b X:02 Y:0c P:a5 SP:fb CYC:25804
f6a9  f0 02      BEQ $f6ad   A:9b X:02 Y:0c P:27 SP:fb CYC:25806
f6ad  a0 0d      LDY #$0d    A:9b X:02 Y:0c P:27 SP:fb CYC:25809
f6af  a2 ff      LDX #$ff    A:9b X:02 Y:0d P:25 SP:fb CYC:25811
f6b1  a9 a5      LDA #$a5    A:9b X:ff Y:0d P:a5 SP:fb CYC:25813
f6b3  85 47      STA $47     A:a5 X:ff Y:0d P:a5 SP:fb CYC:25815
f6b5  20 e9 fa   JSR $fae9   A:a5 X:ff Y:0d P:a5 SP:fb CYC:25818
fae9  24 01      BIT $01     A:a5 X:ff Y:0d P:a5 SP:f9 CYC:25824
faeb  18         CLC         A:a5 X:ff Y:0d P:e5 SP:f9 CYC:25827
faec  a9 b2      LDA #$b2    A:a5 X:ff Y:0d P:e4 SP:f9 CYC:25829
faee  60         RTS         A:b2 X:ff Y:0d P:e4 SP:f9 CYC:25831
f6b8  77 48      RRA $48,X   A:b2 X:ff Y:0d P:e4 SP:fb CYC:25837
f6ba  ea         NOP         A:05 X:ff Y:0d P:25 SP:fb CYC:25843
f6bb  ea         NOP         A:05 X:ff Y:0d P:25 SP:fb CYC:25845
f6bc  ea         NOP         A:05 X:ff Y:0d P:25 SP:fb CYC:25847
f6bd  ea         NOP         A:05 X:ff Y:0d P:25 SP:fb CYC:25849
f6be  20 ef fa   JSR $faef   A:05 X:ff Y:0d P:25 SP:fb CYC:25851
faef  70 2a      BVS $fb1b   A:05 X:ff Y:0d P:25 SP:f9 CYC:25857
faf1  90 28      BCC $fb1b   A:05 X:ff Y:0d P:25 SP:f9 CYC:25859
faf3  30 26      BMI $fb1b   A:05 X:ff Y:0d P:25 SP:f9 CYC:25861
faf5  c9 05      CMP #$05    A:05 X:ff Y:0d P:25 SP:f9 CYC:25863
faf7  d0 22      BNE $fb1b   A:05 X:ff Y:0d P:27 SP:f9 CYC:25865
faf9  60         RTS         A:05 X:ff Y:0d P:27 SP:f9 CYC:25867
f6c1  a5 47      LDA $47     A:05 X:ff Y:0d P:27 SP:fb CYC:25873
f6c3  c9 52      CMP #$52    A:52 X:ff Y:0d P:25 SP:fb CYC:25876
f6c5  f0 02      BEQ $f6c9   A:52 X:ff Y:0d P:27 SP:fb CYC:25878
f6c9  c8         INY         A:52 X:ff Y:0d P:27 SP:fb CYC:25881
f6ca  a9 29      LDA #$29    A:52 X:ff Y:0e P:25 SP:fb CYC:25883
f6cc  85 47      STA $47     A:29 X:ff Y:0e P:25 SP:fb CYC:25885
f6ce  20 fa fa   JSR $fafa   A:29 X:ff Y:0e P:25 SP:fb CYC:25888
fafa  b8         CLV         A:29 X:ff Y:0e P:25 SP:f9 CYC:25894
fafb  18         CLC         A:29 X:ff Y:0e P:25 SP:f9 CYC:25896
fafc  a9 42      LDA #$42    A:29 X:ff Y:0e P:24 SP:f9 CYC:25898
fafe  60         RTS         A:42 X:ff Y:0e P:24 SP:f9 CYC:25900
f6d1  77 48      RRA $48,X   A:42 X:ff Y:0e P:24 SP:fb CYC:25906
f6d3  ea         NOP         A:57 X:ff Y:0e P:24 SP:fb CYC:25912
f6d4  ea         NOP         A:57 X:ff Y:0e P:24 SP:fb CYC:25914
f6d5  ea         NOP         A:57 X:ff Y:0e P:24 SP:fb CYC:25916
f6d6  ea         NOP         A:57 X:ff Y:0e P:24 SP:fb CYC:25918
f6d7  20 ff fa   JSR $faff   A:57 X:ff Y:0e P:24 SP:fb CYC:25920
faff  70 1a      BVS $fb1b   A:57 X:ff Y:0e P:24 SP:f9 CYC:25926
fb01  30 18      BMI $fb1b   A:57 X:ff Y:0e P:24 SP:f9 CYC:25928
fb03  b0 16      BCS $fb1b   A:57 X:ff Y:0e P:24 SP:f9 CYC:25930
fb05  c9 57      CMP #$57    A:57 X:ff Y:0e P:24 SP:f9 CYC:25932
fb07  d0 12      BNE $fb1b   A:57 X:ff Y:0e P:27 SP:f9 CYC:25934
fb09  60         RTS         A:57 X:ff Y:0e P:27 SP:f9 CYC:25936
f6da  a5 47      LDA $47     A:57 X:ff Y:0e P:27 SP:fb CYC:25942
f6dc  c9 14      CMP #$14    A:14 X:ff Y:0e P:25 SP:fb CYC:25945
f6de  f0 02      BEQ $f6e2   A:14 X:ff Y:0e P:27 SP:fb CYC:25947
f6e2  c8         INY         A:14 X:ff Y:0e P:27 SP:fb CYC:25950
f6e3  a9 37      LDA #$37    A:14 X:ff Y:0f P:25 SP:fb CYC:25952
f6e5  85 47      STA $47     A:37 X:ff Y:0f P:25 SP:fb CYC:25954
f6e7  20 0a fb   JSR $fb0a   A:37 X:ff Y:0f P:25 SP:fb CYC:25957
fb0a  24 01      BIT $01     A:37 X:ff Y:0f P:25 SP:f9 CYC:25963
fb0c  38         SEC         A:37 X:ff Y:0f P:e5 SP:f9 CYC:25966
fb0d  a9 75      LDA #$75    A:37 X:ff Y:0f P:e5 SP:f9 CYC:25968
fb0f  60         RTS         A:75 X:ff Y:0f P:65 SP:f9 CYC:25970
f6ea  77 48      RRA $48,X   A:75 X:ff Y:0f P:65 SP:fb CYC:25976
f6ec  ea         NOP         A:11 X:ff Y:0f P:25 SP:fb CYC:25982
f6ed  ea         NOP         A:11 X:ff Y:0f P:25 SP:fb CYC:25984
f6ee  ea         NOP         A:11 X:ff Y:0f P:25 SP:fb CYC:25986
f6ef  ea         NOP         A:11 X:ff Y:0f P:25 SP:fb CYC:25988
f6f0  20 10 fb   JSR $fb10   A:11 X:ff Y:0f P:25 SP:fb CYC:25990
fb10  70 09      BVS $fb1b   A:11 X:ff Y:0f P:25 SP:f9 CYC:25996
fb12  30 07      BMI $fb1b   A:11 X:ff Y:0f P:25 SP:f9 CYC:25998
fb14  90 05      BCC $fb1b   A:11 X:ff Y:0f P:25 SP:f9 CYC:26000
fb16  c9 11      CMP #$11    A:11 X:ff Y:0f P:25 SP:f9 CYC:26002
fb18  d0 01      BNE $fb1b   A:11 X:ff Y:0f P:27 SP:f9 CYC:26004
fb1a  60         RTS         A:11 X:ff Y:0f P:27 SP:f9 CYC:26006
f6f3  a5 47      LDA $47     A:11 X:ff Y:0f P:27 SP:fb CYC:26012
f6f5  c9 9b      CMP #$9b    A:9b X:ff Y:0f P:a5 SP:fb CYC:26015
f6f7  f0 02      BEQ $f6fb   A:9b X:ff Y:0f P:27 SP:fb CYC:26017
f6fb  a9 a5      LDA #$a5    A:9b X:ff Y:0f P:27 SP:fb CYC:26020
f6fd  8d 47 06   STA $0647   A:a5 X:ff Y:0f P:a5 SP:fb CYC:26022
f700  a0 ff      LDY #$ff    A:a5 X:ff Y:0f P:a5 SP:fb CYC:26026
f702  20 e9 fa   JSR $fae9   A:a5 X:ff Y:ff P:a5 SP:fb CYC:26028
fae9  24 01      BIT $01     A:a5 X:ff Y:ff P:a5 SP:f9 CYC:26034
faeb  18         CLC         A:a5 X:ff Y:ff P:e5 SP:f9 CYC:26037
faec  a9 b2      LDA #$b2    A:a5 X:ff Y:ff P:e4 SP:f9 CYC:26039
faee  60         RTS         A:b2 X:ff Y:ff P:e4 SP:f9 CYC:26041
f705  7b 48 05   RRA $0548,Y A:b2 X:ff Y:ff P:e4 SP:fb CYC:26047
f708  ea         NOP         A:05 X:ff Y:ff P:25 SP:fb CYC:26054
f709  ea         NOP         A:05 X:ff Y:ff P:25 SP:fb CYC:26056
f70a  08         PHP         A:05 X:ff Y:ff P:25 SP:fb CYC:26058
f70b  48         PHA         A:05 X:ff Y:ff P:25 SP:fa CYC:26061
f70c  a0 10      LDY #$10    A:05 X:ff Y:ff P:25 SP:f9 CYC:26064
f70e  68         PLA         A:05 X:ff Y:10 P:25 SP:f9 CYC:26066
f70f  28         PLP         A:05 X:ff Y:10 P:25 SP:fa CYC:26070
f710  20 ef fa   JSR $faef   A:05 X:ff Y:10 P:25 SP:fb CYC:26074
faef  70 2a      BVS $fb1b   A:05 X:ff Y:10 P:25 SP:f9 CYC:26080
faf1  90 28      BCC $fb1b   A:05 X:ff Y:10 P:25 SP:f9 CYC:26082
faf3  30 26      BMI $fb1b   A:05 X:ff Y:10 P:25 SP:f9 CYC:26084
faf5  c9 05      CMP #$05    A:05 X:ff Y:10 P:25 SP:f9 CYC:26086
faf7  d0 22      BNE $fb1b   A:05 X:ff Y:10 P:27 SP:f9 CYC:26088
faf9  60         RTS         A:05 X:ff Y:10 P:27 SP:f9 CYC:26090
f713  ad 47 06   LDA $0647   A:05 X:ff Y:10 P:27 SP:fb CYC:26096
f716  c9 52      CMP #$52    A:52 X:ff Y:10 P:25 SP:fb CYC:26100
f718  f0 02      BEQ $f71c   A:52 X:ff Y:10 P:27 SP:fb CYC:26102
f71c  a0 ff      LDY #$ff    A:52 X:ff Y:10 P:27 SP:fb CYC:26105
f71e  a9 29      LDA #$29    A:52 X:ff Y:ff P:a5 SP:fb CYC:26107
f720  8d 47 06   STA $0647   A:29 X:ff Y:ff P:25 SP:fb CYC:26109
f723  20 fa fa   JSR $fafa   A:29 X:ff Y:ff P:25 SP:fb CYC:26113
fafa  b8         CLV         A:29 X:ff Y:ff P:25 SP:f9 CYC:26119
fafb  18         CLC         A:29 X:ff Y:ff P:25 SP:f9 CYC:26121
fafc  a9 42      LDA #$42    A:29 X:ff Y:ff P:24 SP:f9 CYC:26123
fafe  60         RTS         A:42 X:ff Y:ff P:24 SP:f9 CYC:26125
f726  7b 48 05   RRA $0548,Y A:42 X:ff Y:ff P:24 SP:fb CYC:26131
f729  ea         NOP         A:57 X:ff Y:ff P:24 SP:fb CYC:26138
f72a  ea         NOP         A:57 X:ff Y:ff P:24 SP:fb CYC:26140
f72b  08         PHP         A:57 X:ff Y:ff P:24 SP:fb CYC:26142
f72c  48         PHA         A:57 X:ff Y:ff P:24 SP:fa CYC:26145
f72d  a0 11      LDY #$11    A:57 X:ff Y:ff P:24 SP:f9 CYC:26148
f72f  68         PLA         A:57 X:ff Y:11 P:24 SP:f9 CYC:26150
f730  28         PLP         A:57 X:ff Y:11 P:24 SP:fa CYC:26154
f731  20 ff fa   JSR $faff   A:57 X:ff Y:11 P:24 SP:fb CYC:26158
faff  70 1a      BVS $fb1b   A:57 X:ff Y:11 P:24 SP:f9 CYC:26164
fb01  30 18      BMI $fb1b   A:57 X:ff Y:11 P:24 SP:f9 CYC:26166
fb03  b0 16      BCS $fb1b   A:57 X:ff Y:11 P:24 SP:f9 CYC:26168
fb05  c9 57      CMP #$57    A:57 X:ff Y:11 P:24 SP:f9 CYC:26170
fb07  d0 12      BNE $fb1b   A:57 X:ff Y:11 P:27 SP:f9 CYC:26172
fb09  60         RTS         A:57 X:ff Y:11 P:27 SP:f9 CYC:26174
f734  ad 47 06   LDA $0647   A:57 X:ff Y:11 P:27 SP:fb CYC:26180
f737  c9 14      CMP #$14    A:14 X:ff Y:11 P:25 SP:fb CYC:26184
f739  f0 02      BEQ $f73d   A:14 X:ff Y:11 P:27 SP:fb CYC:26186
f73d  a0 ff      LDY #$ff    A:14 X:ff Y:11 P:27 SP:fb CYC:26189
f73f  a9 37      LDA #$37    A:14 X:ff Y:ff P:a5 SP:fb CYC:26191
f741  8d 47 06   STA $0647   A:37 X:ff Y:ff P:25 SP:fb CYC:26193
f744  20 0a fb   JSR $fb0a   A:37 X:ff Y:ff P:25 SP:fb CYC:26197
fb0a  24 01      BIT $01     A:37 X:ff Y:ff P:25 SP:f9 CYC:26203
fb0c  38         SEC         A:37 X:ff Y:ff P:e5 SP:f9 CYC:26206
fb0d  a9 75      LDA #$75    A:37 X:ff Y:ff P:e5 SP:f9 CYC:26208
fb0f  60         RTS         A:75 X:ff Y:ff P:65 SP:f9 CYC:26210
f747  7b 48 05   RRA $0548,Y A:75 X:ff Y:ff P:65 SP:fb CYC:26216
f74a  ea         NOP         A:11 X:ff Y:ff P:25 SP:fb CYC:26223
f74b  ea         NOP         A:11 X:ff Y:ff P:25 SP:fb CYC:26225
f74c  08         PHP         A:11 X:ff Y:ff P:25 SP:fb CYC:26227
f74d  48         PHA         A:11 X:ff Y:ff P:25 SP:fa CYC:26230
f74e  a0 12      LDY #$12    A:11 X:ff Y:ff P:25 SP:f9 CYC:26233
f750  68         PLA         A:11 X:ff Y:12 P:25 SP:f9 CYC:26235
f751  28         PLP         A:11 X:ff Y:12 P:25 SP:fa CYC:26239
f752  20 10 fb   JSR $fb10   A:11 X:ff Y:12 P:25 SP:fb CYC:26243
fb10  70 09      BVS $fb1b   A:11 X:ff Y:12 P:25 SP:f9 CYC:26249
fb12  30 07      BMI $fb1b   A:11 X:ff Y:12 P:25 SP:f9 CYC:26251
fb14  90 05      BCC $fb1b   A:11 X:ff Y:12 P:25 SP:f9 CYC:26253
fb16  c9 11      CMP #$11    A:11 X:ff Y:12 P:25 SP:f9 CYC:26255
fb18  d0 01      BNE $fb1b   A:11 X:ff Y:12 P:27 SP:f9 CYC:26257
fb1a  60         RTS         A:11 X:ff Y:12 P:27 SP:f9 CYC:26259
f755  ad 47 06   LDA $0647   A:11 X:ff Y:12 P:27 SP:fb CYC:26265
f758  c9 9b      CMP #$9b    A:9b X:ff Y:12 P:a5 SP:fb CYC:26269
f75a  f0 02      BEQ $f75e   A:9b X:ff Y:12 P:27 SP:fb CYC:26271
f75e  a0 13      LDY #$13    A:9b X:ff Y:12 P:27 SP:fb CYC:26274
f760  a2 ff      LDX #$ff    A:9b X:ff Y:13 P:25 SP:fb CYC:26276
f762  a9 a5      LDA #$a5    A:9b X:ff Y:13 P:a5 SP:fb CYC:26278
f764  8d 47 06   STA $0647   A:a5 X:ff Y:13 P:a5 SP:fb CYC:26280
f767  20 e9 fa   JSR $fae9   A:a5 X:ff Y:13 P:a5 SP:fb CYC:26284
fae9  24 01      BIT $01     A:a5 X:ff Y:13 P:a5 SP:f9 CYC:26290
faeb  18         CLC         A:a5 X:ff Y:13 P:e5 SP:f9 CYC:26293
faec  a9 b2      LDA #$b2    A:a5 X:ff Y:13 P:e4 SP:f9 CYC:26295
faee  60         RTS         A:b2 X:ff Y:13 P:e4 SP:f9 CYC:26297
f76a  7f 48 05   RRA $0548,X A:b2 X:ff Y:13 P:e4 SP:fb CYC:26303
f76d  ea         NOP         A:05 X:ff Y:13 P:25 SP:fb CYC:26310
f76e  ea         NOP         A:05 X:ff Y:13 P:25 SP:fb CYC:26312
f76f  ea         NOP         A:05 X:ff Y:13 P:25 SP:fb CYC:26314
f770  ea         NOP         A:05 X:ff Y:13 P:25 SP:fb CYC:26316
f771  20 ef fa   JSR $faef   A:05 X:ff Y:13 P:25 SP:fb CYC:26318
faef  70 2a      BVS $fb1b   A:05 X:ff Y:13 P:25 SP:f9 CYC:26324
faf1  90 28      BCC $fb1b   A:05 X:ff Y:13 P:25 SP:f9 CYC:26326
faf3  30 26      BMI $fb1b   A:05 X:ff Y:13 P:25 SP:f9 CYC:26328
faf5  c9 05      CMP #$05    A:05 X:ff Y:13 P:25 SP:f9 CYC:26330
faf7  d0 22      BNE $fb1b   A:05 X:ff Y:13 P:27 SP:f9 CYC:26332
faf9  60         RTS         A:05 X:ff Y:13 P:27 SP:f9 CYC:26334
f774  ad 47 06   LDA $0647   A:05 X:ff Y:13 P:27 SP:fb CYC:26340
f777  c9 52      CMP #$52    A:52 X:ff Y:13 P:25 SP:fb CYC:26344
f779  f0 02      BEQ $f77d   A:52 X:ff Y:13 P:27 SP:fb CYC:26346
f77d  c8         INY         A:52 X:ff Y:13 P:27 SP:fb CYC:26349
f77e  a9 29      LDA #$29    A:52 X:ff Y:14 P:25 SP:fb CYC:26351
f780  8d 47 06   STA $0647   A:29 X:ff Y:14 P:25 SP:fb CYC:26353
f783  20 fa fa   JSR $fafa   A:29 X:ff Y:14 P:25 SP:fb CYC:26357
fafa  b8         CLV         A:29 X:ff Y:14 P:25 SP:f9 CYC:26363
fafb  18         CLC         A:29 X:ff Y:14 P:25 SP:f9 CYC:26365
fafc  a9 42      LDA #$42    A:29 X:ff Y:14 P:24 SP:f9 CYC:26367
fafe  60         RTS         A:42 X:ff Y:14 P:24 SP:f9 CYC:26369
f786  7f 48 05   RRA $0548,X A:42 X:ff Y:14 P:24 SP:fb CYC:26375
f789  ea         NOP         A:57 X:ff Y:14 P:24 SP:fb CYC:26382
f78a  ea         NOP         A:57 X:ff Y:14 P:24 SP:fb CYC:26384
f78b  ea         NOP         A:57 X:ff Y:14 P:24 SP:fb CYC:26386
f78c  ea         NOP         A:57 X:ff Y:14 P:24 SP:fb CYC:26388
f78d  20 ff fa   JSR $faff   A:57 X:ff Y:14 P:24 SP:fb CYC:26390
faff  70 1a      BVS $fb1b   A:57 X:ff Y:14 P:24 SP:f9 CYC:26396
fb01  30 18      BMI $fb1b   A:57 X:ff Y:14 P:24 SP:f9 CYC:26398
fb03  b0 16      BCS $fb1b   A:57 X:ff Y:14 P:24 SP:f9 CYC:26400
fb05  c9 57      CMP #$57    A:57 X:ff Y:14 P:24 SP:f9 CYC:26402
fb07  d0 12      BNE $fb1b   A:57 X:ff Y:14 P:27 SP:f9 CYC:26404
fb09  60         RTS         A:57 X:ff Y:14 P:27 SP:f9 CYC:26406
f790  ad 47 06   LDA $0647   A:57 X:ff Y:14 P:27 SP:fb CYC:26412
f793  c9 14      CMP #$14    A:14 X:ff Y:14 P:25 SP:fb CYC:26416
f795  f0 02      BEQ $f799   A:14 X:ff Y:14 P:27 SP:fb CYC:26418
f799  c8         INY         A:14 X:ff Y:14 P:27 SP:fb CYC:26421
f79a  a9 37      LDA #$37    A:14 X:ff Y:15 P:25 SP:fb CYC:26423
f79c  8d 47 06   STA $0647   A:37 X:ff Y:15 P:25 SP:fb CYC:26425
f79f  20 0a fb   JSR $fb0a   A:37 X:ff Y:15 P:25 SP:fb CYC:26429
fb0a  24 01      BIT $01     A:37 X:ff Y:15 P:25 SP:f9 CYC:26435
fb0c  38         SEC         A:37 X:ff Y:15 P:e5 SP:f9 CYC:26438
fb0d  a9 75      LDA #$75    A:37 X:ff Y:15 P:e5 SP:f9 CYC:26440
fb0f  60         RTS         A:75 X:ff Y:15 P:65 SP:f9 CYC:26442
f7a2  7f 48 05   RRA $0548,X A:75 X:ff Y:15 P:65 SP:fb CYC:26448
f7a5  ea         NOP         A:11 X:ff Y:15 P:25 SP:fb CYC:26455
f7a6  ea         NOP         A:11 X:ff Y:15 P:25 SP:fb CYC:26457
f7a7  ea         NOP         A:11 X:ff Y:15 P:25 SP:fb CYC:26459
f7a8  ea         NOP         A:11 X:ff Y:15 P:25 SP:fb CYC:26461
f7a9  20 10 fb   JSR $fb10   A:11 X:ff Y:15 P:25 SP:fb CYC:26463
fb10  70 09      BVS $fb1b   A:11 X:ff Y:15 P:25 SP:f9 CYC:26469
fb12  30 07      BMI $fb1b   A:11 X:ff Y:15 P:25 SP:f9 CYC:26471
fb14  90 05      BCC $fb1b   A:11 X:ff Y:15 P:25 SP:f9 CYC:26473
fb16  c9 11      CMP #$11    A:11 X:ff Y:15 P:25 SP:f9 CYC:26475
fb18  d0 01      BNE $fb1b   A:11 X:ff Y:15 P:27 SP:f9 CYC:26477
fb1a  60         RTS         A:11 X:ff Y:15 P:27 SP:f9 CYC:26479
f7ac  ad 47 06   LDA $0647   A:11 X:ff Y:15 P:27 SP:fb CYC:26485
f7af  c9 9b      CMP #$9b    A:9b X:ff Y:15 P:a5 SP:fb CYC:26489
f7b1  f0 02      BEQ $f7b5   A:9b X:ff Y:15 P:27 SP:fb CYC:26491
f7b5  60         RTS         A:9b X:ff Y:15 P:27 SP:fb CYC:26494
c655  a5 00      LDA $00     A:9b X:ff Y:15 P:27 SP:fd CYC:26500
c657  05 10      ORA $10     A:00 X:ff Y:15 P:27 SP:fd CYC:26503
c659  05 11      ORA $11     A:00 X:ff Y:15 P:27 SP:fd CYC:26506
c65b  f0 0e      BEQ $c66b   A:00 X:ff Y:15 P:27 SP:fd CYC:26509
c66b  20 89 c6   JSR $c689   A:00 X:ff Y:15 P:27 SP:fd CYC:26512
c689  a9 02      LDA #$02    A:00 X:ff Y:15 P:27 SP:fb CYC:26518
c68b  8d 15 40   STA $4015   A:02 X:ff Y:15 P:25 SP:fb CYC:26520
c68e  a9 3f      LDA #$3f    A:02 X:ff Y:15 P:25 SP:fb CYC:26524
c690  8d 04 40   STA $4004   A:3f X:ff Y:15 P:25 SP:fb CYC:26526
c693  a9 9a      LDA #$9a    A:3f X:ff Y:15 P:25 SP:fb CYC:26530
c695  8d 05 40   STA $4005   A:9a X:ff Y:15 P:a5 SP:fb CYC:26532
c698  a9 ff      LDA #$ff    A:9a X:ff Y:15 P:a5 SP:fb CYC:26536
c69a  8d 06 40   STA $4006   A:ff X:ff Y:15 P:a5 SP:fb CYC:26538
c69d  a9 00      LDA #$00    A:ff X:ff Y:15 P:a5 SP:fb CYC:26542
c69f  8d 07 40   STA $4007   A:00 X:ff Y:15 P:27 SP:fb CYC:26544
c6a2  60         RTS         A:00 X:ff Y:15 P:27 SP:fb CYC:26548
c66e  60         RTS         A:00 X:ff Y:15 P:27 SP:fd CYC:26554
01  ff 00 00   ISC $00,X   A:00 X:ff Y:15 P:27 SP:ff CYC:26560
04  00         BRK         A:b9 X:ff Y:15 P:e4 SP:ff CYC:26567
c506  20 74 65   JSR $6574   A:b9 X:ff Y:15 P:e4 SP:fc CYC:26574
